ARM GAS  /var/folders/th/s5djnwg15xxc0dk87c413f_h0000gn/T//ccXOGyQC.s 			page 1


   1              		.cpu cortex-m7
   2              		.arch armv7e-m
   3              		.fpu fpv5-d16
   4              		.eabi_attribute 28, 1
   5              		.eabi_attribute 20, 1
   6              		.eabi_attribute 21, 1
   7              		.eabi_attribute 23, 3
   8              		.eabi_attribute 24, 1
   9              		.eabi_attribute 25, 1
  10              		.eabi_attribute 26, 1
  11              		.eabi_attribute 30, 2
  12              		.eabi_attribute 34, 1
  13              		.eabi_attribute 18, 4
  14              		.file	"WavPlayer.cpp"
  15              		.text
  16              	.Ltext0:
  17              		.cfi_sections	.debug_frame
  18              		.section	.text._ZN5daisy9DaisySeedD2Ev,"axG",%progbits,_ZN5daisy9DaisySeedD5Ev,comdat
  19              		.align	1
  20              		.p2align 2,,3
  21              		.weak	_ZN5daisy9DaisySeedD2Ev
  22              		.syntax unified
  23              		.thumb
  24              		.thumb_func
  26              	_ZN5daisy9DaisySeedD2Ev:
  27              	.LVL0:
  28              	.LFB4477:
  29              		.file 1 "../../libDaisy/src/daisy_seed.h"
   1:../../libDaisy/src/daisy_seed.h **** #pragma once
   2:../../libDaisy/src/daisy_seed.h **** #ifndef DSY_SEED_H
   3:../../libDaisy/src/daisy_seed.h **** #define DSY_SEED_H
   4:../../libDaisy/src/daisy_seed.h **** 
   5:../../libDaisy/src/daisy_seed.h **** #include "daisy.h"
   6:../../libDaisy/src/daisy_seed.h **** 
   7:../../libDaisy/src/daisy_seed.h **** //Uncomment this out if you're still using the rev2 hardware
   8:../../libDaisy/src/daisy_seed.h **** //#define SEED_REV2
   9:../../libDaisy/src/daisy_seed.h **** 
  10:../../libDaisy/src/daisy_seed.h **** namespace daisy
  11:../../libDaisy/src/daisy_seed.h **** {
  12:../../libDaisy/src/daisy_seed.h **** /**
  13:../../libDaisy/src/daisy_seed.h ****    @brief This is the higher-level interface for the Daisy board. \n 
  14:../../libDaisy/src/daisy_seed.h ****     All basic peripheral configuration/initialization is setup here. \n
  15:../../libDaisy/src/daisy_seed.h **** 
  16:../../libDaisy/src/daisy_seed.h ****    @ingroup boards
  17:../../libDaisy/src/daisy_seed.h **** */
  18:../../libDaisy/src/daisy_seed.h **** class DaisySeed
  19:../../libDaisy/src/daisy_seed.h **** {
  20:../../libDaisy/src/daisy_seed.h ****   public:
  21:../../libDaisy/src/daisy_seed.h ****     DaisySeed() {}
  22:../../libDaisy/src/daisy_seed.h ****     ~DaisySeed() {}
  30              		.loc 1 22 5 view -0
  31              		.cfi_startproc
  32              		@ args = 0, pretend = 0, frame = 0
  33              		@ frame_needed = 0, uses_anonymous_args = 0
  34              		@ link register save eliminated.
  35              	.LBB289:
  36              	.LBI289:
ARM GAS  /var/folders/th/s5djnwg15xxc0dk87c413f_h0000gn/T//ccXOGyQC.s 			page 2


  37              		.file 2 "../../libDaisy/src/sys/system.h"
   1:../../libDaisy/src/sys/system.h **** #ifndef DSY_SYSTEM_H
   2:../../libDaisy/src/sys/system.h **** #define DSY_SYSTEM_H
   3:../../libDaisy/src/sys/system.h **** 
   4:../../libDaisy/src/sys/system.h **** #ifndef UNIT_TEST // for unit tests, a dummy implementation is provided below
   5:../../libDaisy/src/sys/system.h **** 
   6:../../libDaisy/src/sys/system.h **** #include <cstdint>
   7:../../libDaisy/src/sys/system.h **** #include "per/tim.h"
   8:../../libDaisy/src/sys/system.h **** 
   9:../../libDaisy/src/sys/system.h **** namespace daisy
  10:../../libDaisy/src/sys/system.h **** {
  11:../../libDaisy/src/sys/system.h **** /** A handle for interacting with the Core System.
  12:../../libDaisy/src/sys/system.h ****  ** This includes the Clock tree, MPU, global DMA initialization,
  13:../../libDaisy/src/sys/system.h ****  ** cache handling, and any other necessary global initiailzation
  14:../../libDaisy/src/sys/system.h ****  **
  15:../../libDaisy/src/sys/system.h ****  ** @author shensley
  16:../../libDaisy/src/sys/system.h ****  ** @ingroup system
  17:../../libDaisy/src/sys/system.h ****  */
  18:../../libDaisy/src/sys/system.h **** class System
  19:../../libDaisy/src/sys/system.h **** {
  20:../../libDaisy/src/sys/system.h ****   public:
  21:../../libDaisy/src/sys/system.h ****     /** Contains settings for initializing the System */
  22:../../libDaisy/src/sys/system.h ****     struct Config
  23:../../libDaisy/src/sys/system.h ****     {
  24:../../libDaisy/src/sys/system.h ****         /** Specifies the system clock frequency that feeds APB/AHB clocks, etc. */
  25:../../libDaisy/src/sys/system.h ****         enum class SysClkFreq
  26:../../libDaisy/src/sys/system.h ****         {
  27:../../libDaisy/src/sys/system.h ****             FREQ_400MHZ,
  28:../../libDaisy/src/sys/system.h ****             FREQ_480MHZ,
  29:../../libDaisy/src/sys/system.h ****         };
  30:../../libDaisy/src/sys/system.h **** 
  31:../../libDaisy/src/sys/system.h ****         /** Method to call on the struct to set to defaults
  32:../../libDaisy/src/sys/system.h ****          ** CPU Freq set to 400MHz
  33:../../libDaisy/src/sys/system.h ****          ** Cache Enabled
  34:../../libDaisy/src/sys/system.h ****          ** */
  35:../../libDaisy/src/sys/system.h ****         void Defaults()
  36:../../libDaisy/src/sys/system.h ****         {
  37:../../libDaisy/src/sys/system.h ****             cpu_freq    = SysClkFreq::FREQ_400MHZ;
  38:../../libDaisy/src/sys/system.h ****             use_dcache  = true;
  39:../../libDaisy/src/sys/system.h ****             use_icache  = true;
  40:../../libDaisy/src/sys/system.h ****             skip_clocks = false;
  41:../../libDaisy/src/sys/system.h ****         }
  42:../../libDaisy/src/sys/system.h **** 
  43:../../libDaisy/src/sys/system.h ****         /** Method to call on the struct to set to boost mode:
  44:../../libDaisy/src/sys/system.h ****          ** CPU Freq set to 480MHz
  45:../../libDaisy/src/sys/system.h ****          ** Cache Enabled
  46:../../libDaisy/src/sys/system.h ****          ** */
  47:../../libDaisy/src/sys/system.h ****         void Boost()
  48:../../libDaisy/src/sys/system.h ****         {
  49:../../libDaisy/src/sys/system.h ****             cpu_freq    = SysClkFreq::FREQ_480MHZ;
  50:../../libDaisy/src/sys/system.h ****             use_dcache  = true;
  51:../../libDaisy/src/sys/system.h ****             use_icache  = true;
  52:../../libDaisy/src/sys/system.h ****             skip_clocks = false;
  53:../../libDaisy/src/sys/system.h ****         }
  54:../../libDaisy/src/sys/system.h **** 
  55:../../libDaisy/src/sys/system.h ****         SysClkFreq cpu_freq;
  56:../../libDaisy/src/sys/system.h ****         bool       use_dcache;
ARM GAS  /var/folders/th/s5djnwg15xxc0dk87c413f_h0000gn/T//ccXOGyQC.s 			page 3


  57:../../libDaisy/src/sys/system.h ****         bool       use_icache;
  58:../../libDaisy/src/sys/system.h ****         bool       skip_clocks;
  59:../../libDaisy/src/sys/system.h ****     };
  60:../../libDaisy/src/sys/system.h **** 
  61:../../libDaisy/src/sys/system.h ****     /** Describes the different regions of memory available to the Daisy */
  62:../../libDaisy/src/sys/system.h ****     enum MemoryRegion
  63:../../libDaisy/src/sys/system.h ****     {
  64:../../libDaisy/src/sys/system.h ****         INTERNAL_FLASH = 0,
  65:../../libDaisy/src/sys/system.h ****         ITCMRAM,
  66:../../libDaisy/src/sys/system.h ****         DTCMRAM,
  67:../../libDaisy/src/sys/system.h ****         SRAM_D1,
  68:../../libDaisy/src/sys/system.h ****         SRAM_D2,
  69:../../libDaisy/src/sys/system.h ****         SRAM_D3,
  70:../../libDaisy/src/sys/system.h ****         SDRAM,
  71:../../libDaisy/src/sys/system.h ****         QSPI,
  72:../../libDaisy/src/sys/system.h ****         INVALID_ADDRESS,
  73:../../libDaisy/src/sys/system.h ****     };
  74:../../libDaisy/src/sys/system.h **** 
  75:../../libDaisy/src/sys/system.h ****     /** Bootloader struct for controlling bootloading parameters */
  76:../../libDaisy/src/sys/system.h ****     struct BootInfo
  77:../../libDaisy/src/sys/system.h ****     {
  78:../../libDaisy/src/sys/system.h ****         enum class Type : uint32_t
  79:../../libDaisy/src/sys/system.h ****         {
  80:../../libDaisy/src/sys/system.h ****             INVALID      = 0x00000000,
  81:../../libDaisy/src/sys/system.h ****             JUMP         = 0xDEADBEEF,
  82:../../libDaisy/src/sys/system.h ****             SKIP_TIMEOUT = 0x5AFEB007,
  83:../../libDaisy/src/sys/system.h ****             INF_TIMEOUT  = 0xB0074EFA,
  84:../../libDaisy/src/sys/system.h ****         } status;
  85:../../libDaisy/src/sys/system.h ****         uint32_t data;
  86:../../libDaisy/src/sys/system.h ****         enum class Version : uint32_t
  87:../../libDaisy/src/sys/system.h ****         {
  88:../../libDaisy/src/sys/system.h ****             LT_v6_0 = 0, // Less than v6.0
  89:../../libDaisy/src/sys/system.h ****             NONE,        // No bootloader present
  90:../../libDaisy/src/sys/system.h ****             v6_0,        // v6.0
  91:../../libDaisy/src/sys/system.h ****             v6_1,        // v6.1 or greater
  92:../../libDaisy/src/sys/system.h ****             LAST
  93:../../libDaisy/src/sys/system.h ****         } version;
  94:../../libDaisy/src/sys/system.h ****     };
  95:../../libDaisy/src/sys/system.h **** 
  96:../../libDaisy/src/sys/system.h ****     System() {}
  97:../../libDaisy/src/sys/system.h ****     ~System() {}
  38              		.loc 2 97 5 view .LVU1
  39              		.loc 2 97 5 is_stmt 0 view .LVU2
  40              	.LBE289:
  41              	.LBB290:
  42              	.LBI290:
  43              		.file 3 "../../libDaisy/src/hid/usb.h"
   1:../../libDaisy/src/hid/usb.h **** #pragma once
   2:../../libDaisy/src/hid/usb.h **** #ifndef DSY_HID_USB_H
   3:../../libDaisy/src/hid/usb.h **** #define DSY_HID_USB_H
   4:../../libDaisy/src/hid/usb.h **** #include <stdint.h>
   5:../../libDaisy/src/hid/usb.h **** #include <stdlib.h>
   6:../../libDaisy/src/hid/usb.h **** 
   7:../../libDaisy/src/hid/usb.h **** namespace daisy
   8:../../libDaisy/src/hid/usb.h **** /** @addtogroup human_interface
   9:../../libDaisy/src/hid/usb.h ****     @{
  10:../../libDaisy/src/hid/usb.h **** */
ARM GAS  /var/folders/th/s5djnwg15xxc0dk87c413f_h0000gn/T//ccXOGyQC.s 			page 4


  11:../../libDaisy/src/hid/usb.h **** 
  12:../../libDaisy/src/hid/usb.h **** {
  13:../../libDaisy/src/hid/usb.h **** /** 
  14:../../libDaisy/src/hid/usb.h ****     @brief Interface for initializing and using the USB Peripherals on the daisy
  15:../../libDaisy/src/hid/usb.h ****     @author Stephen Hensley
  16:../../libDaisy/src/hid/usb.h ****     @date December 2019
  17:../../libDaisy/src/hid/usb.h **** */
  18:../../libDaisy/src/hid/usb.h **** class UsbHandle
  19:../../libDaisy/src/hid/usb.h **** {
  20:../../libDaisy/src/hid/usb.h ****   public:
  21:../../libDaisy/src/hid/usb.h ****     /** Return values for USBHandle Functions */
  22:../../libDaisy/src/hid/usb.h ****     enum class Result
  23:../../libDaisy/src/hid/usb.h ****     {
  24:../../libDaisy/src/hid/usb.h ****         OK,
  25:../../libDaisy/src/hid/usb.h ****         ERR,
  26:../../libDaisy/src/hid/usb.h ****     };
  27:../../libDaisy/src/hid/usb.h **** 
  28:../../libDaisy/src/hid/usb.h ****     /** Specified which of the two USB Peripherals to initialize. */
  29:../../libDaisy/src/hid/usb.h ****     enum UsbPeriph
  30:../../libDaisy/src/hid/usb.h ****     {
  31:../../libDaisy/src/hid/usb.h ****         FS_INTERNAL, /**< Internal pin */
  32:../../libDaisy/src/hid/usb.h ****         FS_EXTERNAL, /**< FS External D+ pin is Pin 38 (GPIO32). FS External D- pin is Pin 37 (GPIO
  33:../../libDaisy/src/hid/usb.h ****         FS_BOTH,     /**< Both */
  34:../../libDaisy/src/hid/usb.h ****     };
  35:../../libDaisy/src/hid/usb.h **** 
  36:../../libDaisy/src/hid/usb.h **** 
  37:../../libDaisy/src/hid/usb.h ****     /** Function called upon reception of a buffer */
  38:../../libDaisy/src/hid/usb.h ****     typedef void (*ReceiveCallback)(uint8_t* buff, uint32_t* len);
  39:../../libDaisy/src/hid/usb.h **** 
  40:../../libDaisy/src/hid/usb.h ****     UsbHandle() {}
  41:../../libDaisy/src/hid/usb.h **** 
  42:../../libDaisy/src/hid/usb.h ****     ~UsbHandle() {}
  44              		.loc 3 42 5 is_stmt 1 view .LVU3
  45              		.loc 3 42 5 is_stmt 0 view .LVU4
  46              	.LBE290:
  47              	.LBB291:
  48              	.LBI291:
  49              		.file 4 "../../libDaisy/src/per/adc.h"
   1:../../libDaisy/src/per/adc.h **** #pragma once
   2:../../libDaisy/src/per/adc.h **** #ifndef DSY_ADC_H
   3:../../libDaisy/src/per/adc.h **** #define DSY_ADC_H /**< Macro */
   4:../../libDaisy/src/per/adc.h **** #include <stdint.h>
   5:../../libDaisy/src/per/adc.h **** #include <stdlib.h>
   6:../../libDaisy/src/per/adc.h **** #include "daisy_core.h"
   7:../../libDaisy/src/per/adc.h **** #include "per/gpio.h"
   8:../../libDaisy/src/per/adc.h **** 
   9:../../libDaisy/src/per/adc.h **** #define DSY_ADC_MAX_CHANNELS 16 /**< Maximum number of ADC channels */
  10:../../libDaisy/src/per/adc.h **** 
  11:../../libDaisy/src/per/adc.h **** namespace daisy
  12:../../libDaisy/src/per/adc.h **** {
  13:../../libDaisy/src/per/adc.h **** /** @addtogroup per_analog
  14:../../libDaisy/src/per/adc.h ****     @{
  15:../../libDaisy/src/per/adc.h **** */
  16:../../libDaisy/src/per/adc.h **** 
  17:../../libDaisy/src/per/adc.h **** /* While there may not be many configuration options here,
  18:../../libDaisy/src/per/adc.h **** using a struct like this allows us to add more configuration
  19:../../libDaisy/src/per/adc.h **** later without breaking existing functionality.
ARM GAS  /var/folders/th/s5djnwg15xxc0dk87c413f_h0000gn/T//ccXOGyQC.s 			page 5


  20:../../libDaisy/src/per/adc.h **** */
  21:../../libDaisy/src/per/adc.h **** 
  22:../../libDaisy/src/per/adc.h **** /** @brief   Configuration Structure for an ADC Channel 
  23:../../libDaisy/src/per/adc.h ****  *  @details This can be used to configure a a single input, 
  24:../../libDaisy/src/per/adc.h ****  *           or a multiplexed input, allowing up to 8 inputs on 
  25:../../libDaisy/src/per/adc.h ****  *           one channel.
  26:../../libDaisy/src/per/adc.h ****  *  @note    Sharing data lines to multiple muxes _is_ possible, but
  27:../../libDaisy/src/per/adc.h ****  *           each channel sharing data lines must be set to the maximum
  28:../../libDaisy/src/per/adc.h ****  *           number of channels, even if some multiplexers have fewer
  29:../../libDaisy/src/per/adc.h ****  *           inputs connected.
  30:../../libDaisy/src/per/adc.h **** */
  31:../../libDaisy/src/per/adc.h **** struct AdcChannelConfig
  32:../../libDaisy/src/per/adc.h **** {
  33:../../libDaisy/src/per/adc.h ****     /** Which pin to use for multiplexing */
  34:../../libDaisy/src/per/adc.h ****     enum MuxPin
  35:../../libDaisy/src/per/adc.h ****     {
  36:../../libDaisy/src/per/adc.h ****         MUX_SEL_0,    /**< & */
  37:../../libDaisy/src/per/adc.h ****         MUX_SEL_1,    /**< & */
  38:../../libDaisy/src/per/adc.h ****         MUX_SEL_2,    /**< & */
  39:../../libDaisy/src/per/adc.h ****         MUX_SEL_LAST, /**< & */
  40:../../libDaisy/src/per/adc.h ****     };
  41:../../libDaisy/src/per/adc.h **** 
  42:../../libDaisy/src/per/adc.h ****     /** \brief per channel conversion speed added to fixed time based on bitdepth, etc. */
  43:../../libDaisy/src/per/adc.h ****     enum ConversionSpeed
  44:../../libDaisy/src/per/adc.h ****     {
  45:../../libDaisy/src/per/adc.h ****         SPEED_1CYCLES_5,
  46:../../libDaisy/src/per/adc.h ****         SPEED_2CYCLES_5,
  47:../../libDaisy/src/per/adc.h ****         SPEED_8CYCLES_5,
  48:../../libDaisy/src/per/adc.h ****         SPEED_16CYCLES_5,
  49:../../libDaisy/src/per/adc.h ****         SPEED_32CYCLES_5,
  50:../../libDaisy/src/per/adc.h ****         SPEED_64CYCLES_5,
  51:../../libDaisy/src/per/adc.h ****         SPEED_387CYCLES_5,
  52:../../libDaisy/src/per/adc.h ****         SPEED_810CYCLES_5,
  53:../../libDaisy/src/per/adc.h ****     };
  54:../../libDaisy/src/per/adc.h **** 
  55:../../libDaisy/src/per/adc.h ****     /** Initializes a single ADC pin as an ADC. 
  56:../../libDaisy/src/per/adc.h ****     \param pin Pin to init.
  57:../../libDaisy/src/per/adc.h ****     \param speed conversion speed for this pin defaults to 8.5 cycles
  58:../../libDaisy/src/per/adc.h ****      */
  59:../../libDaisy/src/per/adc.h ****     void InitSingle(dsy_gpio_pin pin, ConversionSpeed speed = SPEED_8CYCLES_5);
  60:../../libDaisy/src/per/adc.h **** 
  61:../../libDaisy/src/per/adc.h ****     /** 
  62:../../libDaisy/src/per/adc.h ****     Initializes a single ADC pin as a Multiplexed ADC.
  63:../../libDaisy/src/per/adc.h ****     Requires a CD405X Multiplexer connected to the pin.
  64:../../libDaisy/src/per/adc.h ****     You only need to supply the mux pins that are required,
  65:../../libDaisy/src/per/adc.h ****     e.g. a 4052 mux would only require mux_0 and mux_1.
  66:../../libDaisy/src/per/adc.h ****     Internal Callbacks handle the pin addressing.
  67:../../libDaisy/src/per/adc.h ****     \param adc_pin &
  68:../../libDaisy/src/per/adc.h ****     \param mux_channels must be 1-8
  69:../../libDaisy/src/per/adc.h ****     \param mux_0 First mux pin
  70:../../libDaisy/src/per/adc.h ****     \param mux_1 Second mux pin
  71:../../libDaisy/src/per/adc.h ****     \param mux_2 Third mux pin
  72:../../libDaisy/src/per/adc.h ****     \param speed conversion speed for this pin defaults to 8.5 cycles
  73:../../libDaisy/src/per/adc.h ****     */
  74:../../libDaisy/src/per/adc.h ****     void InitMux(dsy_gpio_pin    adc_pin,
  75:../../libDaisy/src/per/adc.h ****                  size_t          mux_channels,
  76:../../libDaisy/src/per/adc.h ****                  dsy_gpio_pin    mux_0,
ARM GAS  /var/folders/th/s5djnwg15xxc0dk87c413f_h0000gn/T//ccXOGyQC.s 			page 6


  77:../../libDaisy/src/per/adc.h ****                  dsy_gpio_pin    mux_1 = {DSY_GPIOX, 0},
  78:../../libDaisy/src/per/adc.h ****                  dsy_gpio_pin    mux_2 = {DSY_GPIOX, 0},
  79:../../libDaisy/src/per/adc.h ****                  ConversionSpeed speed = SPEED_8CYCLES_5);
  80:../../libDaisy/src/per/adc.h **** 
  81:../../libDaisy/src/per/adc.h ****     dsy_gpio        pin_;                   /**< & */
  82:../../libDaisy/src/per/adc.h ****     dsy_gpio        mux_pin_[MUX_SEL_LAST]; /**< & */
  83:../../libDaisy/src/per/adc.h ****     uint8_t         mux_channels_;          /**< & */
  84:../../libDaisy/src/per/adc.h ****     ConversionSpeed speed_;
  85:../../libDaisy/src/per/adc.h **** };
  86:../../libDaisy/src/per/adc.h **** 
  87:../../libDaisy/src/per/adc.h **** /**
  88:../../libDaisy/src/per/adc.h ****    @brief Handler for analog to digital conversion
  89:../../libDaisy/src/per/adc.h **** */
  90:../../libDaisy/src/per/adc.h **** class AdcHandle
  91:../../libDaisy/src/per/adc.h **** {
  92:../../libDaisy/src/per/adc.h ****   public:
  93:../../libDaisy/src/per/adc.h ****     /** Supported oversampling amounts */
  94:../../libDaisy/src/per/adc.h ****     enum OverSampling
  95:../../libDaisy/src/per/adc.h ****     {
  96:../../libDaisy/src/per/adc.h ****         OVS_NONE, /**< & */
  97:../../libDaisy/src/per/adc.h ****         OVS_4,    /**< & */
  98:../../libDaisy/src/per/adc.h ****         OVS_8,    /**< & */
  99:../../libDaisy/src/per/adc.h ****         OVS_16,   /**< & */
 100:../../libDaisy/src/per/adc.h ****         OVS_32,   /**< & */
 101:../../libDaisy/src/per/adc.h ****         OVS_64,   /**< & */
 102:../../libDaisy/src/per/adc.h ****         OVS_128,  /**< & */
 103:../../libDaisy/src/per/adc.h ****         OVS_256,  /**< & */
 104:../../libDaisy/src/per/adc.h ****         OVS_512,  /**< & */
 105:../../libDaisy/src/per/adc.h ****         OVS_1024, /**< & */
 106:../../libDaisy/src/per/adc.h ****         OVS_LAST, /**< & */
 107:../../libDaisy/src/per/adc.h ****     };
 108:../../libDaisy/src/per/adc.h **** 
 109:../../libDaisy/src/per/adc.h ****     AdcHandle() {}
 110:../../libDaisy/src/per/adc.h ****     ~AdcHandle() {}
  50              		.loc 4 110 5 is_stmt 1 view .LVU5
  51              		.loc 4 110 5 is_stmt 0 view .LVU6
  52              	.LBE291:
  53              	.LBB292:
  54              	.LBI292:
  55              		.file 5 "../../libDaisy/src/hid/audio.h"
   1:../../libDaisy/src/hid/audio.h **** #ifndef DSY_AUDIO_H
   2:../../libDaisy/src/hid/audio.h **** #define DSY_AUDIO_H /**< & */
   3:../../libDaisy/src/hid/audio.h **** 
   4:../../libDaisy/src/hid/audio.h **** #include "per/sai.h"
   5:../../libDaisy/src/hid/audio.h **** 
   6:../../libDaisy/src/hid/audio.h **** namespace daisy
   7:../../libDaisy/src/hid/audio.h **** {
   8:../../libDaisy/src/hid/audio.h **** /** @brief Audio Engine Handle
   9:../../libDaisy/src/hid/audio.h ****  *  @ingroup audio 
  10:../../libDaisy/src/hid/audio.h ****  *  @details This class allows for higher level access to an audio engine.
  11:../../libDaisy/src/hid/audio.h ****  *           If you're using a SOM like the DaisySeed or DaisyPatchSM (or any 
  12:../../libDaisy/src/hid/audio.h ****  *            board that includes one of those objects) then the intialization
  13:../../libDaisy/src/hid/audio.h ****  *            is already taken  care of.
  14:../../libDaisy/src/hid/audio.h ****  *           If you're setting up your own custom hardware, or need to make changes
  15:../../libDaisy/src/hid/audio.h ****  *           you will have to take the following steps:
  16:../../libDaisy/src/hid/audio.h ****  *             1. Create and Initialize an SaiHandle or two depending on your requirements
  17:../../libDaisy/src/hid/audio.h ****  *             2. Initialize the Audio Handle with the desired settings and the Initialized SaiHand
ARM GAS  /var/folders/th/s5djnwg15xxc0dk87c413f_h0000gn/T//ccXOGyQC.s 			page 7


  18:../../libDaisy/src/hid/audio.h ****  *             3. If the connected codec requires special configuration or initialization, do so
  19:../../libDaisy/src/hid/audio.h ****  *             4. Write a callback method using either the AudioCallback or the InterleavingAudioCa
  20:../../libDaisy/src/hid/audio.h ****  *             5. Start the Audio using one of the StartAudio function
  21:../../libDaisy/src/hid/audio.h ****  */
  22:../../libDaisy/src/hid/audio.h **** class AudioHandle
  23:../../libDaisy/src/hid/audio.h **** {
  24:../../libDaisy/src/hid/audio.h ****   public:
  25:../../libDaisy/src/hid/audio.h ****     /** Manually configurable details about the Audio Engine */
  26:../../libDaisy/src/hid/audio.h ****     /** TODO: Figure out how to get samplerate in here. */
  27:../../libDaisy/src/hid/audio.h ****     struct Config
  28:../../libDaisy/src/hid/audio.h ****     {
  29:../../libDaisy/src/hid/audio.h ****         /** number of samples to process per callback */
  30:../../libDaisy/src/hid/audio.h ****         size_t blocksize;
  31:../../libDaisy/src/hid/audio.h **** 
  32:../../libDaisy/src/hid/audio.h ****         /**< Sample rate of audio */
  33:../../libDaisy/src/hid/audio.h ****         SaiHandle::Config::SampleRate samplerate;
  34:../../libDaisy/src/hid/audio.h **** 
  35:../../libDaisy/src/hid/audio.h ****         /** factor for adjustment before and after callback for hardware that may have extra headro
  36:../../libDaisy/src/hid/audio.h ****         float postgain;
  37:../../libDaisy/src/hid/audio.h **** 
  38:../../libDaisy/src/hid/audio.h ****         /** factor for additional one-sided compensation to audio path for hardware that may
  39:../../libDaisy/src/hid/audio.h ****          *  have unequal input/output ranges
  40:../../libDaisy/src/hid/audio.h ****          */
  41:../../libDaisy/src/hid/audio.h ****         float output_compensation;
  42:../../libDaisy/src/hid/audio.h **** 
  43:../../libDaisy/src/hid/audio.h ****         /** Sets default values for config struct */
  44:../../libDaisy/src/hid/audio.h ****         Config()
  45:../../libDaisy/src/hid/audio.h ****         : blocksize(48),
  46:../../libDaisy/src/hid/audio.h ****           samplerate(SaiHandle::Config::SampleRate::SAI_48KHZ),
  47:../../libDaisy/src/hid/audio.h ****           postgain(1.f),
  48:../../libDaisy/src/hid/audio.h ****           output_compensation(1.f)
  49:../../libDaisy/src/hid/audio.h ****         {
  50:../../libDaisy/src/hid/audio.h ****         }
  51:../../libDaisy/src/hid/audio.h ****     };
  52:../../libDaisy/src/hid/audio.h **** 
  53:../../libDaisy/src/hid/audio.h ****     enum class Result
  54:../../libDaisy/src/hid/audio.h ****     {
  55:../../libDaisy/src/hid/audio.h ****         OK,
  56:../../libDaisy/src/hid/audio.h ****         ERR,
  57:../../libDaisy/src/hid/audio.h ****     };
  58:../../libDaisy/src/hid/audio.h **** 
  59:../../libDaisy/src/hid/audio.h ****     /** Non-Interleaving input buffer
  60:../../libDaisy/src/hid/audio.h ****      * Buffer arranged by float[chn][sample] 
  61:../../libDaisy/src/hid/audio.h ****      * const so that the user can't modify the input
  62:../../libDaisy/src/hid/audio.h ****      */
  63:../../libDaisy/src/hid/audio.h ****     typedef const float* const* InputBuffer;
  64:../../libDaisy/src/hid/audio.h **** 
  65:../../libDaisy/src/hid/audio.h ****     /** Non-Interleaving output buffer
  66:../../libDaisy/src/hid/audio.h ****      * Arranged by float[chn][sample] 
  67:../../libDaisy/src/hid/audio.h ****      */
  68:../../libDaisy/src/hid/audio.h ****     typedef float** OutputBuffer;
  69:../../libDaisy/src/hid/audio.h **** 
  70:../../libDaisy/src/hid/audio.h ****     /** Type for a Non-Interleaving audio callback 
  71:../../libDaisy/src/hid/audio.h ****      * Non-Interleaving audio callbacks in daisy will be of this type
  72:../../libDaisy/src/hid/audio.h ****      */
  73:../../libDaisy/src/hid/audio.h ****     typedef void (*AudioCallback)(InputBuffer  in,
  74:../../libDaisy/src/hid/audio.h ****                                   OutputBuffer out,
ARM GAS  /var/folders/th/s5djnwg15xxc0dk87c413f_h0000gn/T//ccXOGyQC.s 			page 8


  75:../../libDaisy/src/hid/audio.h ****                                   size_t       size);
  76:../../libDaisy/src/hid/audio.h **** 
  77:../../libDaisy/src/hid/audio.h ****     /** Interleaving Input buffer
  78:../../libDaisy/src/hid/audio.h ****      ** audio is prepared as { L0, R0, L1, R1, . . . LN, RN }]
  79:../../libDaisy/src/hid/audio.h ****      ** this is const, as the user shouldn't modify it
  80:../../libDaisy/src/hid/audio.h ****     */
  81:../../libDaisy/src/hid/audio.h ****     typedef const float* InterleavingInputBuffer;
  82:../../libDaisy/src/hid/audio.h **** 
  83:../../libDaisy/src/hid/audio.h ****     /** Interleaving Output buffer 
  84:../../libDaisy/src/hid/audio.h ****      ** audio is prepared as { L0, R0, L1, R1, . . . LN, RN }
  85:../../libDaisy/src/hid/audio.h ****     */
  86:../../libDaisy/src/hid/audio.h ****     typedef float* InterleavingOutputBuffer;
  87:../../libDaisy/src/hid/audio.h **** 
  88:../../libDaisy/src/hid/audio.h ****     /** Interleaving Audio Callback 
  89:../../libDaisy/src/hid/audio.h ****      * Interleaving audio callbacks in daisy must be of this type
  90:../../libDaisy/src/hid/audio.h ****      */
  91:../../libDaisy/src/hid/audio.h ****     typedef void (*InterleavingAudioCallback)(InterleavingInputBuffer  in,
  92:../../libDaisy/src/hid/audio.h ****                                               InterleavingOutputBuffer out,
  93:../../libDaisy/src/hid/audio.h ****                                               size_t                   size);
  94:../../libDaisy/src/hid/audio.h **** 
  95:../../libDaisy/src/hid/audio.h ****     AudioHandle() : pimpl_(nullptr) {}
  96:../../libDaisy/src/hid/audio.h ****     ~AudioHandle() {}
  56              		.loc 5 96 5 is_stmt 1 view .LVU7
  57              		.loc 5 96 5 is_stmt 0 view .LVU8
  58              	.LBE292:
  59              		.loc 1 22 19 view .LVU9
  60 0000 7047     		bx	lr
  61              		.cfi_endproc
  62              	.LFE4477:
  64              		.weak	_ZN5daisy9DaisySeedD1Ev
  65              		.thumb_set _ZN5daisy9DaisySeedD1Ev,_ZN5daisy9DaisySeedD2Ev
  66 0002 00BF     		.section	.text._ZL13AudioCallbackPKPKfPPfj,"ax",%progbits
  67              		.align	1
  68              		.p2align 2,,3
  69              		.syntax unified
  70              		.thumb
  71              		.thumb_func
  73              	_ZL13AudioCallbackPKPKfPPfj:
  74              	.LVL1:
  75              	.LFB4525:
  76              		.file 6 "WavPlayer.cpp"
   1:WavPlayer.cpp **** /**
   2:WavPlayer.cpp ****  * stringtone ŌĆö Hall-Effect Sensor Instrument
   3:WavPlayer.cpp ****  * ŌöĆŌöĆŌöĆŌöĆŌöĆŌöĆŌöĆŌöĆŌöĆŌöĆŌöĆŌöĆŌöĆŌöĆŌöĆŌöĆŌöĆŌöĆŌöĆŌöĆŌöĆŌöĆŌöĆŌöĆŌöĆŌöĆŌöĆŌöĆŌöĆŌöĆŌöĆŌöĆ
   4:WavPlayer.cpp ****  * Target : Daisy Seed (STM32H750) + libDaisy
   5:WavPlayer.cpp ****  * Author : Alex Ikeda
   6:WavPlayer.cpp ****  *
   7:WavPlayer.cpp ****  * ŌöĆŌöĆ Hardware connections ŌöĆŌöĆŌöĆŌöĆŌöĆŌöĆŌöĆŌöĆŌöĆŌöĆŌöĆŌöĆŌöĆŌöĆŌöĆŌöĆŌöĆŌöĆŌöĆŌöĆŌöĆŌöĆŌö
   8:WavPlayer.cpp ****  *
   9:WavPlayer.cpp ****  *  Selector mux  (controls which channel mux is enabled)
  10:WavPlayer.cpp ****  *    S0 ŌåÆ D17 | S1 ŌåÆ D16 | S2 ŌåÆ D15
  11:WavPlayer.cpp ****  *
  12:WavPlayer.cpp ****  *  Channel muxes (8├Ś, all share the same address lines)
  13:WavPlayer.cpp ****  *    S0 ŌåÆ D20 | S1 ŌåÆ D19 | S2 ŌåÆ D18
  14:WavPlayer.cpp ****  *
  15:WavPlayer.cpp ****  *  Analog input  ŌĆö active sensor output ŌåÆ A8
  16:WavPlayer.cpp ****  *  Audio output  ŌĆö waveform ŌåÆ OUT_L (audio out 1)
ARM GAS  /var/folders/th/s5djnwg15xxc0dk87c413f_h0000gn/T//ccXOGyQC.s 			page 9


  17:WavPlayer.cpp ****  *
  18:WavPlayer.cpp ****  * ŌöĆŌöĆ Grid addressing (col 0..7, row 0..7) ŌöĆŌöĆŌöĆŌöĆŌöĆŌöĆŌöĆŌöĆŌöĆŌöĆŌöĆŌöĆŌöĆŌöĆŌöĆŌöĆŌöĆŌ
  19:WavPlayer.cpp ****  *
  20:WavPlayer.cpp ****  *  col_pair     = col / 2
  21:WavPlayer.cpp ****  *  channel_base = (col % 2 == 0) ? 4 : 0      even cols use ch 4ŌĆō7, odd use 0ŌĆō3
  22:WavPlayer.cpp ****  *  selector     = col_pair * 2 + (row >= 4)    top half ŌåÆ even sel, bottom ŌåÆ odd
  23:WavPlayer.cpp ****  *  ch_address   = channel_base + (row % 4)
  24:WavPlayer.cpp ****  *
  25:WavPlayer.cpp ****  *  Example:  col=0 row=0 ŌåÆ sel=0 ch=4  (top of col 1, sensor a4, selector a0)
  26:WavPlayer.cpp ****  *            col=0 row=6 ŌåÆ sel=1 ch=6  (bottom of col 1, sensor a6, selector a1)
  27:WavPlayer.cpp ****  *            col=1 row=0 ŌåÆ sel=0 ch=0  (top of col 2, sensor a0, selector a0)
  28:WavPlayer.cpp ****  *
  29:WavPlayer.cpp ****  * ŌöĆŌöĆ Waveform semantics ŌöĆŌöĆŌöĆŌöĆŌöĆŌöĆŌöĆŌöĆŌöĆŌöĆŌöĆŌöĆŌöĆŌöĆŌöĆŌöĆŌöĆŌöĆŌöĆŌöĆŌöĆŌöĆŌöĆŌ
  30:WavPlayer.cpp ****  *
  31:WavPlayer.cpp ****  *  Per-column positions feed 8 control points: amp0..amp7
  32:WavPlayer.cpp ****  *  ZERO_ROW (3.5) is the zero-amplitude reference ŌĆö the midpoint between rows 3
  33:WavPlayer.cpp ****  *  and 4.  The mapping is symmetric: p=0 ŌåÆ ŌłÆ1.0, p=3.5 ŌåÆ 0.0, p=7 ŌåÆ +1.0.
  34:WavPlayer.cpp ****  *  At idle (no magnet), UpdatePosition holds each column at ZERO_ROW, so all
  35:WavPlayer.cpp ****  *  control points remain at 0 and the output is silence.
  36:WavPlayer.cpp ****  *  Interpolated via Catmull-Rom cubic Hermite ŌåÆ smooth but saw/triangle capable.
  37:WavPlayer.cpp ****  *  Wavetable swaps use a short linear crossfade (CROSSFADE_LEN samples) so
  38:WavPlayer.cpp ****  *  clicks are eliminated regardless of waveform shape at the swap point.
  39:WavPlayer.cpp ****  *
  40:WavPlayer.cpp ****  * ŌöĆŌöĆ Noise filtering ŌöĆŌöĆŌöĆŌöĆŌöĆŌöĆŌöĆŌöĆŌöĆŌöĆŌöĆŌöĆŌöĆŌöĆŌöĆŌöĆŌöĆŌöĆŌöĆŌöĆŌöĆŌöĆŌöĆŌöĆŌ
  41:WavPlayer.cpp ****  *
  42:WavPlayer.cpp ****  *  1. Deviation threshold (kNoiseFloor):       sensor differences (compared to baseline) 
  43:WavPlayer.cpp ****  *                                              below this are ignored.
  44:WavPlayer.cpp ****  *  2. Centroid weighting:                      position is the deviation-weighted
  45:WavPlayer.cpp ****  *                                              centroid of all active sensors,
  46:WavPlayer.cpp ****  *                                              giving sub-sensor precision for free.
  47:WavPlayer.cpp ****  *  3. Hysteresis dead-zone (kPosDead):         new centroid must differ from current
  48:WavPlayer.cpp ****  *                                              position by > kPosDead to register.
  49:WavPlayer.cpp ****  *  4. Smoothing (kSmooth):                     moving average on position
  50:WavPlayer.cpp ****  *                                              eliminates residual scan-to-scan jitter.
  51:WavPlayer.cpp ****  */
  52:WavPlayer.cpp **** 
  53:WavPlayer.cpp **** 
  54:WavPlayer.cpp **** // Install libDaisy here: https://daisy.audio/tutorials/cpp-dev-env/
  55:WavPlayer.cpp **** #include <daisy_seed.h>
  56:WavPlayer.cpp **** #include <dev/oled_ssd130x.h>
  57:WavPlayer.cpp **** #include <per/i2c.h>
  58:WavPlayer.cpp **** 
  59:WavPlayer.cpp **** #include <algorithm>   // std::clamp
  60:WavPlayer.cpp **** #include <cmath>       // std::abs, std::fabsf
  61:WavPlayer.cpp **** #include <cstring>     // std::memset
  62:WavPlayer.cpp **** 
  63:WavPlayer.cpp **** using namespace daisy;
  64:WavPlayer.cpp **** 
  65:WavPlayer.cpp **** // ŌĢÉŌĢÉŌĢÉŌĢÉŌĢÉŌĢÉŌĢÉŌĢÉŌĢÉŌĢÉŌĢÉŌĢÉŌĢÉŌĢÉŌĢÉŌĢÉŌĢÉŌĢÉŌĢÉŌĢÉŌĢÉŌĢÉŌĢÉŌĢÉŌĢÉŌĢÉŌĢÉŌĢÉŌĢÉŌĢÉŌĢÉŌĢÉ
  66:WavPlayer.cpp **** //  Constants  (do not change at runtime)
  67:WavPlayer.cpp **** // ŌĢÉŌĢÉŌĢÉŌĢÉŌĢÉŌĢÉŌĢÉŌĢÉŌĢÉŌĢÉŌĢÉŌĢÉŌĢÉŌĢÉŌĢÉŌĢÉŌĢÉŌĢÉŌĢÉŌĢÉŌĢÉŌĢÉŌĢÉŌĢÉŌĢÉŌĢÉŌĢÉŌĢÉŌĢÉŌĢÉŌĢÉŌĢÉ
  68:WavPlayer.cpp **** 
  69:WavPlayer.cpp **** static constexpr int   STARTUP_DELAY_MS = 1000;
  70:WavPlayer.cpp **** static constexpr int   NUM_COLS       = 8;
  71:WavPlayer.cpp **** static constexpr int   NUM_ROWS       = 8;
  72:WavPlayer.cpp **** static constexpr int   WAVETABLE_SIZE = 2048;   // samples per waveform period, linear interpolatio
  73:WavPlayer.cpp ****                                                 // samples depending on sample rate
ARM GAS  /var/folders/th/s5djnwg15xxc0dk87c413f_h0000gn/T//ccXOGyQC.s 			page 10


  74:WavPlayer.cpp **** static constexpr int   CTRL_PTS       = 8;      // one control point per column, for Catmull-Rom in
  75:WavPlayer.cpp **** static constexpr float ZERO_ROW       = 3.5f;   // midpoint between rows 3 and 4 ŌåÆ 0.0 amplitude
  76:WavPlayer.cpp ****                                                 // p=0 ŌåÆ ŌłÆ1.0, p=3.5 ŌåÆ 0.0, p=7.0 ŌåÆ +1.0
  77:WavPlayer.cpp **** static constexpr float SUPPLY_VOLTS   = 3.3f;   // ADC reference voltage
  78:WavPlayer.cpp **** 
  79:WavPlayer.cpp **** // Crossfade length in samples.  At 48 kHz this is Ōēł 2.7 ms ŌĆö long enough to
  80:WavPlayer.cpp **** // suppress any discontinuity click, short enough to be imperceptible as lag.
  81:WavPlayer.cpp **** // Must be shorter than one full scan cycle (Ōēł 9.6 ms at kScanDelayUs = 150).
  82:WavPlayer.cpp **** static constexpr int   CROSSFADE_LEN  = 10;
  83:WavPlayer.cpp **** 
  84:WavPlayer.cpp **** // ŌĢÉŌĢÉŌĢÉŌĢÉŌĢÉŌĢÉŌĢÉŌĢÉŌĢÉŌĢÉŌĢÉŌĢÉŌĢÉŌĢÉŌĢÉŌĢÉŌĢÉŌĢÉŌĢÉŌĢÉŌĢÉŌĢÉŌĢÉŌĢÉŌĢÉŌĢÉŌĢÉŌĢÉŌĢÉŌĢÉŌĢÉŌĢÉ
  85:WavPlayer.cpp **** //  User-adjustable parameters
  86:WavPlayer.cpp **** // ŌĢÉŌĢÉŌĢÉŌĢÉŌĢÉŌĢÉŌĢÉŌĢÉŌĢÉŌĢÉŌĢÉŌĢÉŌĢÉŌĢÉŌĢÉŌĢÉŌĢÉŌĢÉŌĢÉŌĢÉŌĢÉŌĢÉŌĢÉŌĢÉŌĢÉŌĢÉŌĢÉŌĢÉŌĢÉŌĢÉŌĢÉŌĢÉ
  87:WavPlayer.cpp **** 
  88:WavPlayer.cpp **** static float baseline[NUM_COLS][NUM_ROWS];
  89:WavPlayer.cpp **** 
  90:WavPlayer.cpp **** static float    kNoiseFloor     = 0.007f;   // |deviation| below which a sensor is ignored (V)
  91:WavPlayer.cpp **** static float    kPosDead        = 0.10f;    // Dead-zone for centroid hysteresis (row units)
  92:WavPlayer.cpp **** static float    kSmooth         = 1.0f;     // Smoothing coefficient  [0=frozen, 1=instant]
  93:WavPlayer.cpp **** static float    kSplineTension  = 1.0f;     // Tension parameter for Catmull-Rom spline (0 = standa
  94:WavPlayer.cpp **** 
  95:WavPlayer.cpp **** static uint32_t kScanDelayUs = 200;    // ┬Ąs to wait after changing MUX address
  96:WavPlayer.cpp **** 
  97:WavPlayer.cpp **** static bool     kDebugStep      = true;
  98:WavPlayer.cpp **** static bool     kDebugDisplay   = false;
  99:WavPlayer.cpp **** static bool     kDebugParams    = false;
 100:WavPlayer.cpp **** static uint32_t kDebugDelayMs   = 2000;
 101:WavPlayer.cpp **** 
 102:WavPlayer.cpp **** static float    kPlayFrequency  = 200.0f; // Hz ŌĆö A3 by default
 103:WavPlayer.cpp **** 
 104:WavPlayer.cpp **** // ŌĢÉŌĢÉŌĢÉŌĢÉŌĢÉŌĢÉŌĢÉŌĢÉŌĢÉŌĢÉŌĢÉŌĢÉŌĢÉŌĢÉŌĢÉŌĢÉŌĢÉŌĢÉŌĢÉŌĢÉŌĢÉŌĢÉŌĢÉŌĢÉŌĢÉŌĢÉŌĢÉŌĢÉŌĢÉŌĢÉŌĢÉŌĢÉ
 105:WavPlayer.cpp **** //  Hardware objects
 106:WavPlayer.cpp **** // ŌĢÉŌĢÉŌĢÉŌĢÉŌĢÉŌĢÉŌĢÉŌĢÉŌĢÉŌĢÉŌĢÉŌĢÉŌĢÉŌĢÉŌĢÉŌĢÉŌĢÉŌĢÉŌĢÉŌĢÉŌĢÉŌĢÉŌĢÉŌĢÉŌĢÉŌĢÉŌĢÉŌĢÉŌĢÉŌĢÉŌĢÉŌĢÉ
 107:WavPlayer.cpp **** 
 108:WavPlayer.cpp **** static DaisySeed hw;
 109:WavPlayer.cpp **** 
 110:WavPlayer.cpp **** static SSD130xDriver<128, 64, SSD130xI2CTransport>         display;
 111:WavPlayer.cpp **** static SSD130xDriver<128, 64, SSD130xI2CTransport>::Config display_config;
 112:WavPlayer.cpp **** 
 113:WavPlayer.cpp **** static GPIO sel_gpio[3];   // Selector mux: S0ŌåÆD17, S1ŌåÆD16, S2ŌåÆD15
 114:WavPlayer.cpp **** static GPIO ch_gpio[3];    // Channel muxes: S0ŌåÆD20, S1ŌåÆD19, S2ŌåÆD18
 115:WavPlayer.cpp **** 
 116:WavPlayer.cpp **** static GPIO noise_floor_gpio;
 117:WavPlayer.cpp **** static GPIO pos_dead_gpio;
 118:WavPlayer.cpp **** static GPIO smooth_gpio;
 119:WavPlayer.cpp **** static GPIO scan_delay_gpio;
 120:WavPlayer.cpp **** 
 121:WavPlayer.cpp **** // ŌĢÉŌĢÉŌĢÉŌĢÉŌĢÉŌĢÉŌĢÉŌĢÉŌĢÉŌĢÉŌĢÉŌĢÉŌĢÉŌĢÉŌĢÉŌĢÉŌĢÉŌĢÉŌĢÉŌĢÉŌĢÉŌĢÉŌĢÉŌĢÉŌĢÉŌĢÉŌĢÉŌĢÉŌĢÉŌĢÉŌĢÉŌĢÉ
 122:WavPlayer.cpp **** //  Sensor & position state
 123:WavPlayer.cpp **** // ŌĢÉŌĢÉŌĢÉŌĢÉŌĢÉŌĢÉŌĢÉŌĢÉŌĢÉŌĢÉŌĢÉŌĢÉŌĢÉŌĢÉŌĢÉŌĢÉŌĢÉŌĢÉŌĢÉŌĢÉŌĢÉŌĢÉŌĢÉŌĢÉŌĢÉŌĢÉŌĢÉŌĢÉŌĢÉŌĢÉŌĢÉŌĢÉ
 124:WavPlayer.cpp **** 
 125:WavPlayer.cpp **** static float sensor_v[NUM_COLS][NUM_ROWS]; // ADC readings in volts, updated each scan
 126:WavPlayer.cpp **** static float col_pos[NUM_COLS];            // hysteresis-gated centroid positions (0..7)
 127:WavPlayer.cpp **** static float col_pos_smooth[NUM_COLS];     // IIR-smoothed positions fed to waveform
 128:WavPlayer.cpp **** 
 129:WavPlayer.cpp **** // ŌĢÉŌĢÉŌĢÉŌĢÉŌĢÉŌĢÉŌĢÉŌĢÉŌĢÉŌĢÉŌĢÉŌĢÉŌĢÉŌĢÉŌĢÉŌĢÉŌĢÉŌĢÉŌĢÉŌĢÉŌĢÉŌĢÉŌĢÉŌĢÉŌĢÉŌĢÉŌĢÉŌĢÉŌĢÉŌĢÉŌĢÉŌĢÉ
 130:WavPlayer.cpp **** //  Wavetable ŌĆö double-buffered for click-free updates
ARM GAS  /var/folders/th/s5djnwg15xxc0dk87c413f_h0000gn/T//ccXOGyQC.s 			page 11


 131:WavPlayer.cpp **** // ŌĢÉŌĢÉŌĢÉŌĢÉŌĢÉŌĢÉŌĢÉŌĢÉŌĢÉŌĢÉŌĢÉŌĢÉŌĢÉŌĢÉŌĢÉŌĢÉŌĢÉŌĢÉŌĢÉŌĢÉŌĢÉŌĢÉŌĢÉŌĢÉŌĢÉŌĢÉŌĢÉŌĢÉŌĢÉŌĢÉŌĢÉŌĢÉ
 132:WavPlayer.cpp **** 
 133:WavPlayer.cpp **** static float            wavetable[2][WAVETABLE_SIZE];
 134:WavPlayer.cpp **** static volatile int     active_buf  = 0;
 135:WavPlayer.cpp **** static volatile bool    buf_pending = false;
 136:WavPlayer.cpp **** 
 137:WavPlayer.cpp **** static float phase = 0.0f; // normalised playback phase [0, 1)
 138:WavPlayer.cpp **** 
 139:WavPlayer.cpp **** // ŌĢÉŌĢÉŌĢÉŌĢÉŌĢÉŌĢÉŌĢÉŌĢÉŌĢÉŌĢÉŌĢÉŌĢÉŌĢÉŌĢÉŌĢÉŌĢÉŌĢÉŌĢÉŌĢÉŌĢÉŌĢÉŌĢÉŌĢÉŌĢÉŌĢÉŌĢÉŌĢÉŌĢÉŌĢÉŌĢÉŌĢÉŌĢÉ
 140:WavPlayer.cpp **** //  MUX addressing helpers
 141:WavPlayer.cpp **** // ŌĢÉŌĢÉŌĢÉŌĢÉŌĢÉŌĢÉŌĢÉŌĢÉŌĢÉŌĢÉŌĢÉŌĢÉŌĢÉŌĢÉŌĢÉŌĢÉŌĢÉŌĢÉŌĢÉŌĢÉŌĢÉŌĢÉŌĢÉŌĢÉŌĢÉŌĢÉŌĢÉŌĢÉŌĢÉŌĢÉŌĢÉŌĢÉ
 142:WavPlayer.cpp **** 
 143:WavPlayer.cpp **** static inline void SetSelectorAddr(uint8_t addr)
 144:WavPlayer.cpp **** {
 145:WavPlayer.cpp ****     sel_gpio[0].Write((addr >> 0) & 1u);
 146:WavPlayer.cpp ****     sel_gpio[1].Write((addr >> 1) & 1u);
 147:WavPlayer.cpp ****     sel_gpio[2].Write((addr >> 2) & 1u);
 148:WavPlayer.cpp **** }
 149:WavPlayer.cpp **** 
 150:WavPlayer.cpp **** static inline void SetChannelAddr(uint8_t addr)
 151:WavPlayer.cpp **** {
 152:WavPlayer.cpp ****     ch_gpio[0].Write((addr >> 0) & 1u);
 153:WavPlayer.cpp ****     ch_gpio[1].Write((addr >> 1) & 1u);
 154:WavPlayer.cpp ****     ch_gpio[2].Write((addr >> 2) & 1u);
 155:WavPlayer.cpp **** }
 156:WavPlayer.cpp **** 
 157:WavPlayer.cpp **** static void GetMuxAddrs(int col, int row, uint8_t &sel, uint8_t &ch)
 158:WavPlayer.cpp **** {
 159:WavPlayer.cpp ****     const int col_pair = col / 2;
 160:WavPlayer.cpp ****     const int ch_base  = (col % 2 == 0) ? 4 : 0;
 161:WavPlayer.cpp ****     sel = static_cast<uint8_t>(col_pair * 2 + (row >= 4 ? 1 : 0));
 162:WavPlayer.cpp ****     ch  = static_cast<uint8_t>(ch_base  + (row % 4));
 163:WavPlayer.cpp **** }
 164:WavPlayer.cpp **** 
 165:WavPlayer.cpp **** // ŌĢÉŌĢÉŌĢÉŌĢÉŌĢÉŌĢÉŌĢÉŌĢÉŌĢÉŌĢÉŌĢÉŌĢÉŌĢÉŌĢÉŌĢÉŌĢÉŌĢÉŌĢÉŌĢÉŌĢÉŌĢÉŌĢÉŌĢÉŌĢÉŌĢÉŌĢÉŌĢÉŌĢÉŌĢÉŌĢÉŌĢÉŌĢÉ
 166:WavPlayer.cpp **** //  Position estimation
 167:WavPlayer.cpp **** // ŌĢÉŌĢÉŌĢÉŌĢÉŌĢÉŌĢÉŌĢÉŌĢÉŌĢÉŌĢÉŌĢÉŌĢÉŌĢÉŌĢÉŌĢÉŌĢÉŌĢÉŌĢÉŌĢÉŌĢÉŌĢÉŌĢÉŌĢÉŌĢÉŌĢÉŌĢÉŌĢÉŌĢÉŌĢÉŌĢÉŌĢÉŌĢÉ
 168:WavPlayer.cpp **** 
 169:WavPlayer.cpp **** /**
 170:WavPlayer.cpp ****  * Compute a deviation-weighted centroid position for one column's sensor array.
 171:WavPlayer.cpp ****  *
 172:WavPlayer.cpp ****  * At idle (no magnet, all sensors near baseline), w_total < 1e-9 and
 173:WavPlayer.cpp ****  * current_pos is returned unchanged.  Because current_pos is initialised to
 174:WavPlayer.cpp ****  * ZERO_ROW (3.5), PosToAmplitude returns 0.0 ŌåÆ silence with no input.
 175:WavPlayer.cpp ****  *
 176:WavPlayer.cpp ****  * When a magnet is present the centroid naturally interpolates between adjacent
 177:WavPlayer.cpp ****  * sensors, giving sub-sensor resolution for free.  Dead-zone hysteresis
 178:WavPlayer.cpp ****  * prevents small noise perturbations from registering as position changes.
 179:WavPlayer.cpp ****  *
 180:WavPlayer.cpp ****  * @param voltages     NUM_ROWS sensor voltages for this column (volts).
 181:WavPlayer.cpp ****  * @param baselines    NUM_ROWS per-sensor calibration baselines (volts).
 182:WavPlayer.cpp ****  * @param current_pos  Previous position estimate [0.0, 7.0].
 183:WavPlayer.cpp ****  * @return             Updated (or held) position in [0.0, 7.0].
 184:WavPlayer.cpp ****  */
 185:WavPlayer.cpp **** static float UpdatePosition(const float *voltages, const float *baselines, float current_pos)
 186:WavPlayer.cpp **** {
 187:WavPlayer.cpp ****     float w_sum   = 0.0f;
ARM GAS  /var/folders/th/s5djnwg15xxc0dk87c413f_h0000gn/T//ccXOGyQC.s 			page 12


 188:WavPlayer.cpp ****     float w_total = 0.0f;
 189:WavPlayer.cpp **** 
 190:WavPlayer.cpp ****     for (int r = 0; r < NUM_ROWS; r++) {
 191:WavPlayer.cpp ****         float dev = fabsf(voltages[r] - baselines[r]);
 192:WavPlayer.cpp ****         if (dev > kNoiseFloor) {
 193:WavPlayer.cpp ****             w_sum   += static_cast<float>(r) * dev;
 194:WavPlayer.cpp ****             w_total += dev;
 195:WavPlayer.cpp ****         }
 196:WavPlayer.cpp ****     }
 197:WavPlayer.cpp **** 
 198:WavPlayer.cpp ****     if (w_total < 1e-9f)
 199:WavPlayer.cpp ****         return current_pos; // hold at ZERO_ROW when no sensor is active
 200:WavPlayer.cpp **** 
 201:WavPlayer.cpp ****     const float new_pos = w_sum / w_total;
 202:WavPlayer.cpp ****     return (fabsf(new_pos - current_pos) > kPosDead) ? new_pos : current_pos;
 203:WavPlayer.cpp **** }
 204:WavPlayer.cpp **** 
 205:WavPlayer.cpp **** /**
 206:WavPlayer.cpp ****  * Map a continuous row position to audio amplitude.
 207:WavPlayer.cpp ****  *
 208:WavPlayer.cpp ****  * The mapping is a single symmetric linear expression:
 209:WavPlayer.cpp ****  *
 210:WavPlayer.cpp ****  *   A(p) = (p ŌłÆ ZERO_ROW) / ZERO_ROW
 211:WavPlayer.cpp ****  *
 212:WavPlayer.cpp ****  * With ZERO_ROW = 3.5 and p Ōłł [0, 7]:
 213:WavPlayer.cpp ****  *   p = 0.0  ŌåÆ A = ŌłÆ1.0
 214:WavPlayer.cpp ****  *   p = 3.5  ŌåÆ A =  0.0   ŌåÉ idle / neutral
 215:WavPlayer.cpp ****  *   p = 7.0  ŌåÆ A = +1.0
 216:WavPlayer.cpp ****  *
 217:WavPlayer.cpp ****  * Because UpdatePosition initialises and holds at ZERO_ROW, all control
 218:WavPlayer.cpp ****  * points evaluate to exactly 0.0 when no magnet is present.
 219:WavPlayer.cpp ****  */
 220:WavPlayer.cpp **** static float PosToAmplitude(float p)
 221:WavPlayer.cpp **** {
 222:WavPlayer.cpp ****     return (p - ZERO_ROW) / ZERO_ROW;
 223:WavPlayer.cpp **** }
 224:WavPlayer.cpp **** 
 225:WavPlayer.cpp **** // ŌĢÉŌĢÉŌĢÉŌĢÉŌĢÉŌĢÉŌĢÉŌĢÉŌĢÉŌĢÉŌĢÉŌĢÉŌĢÉŌĢÉŌĢÉŌĢÉŌĢÉŌĢÉŌĢÉŌĢÉŌĢÉŌĢÉŌĢÉŌĢÉŌĢÉŌĢÉŌĢÉŌĢÉŌĢÉŌĢÉŌĢÉŌĢÉ
 226:WavPlayer.cpp **** //  Wavetable builder ŌĆö Catmull-Rom cubic Hermite interpolation
 227:WavPlayer.cpp **** // ŌĢÉŌĢÉŌĢÉŌĢÉŌĢÉŌĢÉŌĢÉŌĢÉŌĢÉŌĢÉŌĢÉŌĢÉŌĢÉŌĢÉŌĢÉŌĢÉŌĢÉŌĢÉŌĢÉŌĢÉŌĢÉŌĢÉŌĢÉŌĢÉŌĢÉŌĢÉŌĢÉŌĢÉŌĢÉŌĢÉŌĢÉŌĢÉ
 228:WavPlayer.cpp **** 
 229:WavPlayer.cpp **** /**
 230:WavPlayer.cpp ****  * Fill `table` (WAVETABLE_SIZE samples) by Catmull-Rom cubic Hermite
 231:WavPlayer.cpp ****  * interpolation over CTRL_PTS uniformly-spaced control points.
 232:WavPlayer.cpp ****  *
 233:WavPlayer.cpp ****  * Tangents (local parameter space, one unit per segment):
 234:WavPlayer.cpp ****  *   m[0]       = pts[1] ŌłÆ pts[0]                 forward difference
 235:WavPlayer.cpp ****  *   m[k]       = (pts[k+1] ŌłÆ pts[k-1]) / 2       central difference (interior)
 236:WavPlayer.cpp ****  *   m[CTRL-1]  = pts[CTRL-1] ŌłÆ pts[CTRL-2]       backward difference
 237:WavPlayer.cpp ****  *
 238:WavPlayer.cpp ****  * Cubic Hermite basis on segment [k, k+1], t Ōłł [0,1]:
 239:WavPlayer.cpp ****  *   p(t) = h00┬ĘpŌéĆ + h10┬ĘmŌéĆ + h01┬ĘpŌéü + h11┬ĘmŌéü
 240:WavPlayer.cpp ****  *   h00 =  2t┬│ ŌłÆ 3t┬▓ + 1
 241:WavPlayer.cpp ****  *   h10 =   t┬│ ŌłÆ 2t┬▓ + t
 242:WavPlayer.cpp ****  *   h01 = ŌłÆ2t┬│ + 3t┬▓
 243:WavPlayer.cpp ****  *   h11 =   t┬│ ŌłÆ  t┬▓
 244:WavPlayer.cpp ****  *
ARM GAS  /var/folders/th/s5djnwg15xxc0dk87c413f_h0000gn/T//ccXOGyQC.s 			page 13


 245:WavPlayer.cpp ****  * Output is clamped to [ŌłÆ1, 1] to guard against minor interpolation overshoot.
 246:WavPlayer.cpp ****  */
 247:WavPlayer.cpp **** static void BuildWavetable(float *table, const float *pts)
 248:WavPlayer.cpp **** {
 249:WavPlayer.cpp ****     const float s = (1.0f - kSplineTension);
 250:WavPlayer.cpp ****     float m[CTRL_PTS];
 251:WavPlayer.cpp ****     m[0]          = s * (pts[1] - pts[0]);
 252:WavPlayer.cpp ****     m[CTRL_PTS-1] = s * (pts[CTRL_PTS-1] - pts[CTRL_PTS-2]);
 253:WavPlayer.cpp ****     for (int k = 1; k < CTRL_PTS - 1; k++)
 254:WavPlayer.cpp ****         m[k] = s * (pts[k+1] - pts[k-1]) * 0.5f;
 255:WavPlayer.cpp **** 
 256:WavPlayer.cpp ****     for (int i = 0; i < WAVETABLE_SIZE; i++) {
 257:WavPlayer.cpp ****         const float tau = static_cast<float>(i) / static_cast<float>(WAVETABLE_SIZE);
 258:WavPlayer.cpp ****         const float ts  = tau * static_cast<float>(CTRL_PTS - 1);
 259:WavPlayer.cpp **** 
 260:WavPlayer.cpp ****         int         seg = static_cast<int>(ts);
 261:WavPlayer.cpp ****         if (seg >= CTRL_PTS - 1) seg = CTRL_PTS - 2;
 262:WavPlayer.cpp ****         const float t   = ts - static_cast<float>(seg);
 263:WavPlayer.cpp ****         const float t2  = t * t;
 264:WavPlayer.cpp ****         const float t3  = t2 * t;
 265:WavPlayer.cpp **** 
 266:WavPlayer.cpp ****         const float h00 =  2.f*t3 - 3.f*t2 + 1.f;
 267:WavPlayer.cpp ****         const float h10 =      t3 - 2.f*t2 + t;
 268:WavPlayer.cpp ****         const float h01 = -2.f*t3 + 3.f*t2;
 269:WavPlayer.cpp ****         const float h11 =      t3 -     t2;
 270:WavPlayer.cpp **** 
 271:WavPlayer.cpp ****         float v = h00 * pts[seg]
 272:WavPlayer.cpp ****                 + h10 * m[seg]
 273:WavPlayer.cpp ****                 + h01 * pts[seg + 1]
 274:WavPlayer.cpp ****                 + h11 * m[seg + 1];
 275:WavPlayer.cpp **** 
 276:WavPlayer.cpp ****         table[i] = fmaxf(-1.0f, fminf(v, 1.0f));
 277:WavPlayer.cpp ****     }
 278:WavPlayer.cpp **** }
 279:WavPlayer.cpp **** 
 280:WavPlayer.cpp **** // ŌĢÉŌĢÉŌĢÉŌĢÉŌĢÉŌĢÉŌĢÉŌĢÉŌĢÉŌĢÉŌĢÉŌĢÉŌĢÉŌĢÉŌĢÉŌĢÉŌĢÉŌĢÉŌĢÉŌĢÉŌĢÉŌĢÉŌĢÉŌĢÉŌĢÉŌĢÉŌĢÉŌĢÉŌĢÉŌĢÉŌĢÉŌĢÉ
 281:WavPlayer.cpp **** //  Audio callback  (runs in interrupt context at audio sample rate)
 282:WavPlayer.cpp **** // ŌĢÉŌĢÉŌĢÉŌĢÉŌĢÉŌĢÉŌĢÉŌĢÉŌĢÉŌĢÉŌĢÉŌĢÉŌĢÉŌĢÉŌĢÉŌĢÉŌĢÉŌĢÉŌĢÉŌĢÉŌĢÉŌĢÉŌĢÉŌĢÉŌĢÉŌĢÉŌĢÉŌĢÉŌĢÉŌĢÉŌĢÉŌĢÉ
 283:WavPlayer.cpp **** 
 284:WavPlayer.cpp **** static void AudioCallback(AudioHandle::InputBuffer  /*in*/,
 285:WavPlayer.cpp ****                           AudioHandle::OutputBuffer out,
 286:WavPlayer.cpp ****                           size_t                    size)
 287:WavPlayer.cpp **** {
  77              		.loc 6 287 1 is_stmt 1 view -0
  78              		.cfi_startproc
  79              		@ args = 0, pretend = 0, frame = 0
  80              		@ frame_needed = 0, uses_anonymous_args = 0
 288:WavPlayer.cpp ****     const float p_inc = kPlayFrequency / hw.AudioSampleRate();
  81              		.loc 6 288 5 view .LVU11
 287:WavPlayer.cpp ****     const float p_inc = kPlayFrequency / hw.AudioSampleRate();
  82              		.loc 6 287 1 is_stmt 0 view .LVU12
  83 0000 2DE9F84F 		push	{r3, r4, r5, r6, r7, r8, r9, r10, fp, lr}
  84              		.cfi_def_cfa_offset 40
  85              		.cfi_offset 3, -40
  86              		.cfi_offset 4, -36
  87              		.cfi_offset 5, -32
  88              		.cfi_offset 6, -28
ARM GAS  /var/folders/th/s5djnwg15xxc0dk87c413f_h0000gn/T//ccXOGyQC.s 			page 14


  89              		.cfi_offset 7, -24
  90              		.cfi_offset 8, -20
  91              		.cfi_offset 9, -16
  92              		.cfi_offset 10, -12
  93              		.cfi_offset 11, -8
  94              		.cfi_offset 14, -4
  95              		.loc 6 288 60 view .LVU13
  96 0004 5248     		ldr	r0, .L18
 287:WavPlayer.cpp ****     const float p_inc = kPlayFrequency / hw.AudioSampleRate();
  97              		.loc 6 287 1 view .LVU14
  98 0006 0C46     		mov	r4, r1
  99 0008 1746     		mov	r7, r2
 100              		.loc 6 288 60 view .LVU15
 101 000a FFF7FEFF 		bl	_ZN5daisy9DaisySeed15AudioSampleRateEv
 102              	.LVL2:
 103              		.loc 6 288 61 view .LVU16
 104 000e DFED517A 		vldr.32	s15, .L18+4
 105 0012 C7EE803A 		vdiv.f32	s7, s15, s0
 106              	.LVL3:
 289:WavPlayer.cpp **** 
 290:WavPlayer.cpp ****     static int xfade_ctr = 0; // Preserve the crossfade across buffer fills
 107              		.loc 6 290 5 is_stmt 1 view .LVU17
 291:WavPlayer.cpp ****     static int fade_from = 0;
 108              		.loc 6 291 5 view .LVU18
 292:WavPlayer.cpp **** 
 293:WavPlayer.cpp ****     for (size_t i = 0; i < size; i++) {
 109              		.loc 6 293 5 view .LVU19
 110              	.LBB306:
 111              		.loc 6 293 26 view .LVU20
 112 0016 002F     		cmp	r7, #0
 113 0018 00F09780 		beq	.L3
 114 001c 4E4D     		ldr	r5, .L18+8
 115 001e 4F4E     		ldr	r6, .L18+12
 116 0020 DFF844E1 		ldr	lr, .L18+24
 117 0024 D4E90004 		ldrd	r0, r4, [r4]
 118              	.LVL4:
 119              		.loc 6 293 26 is_stmt 0 view .LVU21
 120 0028 00EB870C 		add	ip, r0, r7, lsl #2
 121 002c 4C4F     		ldr	r7, .L18+16
 122              	.LVL5:
 123              		.loc 6 293 26 view .LVU22
 124 002e 42E0     		b	.L10
 125              	.LVL6:
 126              	.L17:
 127              	.LBB307:
 128              	.LBB308:
 129              	.LBB309:
 294:WavPlayer.cpp ****         const float  f_idx = phase * static_cast<float>(WAVETABLE_SIZE);
 295:WavPlayer.cpp ****         const int    i_idx = static_cast<int>(f_idx);
 296:WavPlayer.cpp ****         const int    i_nxt = (i_idx + 1) % WAVETABLE_SIZE;
 297:WavPlayer.cpp ****         const float  frac  = f_idx - static_cast<float>(i_idx);
 298:WavPlayer.cpp **** 
 299:WavPlayer.cpp ****         auto lerp_buf = [&](int buf) -> float {
 300:WavPlayer.cpp ****             const float *tbl = wavetable[buf];
 301:WavPlayer.cpp ****             return tbl[i_idx] + frac * (tbl[i_nxt] - tbl[i_idx]);
 302:WavPlayer.cpp ****         };
 303:WavPlayer.cpp **** 
ARM GAS  /var/folders/th/s5djnwg15xxc0dk87c413f_h0000gn/T//ccXOGyQC.s 			page 15


 304:WavPlayer.cpp ****         float sample;
 305:WavPlayer.cpp **** 
 306:WavPlayer.cpp ****         if (xfade_ctr > 0) {
 307:WavPlayer.cpp ****             const float alpha = static_cast<float>(xfade_ctr)
 130              		.loc 6 307 33 view .LVU23
 131 0030 06EE901A 		vmov	s13, r1	@ int
 132              	.LBB310:
 133              	.LBB311:
 134              	.LBB312:
 300:WavPlayer.cpp ****             return tbl[i_idx] + frac * (tbl[i_nxt] - tbl[i_idx]);
 135              		.loc 6 300 26 view .LVU24
 136 0034 DAF80080 		ldr	r8, [r10]
 137              	.LBE312:
 138              	.LBE311:
 139              	.LBE310:
 308:WavPlayer.cpp ****                               / static_cast<float>(CROSSFADE_LEN);
 309:WavPlayer.cpp ****             sample = alpha * lerp_buf(fade_from)
 310:WavPlayer.cpp ****                    + (1.0f - alpha) * lerp_buf(active_buf);
 140              		.loc 6 310 47 view .LVU25
 141 0038 3968     		ldr	r1, [r7]
 307:WavPlayer.cpp ****                               / static_cast<float>(CROSSFADE_LEN);
 142              		.loc 6 307 33 view .LVU26
 143 003a F8EEE66A 		vcvt.f32.s32	s13, s13
 144              	.LBB327:
 145              	.LBB320:
 146              	.LBB313:
 300:WavPlayer.cpp ****             return tbl[i_idx] + frac * (tbl[i_nxt] - tbl[i_idx]);
 147              		.loc 6 300 26 view .LVU27
 148 003e 0EEB4838 		add	r8, lr, r8, lsl #13
 149              	.LBE313:
 150              	.LBE320:
 151              	.LBE327:
 152              	.LBB328:
 153              	.LBB329:
 154              	.LBB330:
 155 0042 0EEB4131 		add	r1, lr, r1, lsl #13
 156              	.LBE330:
 157              	.LBE329:
 158              	.LBE328:
 311:WavPlayer.cpp ****             --xfade_ctr;
 159              		.loc 6 311 13 view .LVU28
 160 0046 C6F800B0 		str	fp, [r6]
 161              	.LBB341:
 162              	.LBB321:
 163              	.LBB314:
 301:WavPlayer.cpp ****         };
 164              		.loc 6 301 29 view .LVU29
 165 004a 08EB8209 		add	r9, r8, r2, lsl #2
 166              	.LBE314:
 167              	.LBE321:
 168              	.LBE341:
 307:WavPlayer.cpp ****                               / static_cast<float>(CROSSFADE_LEN);
 169              		.loc 6 307 25 view .LVU30
 170 004e 86EEA54A 		vdiv.f32	s8, s13, s11
 171              	.LVL7:
 309:WavPlayer.cpp ****                    + (1.0f - alpha) * lerp_buf(active_buf);
 172              		.loc 6 309 13 is_stmt 1 view .LVU31
ARM GAS  /var/folders/th/s5djnwg15xxc0dk87c413f_h0000gn/T//ccXOGyQC.s 			page 16


 173              	.LBB342:
 174              	.LBI310:
 299:WavPlayer.cpp ****             const float *tbl = wavetable[buf];
 175              		.loc 6 299 25 view .LVU32
 176              	.LBB322:
 177              	.LBB315:
 300:WavPlayer.cpp ****             return tbl[i_idx] + frac * (tbl[i_nxt] - tbl[i_idx]);
 178              		.loc 6 300 13 view .LVU33
 301:WavPlayer.cpp ****         };
 179              		.loc 6 301 13 view .LVU34
 301:WavPlayer.cpp ****         };
 180              		.loc 6 301 50 is_stmt 0 view .LVU35
 181 0052 08EB8308 		add	r8, r8, r3, lsl #2
 182              	.LVL8:
 301:WavPlayer.cpp ****         };
 183              		.loc 6 301 50 view .LVU36
 184              	.LBE315:
 185              	.LBE322:
 186              	.LBE342:
 187              	.LBB343:
 188              	.LBB336:
 189              	.LBB331:
 301:WavPlayer.cpp ****         };
 190              		.loc 6 301 29 view .LVU37
 191 0056 01EB8202 		add	r2, r1, r2, lsl #2
 192              	.LVL9:
 301:WavPlayer.cpp ****         };
 193              		.loc 6 301 29 view .LVU38
 194              	.LBE331:
 195              	.LBE336:
 196              	.LBE343:
 197              	.LBB344:
 198              	.LBB323:
 199              	.LBB316:
 200 005a D9ED005A 		vldr.32	s11, [r9]
 201              	.LBE316:
 202              	.LBE323:
 203              	.LBE344:
 204              	.LBB345:
 205              	.LBB337:
 206              	.LBB332:
 301:WavPlayer.cpp ****         };
 207              		.loc 6 301 50 view .LVU39
 208 005e 01EB8303 		add	r3, r1, r3, lsl #2
 209              	.LVL10:
 301:WavPlayer.cpp ****         };
 210              		.loc 6 301 50 view .LVU40
 211              	.LBE332:
 212              	.LBE337:
 213              	.LBE345:
 214              	.LBB346:
 215              	.LBB324:
 216              	.LBB317:
 301:WavPlayer.cpp ****         };
 217              		.loc 6 301 52 view .LVU41
 218 0062 98ED005A 		vldr.32	s10, [r8]
 219              	.LBE317:
ARM GAS  /var/folders/th/s5djnwg15xxc0dk87c413f_h0000gn/T//ccXOGyQC.s 			page 17


 220              	.LBE324:
 221              	.LBE346:
 222              	.LBB347:
 223              	.LBB338:
 224              	.LBB333:
 301:WavPlayer.cpp ****         };
 225              		.loc 6 301 29 view .LVU42
 226 0066 D2ED006A 		vldr.32	s13, [r2]
 301:WavPlayer.cpp ****         };
 227              		.loc 6 301 52 view .LVU43
 228 006a D3ED004A 		vldr.32	s9, [r3]
 229              	.LBE333:
 230              	.LBE338:
 231              	.LBE347:
 232              	.LBB348:
 233              	.LBB325:
 234              	.LBB318:
 235 006e 35EE655A 		vsub.f32	s10, s10, s11
 236              	.LBE318:
 237              	.LBE325:
 238              	.LBE348:
 239              	.LBB349:
 240              	.LBB339:
 241              	.LBB334:
 242 0072 74EEE64A 		vsub.f32	s9, s9, s13
 243              	.LBE334:
 244              	.LBE339:
 245              	.LBE349:
 246              	.LBB350:
 247              	.LBB326:
 248              	.LBB319:
 301:WavPlayer.cpp ****         };
 249              		.loc 6 301 64 view .LVU44
 250 0076 E7EE855A 		vfma.f32	s11, s15, s10
 251              	.LVL11:
 301:WavPlayer.cpp ****         };
 252              		.loc 6 301 64 view .LVU45
 253              	.LBE319:
 254              	.LBE326:
 255              	.LBE350:
 256              	.LBB351:
 257              	.LBI328:
 299:WavPlayer.cpp ****             const float *tbl = wavetable[buf];
 258              		.loc 6 299 25 is_stmt 1 view .LVU46
 259              	.LBB340:
 260              	.LBB335:
 300:WavPlayer.cpp ****             return tbl[i_idx] + frac * (tbl[i_nxt] - tbl[i_idx]);
 261              		.loc 6 300 13 view .LVU47
 301:WavPlayer.cpp ****         };
 262              		.loc 6 301 13 view .LVU48
 301:WavPlayer.cpp ****         };
 263              		.loc 6 301 64 is_stmt 0 view .LVU49
 264 007a E7EEA46A 		vfma.f32	s13, s15, s9
 265 007e B0EE665A 		vmov.f32	s10, s13
 266              	.LVL12:
 301:WavPlayer.cpp ****         };
 267              		.loc 6 301 64 view .LVU50
ARM GAS  /var/folders/th/s5djnwg15xxc0dk87c413f_h0000gn/T//ccXOGyQC.s 			page 18


 268              	.LBE335:
 269              	.LBE340:
 270              	.LBE351:
 310:WavPlayer.cpp ****             --xfade_ctr;
 271              		.loc 6 310 28 view .LVU51
 272 0082 76EE446A 		vsub.f32	s13, s12, s8
 310:WavPlayer.cpp ****             --xfade_ctr;
 273              		.loc 6 310 37 view .LVU52
 274 0086 66EE856A 		vmul.f32	s13, s13, s10
 309:WavPlayer.cpp ****                    + (1.0f - alpha) * lerp_buf(active_buf);
 275              		.loc 6 309 20 view .LVU53
 276 008a E4EE256A 		vfma.f32	s13, s8, s11
 277              	.LVL13:
 278              		.loc 6 311 13 is_stmt 1 view .LVU54
 279              	.L6:
 280              		.loc 6 311 13 is_stmt 0 view .LVU55
 281              	.LBE309:
 282              	.LBE308:
 312:WavPlayer.cpp ****         } else {
 313:WavPlayer.cpp ****             sample = lerp_buf(active_buf);
 314:WavPlayer.cpp **** 
 315:WavPlayer.cpp ****             if (buf_pending) {
 316:WavPlayer.cpp ****                 fade_from   = active_buf;
 317:WavPlayer.cpp ****                 active_buf ^= 1;
 318:WavPlayer.cpp ****                 xfade_ctr   = CROSSFADE_LEN;
 319:WavPlayer.cpp ****                 buf_pending = false;
 320:WavPlayer.cpp ****             }
 321:WavPlayer.cpp ****         }
 322:WavPlayer.cpp **** 
 323:WavPlayer.cpp ****         out[0][i] = sample;
 283              		.loc 6 323 9 is_stmt 1 view .LVU56
 324:WavPlayer.cpp ****         out[1][i] = 0.0f;
 325:WavPlayer.cpp **** 
 326:WavPlayer.cpp ****         phase += p_inc;
 327:WavPlayer.cpp ****         if (phase >= 1.0f)
 328:WavPlayer.cpp ****             phase -= 1.0f;
 284              		.loc 6 328 13 view .LVU57
 326:WavPlayer.cpp ****         if (phase >= 1.0f)
 285              		.loc 6 326 15 is_stmt 0 view .LVU58
 286 008e 37EE237A 		vadd.f32	s14, s14, s7
 287              	.LVL14:
 323:WavPlayer.cpp ****         out[1][i] = 0.0f;
 288              		.loc 6 323 19 view .LVU59
 289 0092 E0EC016A 		vstmia.32	r0!, {s13}
 324:WavPlayer.cpp ****         out[1][i] = 0.0f;
 290              		.loc 6 324 9 is_stmt 1 view .LVU60
 327:WavPlayer.cpp ****             phase -= 1.0f;
 291              		.loc 6 327 9 is_stmt 0 view .LVU61
 292 0096 F7EE007A 		vmov.f32	s15, #1.0e+0
 293              	.LVL15:
 324:WavPlayer.cpp **** 
 294              		.loc 6 324 19 view .LVU62
 295 009a 0023     		movs	r3, #0
 296 009c 44F8043B 		str	r3, [r4], #4	@ float
 326:WavPlayer.cpp ****         if (phase >= 1.0f)
 297              		.loc 6 326 9 is_stmt 1 view .LVU63
 327:WavPlayer.cpp ****             phase -= 1.0f;
ARM GAS  /var/folders/th/s5djnwg15xxc0dk87c413f_h0000gn/T//ccXOGyQC.s 			page 19


 298              		.loc 6 327 9 view .LVU64
 299 00a0 B4EEE77A 		vcmpe.f32	s14, s15
 300 00a4 F1EE10FA 		vmrs	APSR_nzcv, FPSCR
 301              		.loc 6 328 19 is_stmt 0 view .LVU65
 302 00a8 A8BF     		it	ge
 303 00aa 37EE677A 		vsubge.f32	s14, s14, s15
 304              	.LBE307:
 293:WavPlayer.cpp ****         const float  f_idx = phase * static_cast<float>(WAVETABLE_SIZE);
 305              		.loc 6 293 26 view .LVU66
 306 00ae 8445     		cmp	ip, r0
 307              	.LBB371:
 308              		.loc 6 328 19 view .LVU67
 309 00b0 85ED007A 		vstr.32	s14, [r5]
 310              	.LVL16:
 311              		.loc 6 328 19 view .LVU68
 312              	.LBE371:
 293:WavPlayer.cpp ****         const float  f_idx = phase * static_cast<float>(WAVETABLE_SIZE);
 313              		.loc 6 293 5 is_stmt 1 view .LVU69
 293:WavPlayer.cpp ****         const float  f_idx = phase * static_cast<float>(WAVETABLE_SIZE);
 314              		.loc 6 293 26 view .LVU70
 315 00b4 49D0     		beq	.L3
 316              	.LVL17:
 317              	.L10:
 318              	.LBB372:
 294:WavPlayer.cpp ****         const int    i_idx = static_cast<int>(f_idx);
 319              		.loc 6 294 9 view .LVU71
 320              	.LBB366:
 321              	.LBB352:
 307:WavPlayer.cpp ****                               / static_cast<float>(CROSSFADE_LEN);
 322              		.loc 6 307 13 view .LVU72
 323              	.LBE352:
 313:WavPlayer.cpp **** 
 324              		.loc 6 313 13 view .LVU73
 325              	.LBE366:
 294:WavPlayer.cpp ****         const int    i_idx = static_cast<int>(f_idx);
 326              		.loc 6 294 36 is_stmt 0 view .LVU74
 327 00b6 95ED007A 		vldr.32	s14, [r5]
 328              	.LBB367:
 329              	.LBB353:
 307:WavPlayer.cpp ****                               / static_cast<float>(CROSSFADE_LEN);
 330              		.loc 6 307 25 view .LVU75
 331 00ba F2EE045A 		vmov.f32	s11, #1.0e+1
 332              	.LBE353:
 333              	.LBE367:
 294:WavPlayer.cpp ****         const int    i_idx = static_cast<int>(f_idx);
 334              		.loc 6 294 22 view .LVU76
 335 00be DFED297A 		vldr.32	s15, .L18+20
 336              	.LBB368:
 337              	.LBB354:
 310:WavPlayer.cpp ****             --xfade_ctr;
 338              		.loc 6 310 28 view .LVU77
 339 00c2 B7EE006A 		vmov.f32	s12, #1.0e+0
 340              	.LBE354:
 306:WavPlayer.cpp ****             const float alpha = static_cast<float>(xfade_ctr)
 341              		.loc 6 306 23 view .LVU78
 342 00c6 3168     		ldr	r1, [r6]
 343              	.LBE368:
ARM GAS  /var/folders/th/s5djnwg15xxc0dk87c413f_h0000gn/T//ccXOGyQC.s 			page 20


 294:WavPlayer.cpp ****         const int    i_idx = static_cast<int>(f_idx);
 344              		.loc 6 294 22 view .LVU79
 345 00c8 67EE277A 		vmul.f32	s15, s14, s15
 346              	.LVL18:
 295:WavPlayer.cpp ****         const int    i_nxt = (i_idx + 1) % WAVETABLE_SIZE;
 347              		.loc 6 295 9 is_stmt 1 view .LVU80
 348              	.LBB369:
 349              	.LBB355:
 309:WavPlayer.cpp ****                    + (1.0f - alpha) * lerp_buf(active_buf);
 350              		.loc 6 309 38 is_stmt 0 view .LVU81
 351 00cc DFF89CA0 		ldr	r10, .L18+28
 352              	.LBE355:
 315:WavPlayer.cpp ****                 fade_from   = active_buf;
 353              		.loc 6 315 17 view .LVU82
 354 00d0 DFF89C80 		ldr	r8, .L18+32
 355              	.LBB356:
 311:WavPlayer.cpp ****         } else {
 356              		.loc 6 311 13 view .LVU83
 357 00d4 01F1FF3B 		add	fp, r1, #-1
 358              	.LBE356:
 359              	.LBE369:
 295:WavPlayer.cpp ****         const int    i_nxt = (i_idx + 1) % WAVETABLE_SIZE;
 360              		.loc 6 295 30 view .LVU84
 361 00d8 FDEEE76A 		vcvt.s32.f32	s13, s15
 362 00dc 16EE902A 		vmov	r2, s13	@ int
 363              	.LVL19:
 296:WavPlayer.cpp ****         const float  frac  = f_idx - static_cast<float>(i_idx);
 364              		.loc 6 296 9 is_stmt 1 view .LVU85
 297:WavPlayer.cpp **** 
 365              		.loc 6 297 38 is_stmt 0 view .LVU86
 366 00e0 F8EEE66A 		vcvt.f32.s32	s13, s13
 296:WavPlayer.cpp ****         const float  frac  = f_idx - static_cast<float>(i_idx);
 367              		.loc 6 296 37 view .LVU87
 368 00e4 531C     		adds	r3, r2, #1
 297:WavPlayer.cpp **** 
 369              		.loc 6 297 36 view .LVU88
 370 00e6 77EEE67A 		vsub.f32	s15, s15, s13
 371              	.LVL20:
 296:WavPlayer.cpp ****         const float  frac  = f_idx - static_cast<float>(i_idx);
 372              		.loc 6 296 42 view .LVU89
 373 00ea D3F10009 		rsbs	r9, r3, #0
 374 00ee C3F30A03 		ubfx	r3, r3, #0, #11
 375 00f2 C9F30A09 		ubfx	r9, r9, #0, #11
 376 00f6 58BF     		it	pl
 377 00f8 C9F10003 		rsbpl	r3, r9, #0
 378              	.LVL21:
 297:WavPlayer.cpp **** 
 379              		.loc 6 297 9 is_stmt 1 view .LVU90
 299:WavPlayer.cpp ****             const float *tbl = wavetable[buf];
 380              		.loc 6 299 9 view .LVU91
 304:WavPlayer.cpp **** 
 381              		.loc 6 304 9 view .LVU92
 306:WavPlayer.cpp ****             const float alpha = static_cast<float>(xfade_ctr)
 382              		.loc 6 306 9 view .LVU93
 383              	.LBB370:
 384 00fc 0029     		cmp	r1, #0
 385 00fe 97DC     		bgt	.L17
ARM GAS  /var/folders/th/s5djnwg15xxc0dk87c413f_h0000gn/T//ccXOGyQC.s 			page 21


 316:WavPlayer.cpp ****                 active_buf ^= 1;
 386              		.loc 6 316 17 view .LVU94
 313:WavPlayer.cpp **** 
 387              		.loc 6 313 30 is_stmt 0 view .LVU95
 388 0100 3968     		ldr	r1, [r7]
 389              	.LVL22:
 390              	.LBB357:
 391              	.LBI357:
 299:WavPlayer.cpp ****             const float *tbl = wavetable[buf];
 392              		.loc 6 299 25 is_stmt 1 view .LVU96
 393              	.LBB358:
 394              	.LBB359:
 300:WavPlayer.cpp ****             return tbl[i_idx] + frac * (tbl[i_nxt] - tbl[i_idx]);
 395              		.loc 6 300 13 view .LVU97
 396              	.LBE359:
 397              	.LBE358:
 398              	.LBE357:
 318:WavPlayer.cpp ****                 buf_pending = false;
 399              		.loc 6 318 29 is_stmt 0 view .LVU98
 400 0102 4FF00A0B 		mov	fp, #10
 315:WavPlayer.cpp ****                 fade_from   = active_buf;
 401              		.loc 6 315 17 view .LVU99
 402 0106 98F80090 		ldrb	r9, [r8]	@ zero_extendqisi2
 403              	.LBB364:
 404              	.LBB362:
 405              	.LBB360:
 300:WavPlayer.cpp ****             return tbl[i_idx] + frac * (tbl[i_nxt] - tbl[i_idx]);
 406              		.loc 6 300 26 view .LVU100
 407 010a 0EEB4131 		add	r1, lr, r1, lsl #13
 408              	.LVL23:
 301:WavPlayer.cpp ****         };
 409              		.loc 6 301 13 is_stmt 1 view .LVU101
 410              	.LBE360:
 411              	.LBE362:
 412              	.LBE364:
 316:WavPlayer.cpp ****                 active_buf ^= 1;
 413              		.loc 6 316 29 is_stmt 0 view .LVU102
 414 010e DFF85CA0 		ldr	r10, .L18+28
 415              	.LBB365:
 416              	.LBB363:
 417              	.LBB361:
 301:WavPlayer.cpp ****         };
 418              		.loc 6 301 29 view .LVU103
 419 0112 01EB8202 		add	r2, r1, r2, lsl #2
 420              	.LVL24:
 301:WavPlayer.cpp ****         };
 421              		.loc 6 301 50 view .LVU104
 422 0116 01EB8303 		add	r3, r1, r3, lsl #2
 423              	.LVL25:
 301:WavPlayer.cpp ****         };
 424              		.loc 6 301 29 view .LVU105
 425 011a D2ED006A 		vldr.32	s13, [r2]
 301:WavPlayer.cpp ****         };
 426              		.loc 6 301 52 view .LVU106
 427 011e 93ED006A 		vldr.32	s12, [r3]
 428 0122 36EE666A 		vsub.f32	s12, s12, s13
 301:WavPlayer.cpp ****         };
ARM GAS  /var/folders/th/s5djnwg15xxc0dk87c413f_h0000gn/T//ccXOGyQC.s 			page 22


 429              		.loc 6 301 64 view .LVU107
 430 0126 E7EE866A 		vfma.f32	s13, s15, s12
 431              	.LVL26:
 301:WavPlayer.cpp ****         };
 432              		.loc 6 301 64 view .LVU108
 433              	.LBE361:
 434              	.LBE363:
 435              	.LBE365:
 315:WavPlayer.cpp ****                 fade_from   = active_buf;
 436              		.loc 6 315 13 is_stmt 1 view .LVU109
 437 012a B9F1000F 		cmp	r9, #0
 438 012e AED0     		beq	.L6
 316:WavPlayer.cpp ****                 active_buf ^= 1;
 439              		.loc 6 316 29 is_stmt 0 view .LVU110
 440 0130 3B68     		ldr	r3, [r7]
 319:WavPlayer.cpp ****             }
 441              		.loc 6 319 29 view .LVU111
 442 0132 0022     		movs	r2, #0
 318:WavPlayer.cpp ****                 buf_pending = false;
 443              		.loc 6 318 29 view .LVU112
 444 0134 C6F800B0 		str	fp, [r6]
 316:WavPlayer.cpp ****                 active_buf ^= 1;
 445              		.loc 6 316 29 view .LVU113
 446 0138 CAF80030 		str	r3, [r10]
 317:WavPlayer.cpp ****                 xfade_ctr   = CROSSFADE_LEN;
 447              		.loc 6 317 17 is_stmt 1 view .LVU114
 317:WavPlayer.cpp ****                 xfade_ctr   = CROSSFADE_LEN;
 448              		.loc 6 317 28 is_stmt 0 view .LVU115
 449 013c 3B68     		ldr	r3, [r7]
 450 013e 83F00103 		eor	r3, r3, #1
 451 0142 3B60     		str	r3, [r7]
 318:WavPlayer.cpp ****                 buf_pending = false;
 452              		.loc 6 318 17 is_stmt 1 view .LVU116
 319:WavPlayer.cpp ****             }
 453              		.loc 6 319 17 view .LVU117
 319:WavPlayer.cpp ****             }
 454              		.loc 6 319 29 is_stmt 0 view .LVU118
 455 0144 88F80020 		strb	r2, [r8]
 456 0148 A1E7     		b	.L6
 457              	.LVL27:
 458              	.L3:
 319:WavPlayer.cpp ****             }
 459              		.loc 6 319 29 view .LVU119
 460              	.LBE370:
 461              	.LBE372:
 462              	.LBE306:
 329:WavPlayer.cpp ****     }
 330:WavPlayer.cpp **** }
 463              		.loc 6 330 1 view .LVU120
 464 014a BDE8F88F 		pop	{r3, r4, r5, r6, r7, r8, r9, r10, fp, pc}
 465              	.L19:
 466 014e 00BF     		.align	2
 467              	.L18:
 468 0150 00000000 		.word	.LANCHOR0
 469 0154 00004843 		.word	1128792064
 470 0158 00000000 		.word	.LANCHOR1
 471 015c 00000000 		.word	.LANCHOR2
ARM GAS  /var/folders/th/s5djnwg15xxc0dk87c413f_h0000gn/T//ccXOGyQC.s 			page 23


 472 0160 00000000 		.word	.LANCHOR4
 473 0164 00000045 		.word	1157627904
 474 0168 00000000 		.word	_ZL9wavetable
 475 016c 00000000 		.word	.LANCHOR3
 476 0170 00000000 		.word	.LANCHOR5
 477              		.cfi_endproc
 478              	.LFE4525:
 480              		.section	.text._ZN5daisy13SSD130xDriverILj128ELj64ENS_19SSD130xI2CTransportEE4InitENS2_6ConfigE,"a
 481              		.align	1
 482              		.p2align 2,,3
 483              		.weak	_ZN5daisy13SSD130xDriverILj128ELj64ENS_19SSD130xI2CTransportEE4InitENS2_6ConfigE
 484              		.syntax unified
 485              		.thumb
 486              		.thumb_func
 488              	_ZN5daisy13SSD130xDriverILj128ELj64ENS_19SSD130xI2CTransportEE4InitENS2_6ConfigE:
 489              	.LVL28:
 490              	.LFB4613:
 491              		.file 7 "../../libDaisy/src/dev/oled_ssd130x.h"
   1:../../libDaisy/src/dev/oled_ssd130x.h **** #pragma once
   2:../../libDaisy/src/dev/oled_ssd130x.h **** #ifndef SA_OLED_SSD130X_H
   3:../../libDaisy/src/dev/oled_ssd130x.h **** #define SA_OLED_SSD130X_H /**< & */
   4:../../libDaisy/src/dev/oled_ssd130x.h **** 
   5:../../libDaisy/src/dev/oled_ssd130x.h **** #include "per/i2c.h"
   6:../../libDaisy/src/dev/oled_ssd130x.h **** #include "per/spi.h"
   7:../../libDaisy/src/dev/oled_ssd130x.h **** #include "per/gpio.h"
   8:../../libDaisy/src/dev/oled_ssd130x.h **** #include "sys/system.h"
   9:../../libDaisy/src/dev/oled_ssd130x.h **** 
  10:../../libDaisy/src/dev/oled_ssd130x.h **** namespace daisy
  11:../../libDaisy/src/dev/oled_ssd130x.h **** {
  12:../../libDaisy/src/dev/oled_ssd130x.h **** /**
  13:../../libDaisy/src/dev/oled_ssd130x.h ****  * I2C Transport for SSD1306 / SSD1309 OLED display devices
  14:../../libDaisy/src/dev/oled_ssd130x.h ****  */
  15:../../libDaisy/src/dev/oled_ssd130x.h **** class SSD130xI2CTransport
  16:../../libDaisy/src/dev/oled_ssd130x.h **** {
  17:../../libDaisy/src/dev/oled_ssd130x.h ****   public:
  18:../../libDaisy/src/dev/oled_ssd130x.h ****     struct Config
  19:../../libDaisy/src/dev/oled_ssd130x.h ****     {
  20:../../libDaisy/src/dev/oled_ssd130x.h ****         Config()
  21:../../libDaisy/src/dev/oled_ssd130x.h ****         {
  22:../../libDaisy/src/dev/oled_ssd130x.h ****             // Intialize using defaults
  23:../../libDaisy/src/dev/oled_ssd130x.h ****             Defaults();
  24:../../libDaisy/src/dev/oled_ssd130x.h ****         }
  25:../../libDaisy/src/dev/oled_ssd130x.h ****         I2CHandle::Config i2c_config;
  26:../../libDaisy/src/dev/oled_ssd130x.h ****         uint8_t           i2c_address;
  27:../../libDaisy/src/dev/oled_ssd130x.h ****         void              Defaults()
  28:../../libDaisy/src/dev/oled_ssd130x.h ****         {
  29:../../libDaisy/src/dev/oled_ssd130x.h ****             i2c_config.periph         = I2CHandle::Config::Peripheral::I2C_1;
  30:../../libDaisy/src/dev/oled_ssd130x.h ****             i2c_config.speed          = I2CHandle::Config::Speed::I2C_1MHZ;
  31:../../libDaisy/src/dev/oled_ssd130x.h ****             i2c_config.mode           = I2CHandle::Config::Mode::I2C_MASTER;
  32:../../libDaisy/src/dev/oled_ssd130x.h ****             i2c_config.pin_config.scl = {DSY_GPIOB, 8};
  33:../../libDaisy/src/dev/oled_ssd130x.h ****             i2c_config.pin_config.sda = {DSY_GPIOB, 9};
  34:../../libDaisy/src/dev/oled_ssd130x.h ****             i2c_address               = 0x3C;
  35:../../libDaisy/src/dev/oled_ssd130x.h ****         }
  36:../../libDaisy/src/dev/oled_ssd130x.h ****     };
  37:../../libDaisy/src/dev/oled_ssd130x.h ****     void Init(const Config& config)
  38:../../libDaisy/src/dev/oled_ssd130x.h ****     {
  39:../../libDaisy/src/dev/oled_ssd130x.h ****         i2c_address_ = config.i2c_address;
ARM GAS  /var/folders/th/s5djnwg15xxc0dk87c413f_h0000gn/T//ccXOGyQC.s 			page 24


  40:../../libDaisy/src/dev/oled_ssd130x.h ****         i2c_.Init(config.i2c_config);
  41:../../libDaisy/src/dev/oled_ssd130x.h ****     };
  42:../../libDaisy/src/dev/oled_ssd130x.h ****     void SendCommand(uint8_t cmd)
  43:../../libDaisy/src/dev/oled_ssd130x.h ****     {
  44:../../libDaisy/src/dev/oled_ssd130x.h ****         uint8_t buf[2] = {0X00, cmd};
  45:../../libDaisy/src/dev/oled_ssd130x.h ****         i2c_.TransmitBlocking(i2c_address_, buf, 2, 1000);
  46:../../libDaisy/src/dev/oled_ssd130x.h ****     };
  47:../../libDaisy/src/dev/oled_ssd130x.h **** 
  48:../../libDaisy/src/dev/oled_ssd130x.h ****     void SendData(uint8_t* buff, size_t size)
  49:../../libDaisy/src/dev/oled_ssd130x.h ****     {
  50:../../libDaisy/src/dev/oled_ssd130x.h ****         for(size_t i = 0; i < size; i++)
  51:../../libDaisy/src/dev/oled_ssd130x.h ****         {
  52:../../libDaisy/src/dev/oled_ssd130x.h ****             uint8_t buf[2] = {0X40, buff[i]};
  53:../../libDaisy/src/dev/oled_ssd130x.h ****             i2c_.TransmitBlocking(i2c_address_, buf, 2, 1000);
  54:../../libDaisy/src/dev/oled_ssd130x.h ****         }
  55:../../libDaisy/src/dev/oled_ssd130x.h ****     };
  56:../../libDaisy/src/dev/oled_ssd130x.h **** 
  57:../../libDaisy/src/dev/oled_ssd130x.h ****   private:
  58:../../libDaisy/src/dev/oled_ssd130x.h ****     daisy::I2CHandle i2c_;
  59:../../libDaisy/src/dev/oled_ssd130x.h ****     uint8_t          i2c_address_;
  60:../../libDaisy/src/dev/oled_ssd130x.h **** };
  61:../../libDaisy/src/dev/oled_ssd130x.h **** 
  62:../../libDaisy/src/dev/oled_ssd130x.h **** /**
  63:../../libDaisy/src/dev/oled_ssd130x.h ****  * 4 Wire SPI Transport for SSD1306 / SSD1309 OLED display devices
  64:../../libDaisy/src/dev/oled_ssd130x.h ****  */
  65:../../libDaisy/src/dev/oled_ssd130x.h **** class SSD130x4WireSpiTransport
  66:../../libDaisy/src/dev/oled_ssd130x.h **** {
  67:../../libDaisy/src/dev/oled_ssd130x.h ****   public:
  68:../../libDaisy/src/dev/oled_ssd130x.h ****     struct Config
  69:../../libDaisy/src/dev/oled_ssd130x.h ****     {
  70:../../libDaisy/src/dev/oled_ssd130x.h ****         Config()
  71:../../libDaisy/src/dev/oled_ssd130x.h ****         {
  72:../../libDaisy/src/dev/oled_ssd130x.h ****             // Initialize using defaults
  73:../../libDaisy/src/dev/oled_ssd130x.h ****             Defaults();
  74:../../libDaisy/src/dev/oled_ssd130x.h ****         }
  75:../../libDaisy/src/dev/oled_ssd130x.h ****         SpiHandle::Config spi_config;
  76:../../libDaisy/src/dev/oled_ssd130x.h ****         struct
  77:../../libDaisy/src/dev/oled_ssd130x.h ****         {
  78:../../libDaisy/src/dev/oled_ssd130x.h ****             dsy_gpio_pin dc;    /**< & */
  79:../../libDaisy/src/dev/oled_ssd130x.h ****             dsy_gpio_pin reset; /**< & */
  80:../../libDaisy/src/dev/oled_ssd130x.h ****         } pin_config;
  81:../../libDaisy/src/dev/oled_ssd130x.h ****         void Defaults()
  82:../../libDaisy/src/dev/oled_ssd130x.h ****         {
  83:../../libDaisy/src/dev/oled_ssd130x.h ****             // SPI peripheral config
  84:../../libDaisy/src/dev/oled_ssd130x.h ****             spi_config.periph = SpiHandle::Config::Peripheral::SPI_1;
  85:../../libDaisy/src/dev/oled_ssd130x.h ****             spi_config.mode   = SpiHandle::Config::Mode::MASTER;
  86:../../libDaisy/src/dev/oled_ssd130x.h ****             spi_config.direction
  87:../../libDaisy/src/dev/oled_ssd130x.h ****                 = SpiHandle::Config::Direction::TWO_LINES_TX_ONLY;
  88:../../libDaisy/src/dev/oled_ssd130x.h ****             spi_config.datasize       = 8;
  89:../../libDaisy/src/dev/oled_ssd130x.h ****             spi_config.clock_polarity = SpiHandle::Config::ClockPolarity::LOW;
  90:../../libDaisy/src/dev/oled_ssd130x.h ****             spi_config.clock_phase    = SpiHandle::Config::ClockPhase::ONE_EDGE;
  91:../../libDaisy/src/dev/oled_ssd130x.h ****             spi_config.nss            = SpiHandle::Config::NSS::HARD_OUTPUT;
  92:../../libDaisy/src/dev/oled_ssd130x.h ****             spi_config.baud_prescaler = SpiHandle::Config::BaudPrescaler::PS_8;
  93:../../libDaisy/src/dev/oled_ssd130x.h ****             // SPI pin config
  94:../../libDaisy/src/dev/oled_ssd130x.h ****             spi_config.pin_config.sclk = {DSY_GPIOG, 11};
  95:../../libDaisy/src/dev/oled_ssd130x.h ****             spi_config.pin_config.miso = {DSY_GPIOX, 0};
  96:../../libDaisy/src/dev/oled_ssd130x.h ****             spi_config.pin_config.mosi = {DSY_GPIOB, 5};
ARM GAS  /var/folders/th/s5djnwg15xxc0dk87c413f_h0000gn/T//ccXOGyQC.s 			page 25


  97:../../libDaisy/src/dev/oled_ssd130x.h ****             spi_config.pin_config.nss  = {DSY_GPIOG, 10};
  98:../../libDaisy/src/dev/oled_ssd130x.h ****             // SSD130x control pin config
  99:../../libDaisy/src/dev/oled_ssd130x.h ****             pin_config.dc    = {DSY_GPIOB, 4};
 100:../../libDaisy/src/dev/oled_ssd130x.h ****             pin_config.reset = {DSY_GPIOB, 15};
 101:../../libDaisy/src/dev/oled_ssd130x.h ****         }
 102:../../libDaisy/src/dev/oled_ssd130x.h ****     };
 103:../../libDaisy/src/dev/oled_ssd130x.h ****     void Init(const Config& config)
 104:../../libDaisy/src/dev/oled_ssd130x.h ****     {
 105:../../libDaisy/src/dev/oled_ssd130x.h ****         // Initialize both GPIO
 106:../../libDaisy/src/dev/oled_ssd130x.h ****         pin_dc_.mode = DSY_GPIO_MODE_OUTPUT_PP;
 107:../../libDaisy/src/dev/oled_ssd130x.h ****         pin_dc_.pin  = config.pin_config.dc;
 108:../../libDaisy/src/dev/oled_ssd130x.h ****         dsy_gpio_init(&pin_dc_);
 109:../../libDaisy/src/dev/oled_ssd130x.h ****         pin_reset_.mode = DSY_GPIO_MODE_OUTPUT_PP;
 110:../../libDaisy/src/dev/oled_ssd130x.h ****         pin_reset_.pin  = config.pin_config.reset;
 111:../../libDaisy/src/dev/oled_ssd130x.h ****         dsy_gpio_init(&pin_reset_);
 112:../../libDaisy/src/dev/oled_ssd130x.h **** 
 113:../../libDaisy/src/dev/oled_ssd130x.h ****         // Initialize SPI
 114:../../libDaisy/src/dev/oled_ssd130x.h ****         spi_.Init(config.spi_config);
 115:../../libDaisy/src/dev/oled_ssd130x.h **** 
 116:../../libDaisy/src/dev/oled_ssd130x.h ****         // Reset and Configure OLED.
 117:../../libDaisy/src/dev/oled_ssd130x.h ****         dsy_gpio_write(&pin_reset_, 0);
 118:../../libDaisy/src/dev/oled_ssd130x.h ****         System::Delay(10);
 119:../../libDaisy/src/dev/oled_ssd130x.h ****         dsy_gpio_write(&pin_reset_, 1);
 120:../../libDaisy/src/dev/oled_ssd130x.h ****         System::Delay(10);
 121:../../libDaisy/src/dev/oled_ssd130x.h ****     };
 122:../../libDaisy/src/dev/oled_ssd130x.h ****     void SendCommand(uint8_t cmd)
 123:../../libDaisy/src/dev/oled_ssd130x.h ****     {
 124:../../libDaisy/src/dev/oled_ssd130x.h ****         dsy_gpio_write(&pin_dc_, 0);
 125:../../libDaisy/src/dev/oled_ssd130x.h ****         spi_.BlockingTransmit(&cmd, 1);
 126:../../libDaisy/src/dev/oled_ssd130x.h ****     };
 127:../../libDaisy/src/dev/oled_ssd130x.h **** 
 128:../../libDaisy/src/dev/oled_ssd130x.h ****     void SendData(uint8_t* buff, size_t size)
 129:../../libDaisy/src/dev/oled_ssd130x.h ****     {
 130:../../libDaisy/src/dev/oled_ssd130x.h ****         dsy_gpio_write(&pin_dc_, 1);
 131:../../libDaisy/src/dev/oled_ssd130x.h ****         spi_.BlockingTransmit(buff, size);
 132:../../libDaisy/src/dev/oled_ssd130x.h ****     };
 133:../../libDaisy/src/dev/oled_ssd130x.h **** 
 134:../../libDaisy/src/dev/oled_ssd130x.h ****   private:
 135:../../libDaisy/src/dev/oled_ssd130x.h ****     SpiHandle spi_;
 136:../../libDaisy/src/dev/oled_ssd130x.h ****     dsy_gpio  pin_reset_;
 137:../../libDaisy/src/dev/oled_ssd130x.h ****     dsy_gpio  pin_dc_;
 138:../../libDaisy/src/dev/oled_ssd130x.h **** };
 139:../../libDaisy/src/dev/oled_ssd130x.h **** 
 140:../../libDaisy/src/dev/oled_ssd130x.h **** /**
 141:../../libDaisy/src/dev/oled_ssd130x.h ****  * Soft SPI Transport for SSD1306 / SSD1309 OLED display devices
 142:../../libDaisy/src/dev/oled_ssd130x.h ****  */
 143:../../libDaisy/src/dev/oled_ssd130x.h **** class SSD130x4WireSoftSpiTransport
 144:../../libDaisy/src/dev/oled_ssd130x.h **** {
 145:../../libDaisy/src/dev/oled_ssd130x.h ****   public:
 146:../../libDaisy/src/dev/oled_ssd130x.h ****     struct Config
 147:../../libDaisy/src/dev/oled_ssd130x.h ****     {
 148:../../libDaisy/src/dev/oled_ssd130x.h ****         Config()
 149:../../libDaisy/src/dev/oled_ssd130x.h ****         {
 150:../../libDaisy/src/dev/oled_ssd130x.h ****             // Initialize using defaults
 151:../../libDaisy/src/dev/oled_ssd130x.h ****             Defaults();
 152:../../libDaisy/src/dev/oled_ssd130x.h ****         }
 153:../../libDaisy/src/dev/oled_ssd130x.h ****         struct
ARM GAS  /var/folders/th/s5djnwg15xxc0dk87c413f_h0000gn/T//ccXOGyQC.s 			page 26


 154:../../libDaisy/src/dev/oled_ssd130x.h ****         {
 155:../../libDaisy/src/dev/oled_ssd130x.h ****             uint32_t     sclk_delay;
 156:../../libDaisy/src/dev/oled_ssd130x.h ****             dsy_gpio_pin sclk;
 157:../../libDaisy/src/dev/oled_ssd130x.h ****             dsy_gpio_pin mosi;
 158:../../libDaisy/src/dev/oled_ssd130x.h ****             dsy_gpio_pin dc;
 159:../../libDaisy/src/dev/oled_ssd130x.h ****             dsy_gpio_pin reset;
 160:../../libDaisy/src/dev/oled_ssd130x.h ****         } pin_config;
 161:../../libDaisy/src/dev/oled_ssd130x.h ****         void Defaults()
 162:../../libDaisy/src/dev/oled_ssd130x.h ****         {
 163:../../libDaisy/src/dev/oled_ssd130x.h ****             pin_config.sclk_delay = 0; // fast as possible?!
 164:../../libDaisy/src/dev/oled_ssd130x.h ****             // SPI peripheral config
 165:../../libDaisy/src/dev/oled_ssd130x.h ****             pin_config.sclk = {DSY_GPIOD, 3}; /**< D10 - SPI2 SCK  */
 166:../../libDaisy/src/dev/oled_ssd130x.h ****             pin_config.mosi = {DSY_GPIOC, 3}; /**< D9  - SPI2 MOSI */
 167:../../libDaisy/src/dev/oled_ssd130x.h ****             // SSD130x control pin config
 168:../../libDaisy/src/dev/oled_ssd130x.h ****             pin_config.dc    = {DSY_GPIOC, 11}; //D2
 169:../../libDaisy/src/dev/oled_ssd130x.h ****             pin_config.reset = {DSY_GPIOC, 10}; //D3
 170:../../libDaisy/src/dev/oled_ssd130x.h ****         }
 171:../../libDaisy/src/dev/oled_ssd130x.h ****     };
 172:../../libDaisy/src/dev/oled_ssd130x.h ****     void Init(const Config& config)
 173:../../libDaisy/src/dev/oled_ssd130x.h ****     {
 174:../../libDaisy/src/dev/oled_ssd130x.h ****         // Initialize both GPIO
 175:../../libDaisy/src/dev/oled_ssd130x.h ****         pin_sclk_.mode = DSY_GPIO_MODE_OUTPUT_PP;
 176:../../libDaisy/src/dev/oled_ssd130x.h ****         pin_sclk_.pin  = config.pin_config.sclk;
 177:../../libDaisy/src/dev/oled_ssd130x.h ****         dsy_gpio_init(&pin_sclk_);
 178:../../libDaisy/src/dev/oled_ssd130x.h ****         dsy_gpio_write(&pin_sclk_, 1); //ClockPolarity::LOW
 179:../../libDaisy/src/dev/oled_ssd130x.h ****         clk_delay      = config.pin_config.sclk_delay;
 180:../../libDaisy/src/dev/oled_ssd130x.h ****         pin_mosi_.mode = DSY_GPIO_MODE_OUTPUT_PP;
 181:../../libDaisy/src/dev/oled_ssd130x.h ****         pin_mosi_.pin  = config.pin_config.mosi;
 182:../../libDaisy/src/dev/oled_ssd130x.h ****         dsy_gpio_init(&pin_mosi_);
 183:../../libDaisy/src/dev/oled_ssd130x.h ****         dsy_gpio_write(&pin_mosi_, 0);
 184:../../libDaisy/src/dev/oled_ssd130x.h **** 
 185:../../libDaisy/src/dev/oled_ssd130x.h ****         pin_dc_.mode = DSY_GPIO_MODE_OUTPUT_PP;
 186:../../libDaisy/src/dev/oled_ssd130x.h ****         pin_dc_.pin  = config.pin_config.dc;
 187:../../libDaisy/src/dev/oled_ssd130x.h ****         dsy_gpio_init(&pin_dc_);
 188:../../libDaisy/src/dev/oled_ssd130x.h ****         pin_reset_.mode = DSY_GPIO_MODE_OUTPUT_PP;
 189:../../libDaisy/src/dev/oled_ssd130x.h ****         pin_reset_.pin  = config.pin_config.reset;
 190:../../libDaisy/src/dev/oled_ssd130x.h ****         dsy_gpio_init(&pin_reset_);
 191:../../libDaisy/src/dev/oled_ssd130x.h **** 
 192:../../libDaisy/src/dev/oled_ssd130x.h ****         // Reset and Configure OLED.
 193:../../libDaisy/src/dev/oled_ssd130x.h ****         dsy_gpio_write(&pin_reset_, 0);
 194:../../libDaisy/src/dev/oled_ssd130x.h ****         System::Delay(10);
 195:../../libDaisy/src/dev/oled_ssd130x.h ****         dsy_gpio_write(&pin_reset_, 1);
 196:../../libDaisy/src/dev/oled_ssd130x.h ****         System::Delay(10);
 197:../../libDaisy/src/dev/oled_ssd130x.h ****     };
 198:../../libDaisy/src/dev/oled_ssd130x.h ****     void SendCommand(uint8_t cmd)
 199:../../libDaisy/src/dev/oled_ssd130x.h ****     {
 200:../../libDaisy/src/dev/oled_ssd130x.h ****         dsy_gpio_write(&pin_dc_, 0);
 201:../../libDaisy/src/dev/oled_ssd130x.h ****         SoftSpiTransmit(cmd);
 202:../../libDaisy/src/dev/oled_ssd130x.h ****     };
 203:../../libDaisy/src/dev/oled_ssd130x.h **** 
 204:../../libDaisy/src/dev/oled_ssd130x.h ****     void SendData(uint8_t* buff, size_t size)
 205:../../libDaisy/src/dev/oled_ssd130x.h ****     {
 206:../../libDaisy/src/dev/oled_ssd130x.h ****         dsy_gpio_write(&pin_dc_, 1);
 207:../../libDaisy/src/dev/oled_ssd130x.h ****         for(size_t i = 0; i < size; i++)
 208:../../libDaisy/src/dev/oled_ssd130x.h ****             SoftSpiTransmit(buff[i]);
 209:../../libDaisy/src/dev/oled_ssd130x.h ****     };
 210:../../libDaisy/src/dev/oled_ssd130x.h **** 
ARM GAS  /var/folders/th/s5djnwg15xxc0dk87c413f_h0000gn/T//ccXOGyQC.s 			page 27


 211:../../libDaisy/src/dev/oled_ssd130x.h ****   private:
 212:../../libDaisy/src/dev/oled_ssd130x.h ****     void SoftSpiTransmit(uint8_t val)
 213:../../libDaisy/src/dev/oled_ssd130x.h ****     {
 214:../../libDaisy/src/dev/oled_ssd130x.h ****         // bit flip
 215:../../libDaisy/src/dev/oled_ssd130x.h ****         val = ((val & 0x01) << 7) | ((val & 0x02) << 5) | ((val & 0x04) << 3)
 216:../../libDaisy/src/dev/oled_ssd130x.h ****               | ((val & 0x08) << 1) | ((val & 0x10) >> 1) | ((val & 0x20) >> 3)
 217:../../libDaisy/src/dev/oled_ssd130x.h ****               | ((val & 0x40) >> 5) | ((val & 0x80) >> 7);
 218:../../libDaisy/src/dev/oled_ssd130x.h **** 
 219:../../libDaisy/src/dev/oled_ssd130x.h ****         for(uint8_t bit = 0u; bit < 8u; bit++)
 220:../../libDaisy/src/dev/oled_ssd130x.h ****         {
 221:../../libDaisy/src/dev/oled_ssd130x.h ****             dsy_gpio_write(&pin_mosi_, ((val & (1 << bit)) ? 1 : 0));
 222:../../libDaisy/src/dev/oled_ssd130x.h **** 
 223:../../libDaisy/src/dev/oled_ssd130x.h ****             System::DelayTicks(clk_delay);
 224:../../libDaisy/src/dev/oled_ssd130x.h **** 
 225:../../libDaisy/src/dev/oled_ssd130x.h ****             dsy_gpio_toggle(&pin_sclk_);
 226:../../libDaisy/src/dev/oled_ssd130x.h **** 
 227:../../libDaisy/src/dev/oled_ssd130x.h ****             System::DelayTicks(clk_delay);
 228:../../libDaisy/src/dev/oled_ssd130x.h **** 
 229:../../libDaisy/src/dev/oled_ssd130x.h ****             dsy_gpio_toggle(&pin_sclk_);
 230:../../libDaisy/src/dev/oled_ssd130x.h ****         }
 231:../../libDaisy/src/dev/oled_ssd130x.h ****     }
 232:../../libDaisy/src/dev/oled_ssd130x.h **** 
 233:../../libDaisy/src/dev/oled_ssd130x.h ****     uint32_t clk_delay;
 234:../../libDaisy/src/dev/oled_ssd130x.h ****     dsy_gpio pin_sclk_;
 235:../../libDaisy/src/dev/oled_ssd130x.h ****     dsy_gpio pin_mosi_;
 236:../../libDaisy/src/dev/oled_ssd130x.h ****     dsy_gpio pin_reset_;
 237:../../libDaisy/src/dev/oled_ssd130x.h ****     dsy_gpio pin_dc_;
 238:../../libDaisy/src/dev/oled_ssd130x.h **** };
 239:../../libDaisy/src/dev/oled_ssd130x.h **** 
 240:../../libDaisy/src/dev/oled_ssd130x.h **** 
 241:../../libDaisy/src/dev/oled_ssd130x.h **** /**
 242:../../libDaisy/src/dev/oled_ssd130x.h ****  * A driver implementation for the SSD1306/SSD1309
 243:../../libDaisy/src/dev/oled_ssd130x.h ****  */
 244:../../libDaisy/src/dev/oled_ssd130x.h **** template <size_t width, size_t height, typename Transport>
 245:../../libDaisy/src/dev/oled_ssd130x.h **** class SSD130xDriver
 246:../../libDaisy/src/dev/oled_ssd130x.h **** {
 247:../../libDaisy/src/dev/oled_ssd130x.h ****   public:
 248:../../libDaisy/src/dev/oled_ssd130x.h ****     struct Config
 249:../../libDaisy/src/dev/oled_ssd130x.h ****     {
 250:../../libDaisy/src/dev/oled_ssd130x.h ****         typename Transport::Config transport_config;
 251:../../libDaisy/src/dev/oled_ssd130x.h ****     };
 252:../../libDaisy/src/dev/oled_ssd130x.h **** 
 253:../../libDaisy/src/dev/oled_ssd130x.h ****     void Init(Config config)
 492              		.loc 7 253 10 is_stmt 1 view -0
 493              		.cfi_startproc
 494              		@ args = 28, pretend = 16, frame = 8
 495              		@ frame_needed = 0, uses_anonymous_args = 0
 496              		.loc 7 253 10 is_stmt 0 view .LVU122
 497 0000 84B0     		sub	sp, sp, #16
 498              		.cfi_def_cfa_offset 16
 499 0002 70B5     		push	{r4, r5, r6, lr}
 500              		.cfi_def_cfa_offset 32
 501              		.cfi_offset 4, -32
 502              		.cfi_offset 5, -28
 503              		.cfi_offset 6, -24
 504              		.cfi_offset 14, -20
 505 0004 84B0     		sub	sp, sp, #16
ARM GAS  /var/folders/th/s5djnwg15xxc0dk87c413f_h0000gn/T//ccXOGyQC.s 			page 28


 506              		.cfi_def_cfa_offset 48
 507              		.loc 7 253 10 view .LVU123
 508 0006 0446     		mov	r4, r0
 509              	.LVL29:
 510              	.LBB421:
 511              	.LBI421:
  37:../../libDaisy/src/dev/oled_ssd130x.h ****     {
 512              		.loc 7 37 10 is_stmt 1 view .LVU124
 513              	.LBB422:
  39:../../libDaisy/src/dev/oled_ssd130x.h ****         i2c_.Init(config.i2c_config);
 514              		.loc 7 39 9 view .LVU125
 515              	.LBE422:
 516              	.LBE421:
 517              	.LBB425:
 518              	.LBB426:
  45:../../libDaisy/src/dev/oled_ssd130x.h ****     };
 519              		.loc 7 45 30 is_stmt 0 view .LVU126
 520 0008 4FF47A76 		mov	r6, #1000
 521              	.LBE426:
 522              	.LBE425:
 523              		.loc 7 253 10 view .LVU127
 524 000c 09AD     		add	r5, sp, #36
 525 000e 85E80E00 		stm	r5, {r1, r2, r3}
 526              	.LBB429:
 527              	.LBB423:
  39:../../libDaisy/src/dev/oled_ssd130x.h ****         i2c_.Init(config.i2c_config);
 528              		.loc 7 39 22 view .LVU128
 529 0012 9DF83830 		ldrb	r3, [sp, #56]	@ zero_extendqisi2
  40:../../libDaisy/src/dev/oled_ssd130x.h ****     };
 530              		.loc 7 40 18 view .LVU129
 531 0016 2946     		mov	r1, r5
 532              	.LBE423:
 533              	.LBE429:
 534              	.LBB430:
 535              	.LBB427:
  44:../../libDaisy/src/dev/oled_ssd130x.h ****         i2c_.TransmitBlocking(i2c_address_, buf, 2, 1000);
 536              		.loc 7 44 17 view .LVU130
 537 0018 0025     		movs	r5, #0
 538              	.LBE427:
 539              	.LBE430:
 540              	.LBB431:
 541              	.LBB424:
  39:../../libDaisy/src/dev/oled_ssd130x.h ****         i2c_.Init(config.i2c_config);
 542              		.loc 7 39 22 view .LVU131
 543 001a 0371     		strb	r3, [r0, #4]
  40:../../libDaisy/src/dev/oled_ssd130x.h ****     };
 544              		.loc 7 40 9 is_stmt 1 view .LVU132
  40:../../libDaisy/src/dev/oled_ssd130x.h ****     };
 545              		.loc 7 40 18 is_stmt 0 view .LVU133
 546 001c FFF7FEFF 		bl	_ZN5daisy9I2CHandle4InitERKNS0_6ConfigE
 547              	.LVL30:
  40:../../libDaisy/src/dev/oled_ssd130x.h ****     };
 548              		.loc 7 40 18 view .LVU134
 549              	.LBE424:
 550              	.LBE431:
 551              	.LBB432:
 552              	.LBI425:
ARM GAS  /var/folders/th/s5djnwg15xxc0dk87c413f_h0000gn/T//ccXOGyQC.s 			page 29


  42:../../libDaisy/src/dev/oled_ssd130x.h ****     {
 553              		.loc 7 42 10 is_stmt 1 view .LVU135
 554              	.LBB428:
  44:../../libDaisy/src/dev/oled_ssd130x.h ****         i2c_.TransmitBlocking(i2c_address_, buf, 2, 1000);
 555              		.loc 7 44 9 view .LVU136
  44:../../libDaisy/src/dev/oled_ssd130x.h ****         i2c_.TransmitBlocking(i2c_address_, buf, 2, 1000);
 556              		.loc 7 44 36 is_stmt 0 view .LVU137
 557 0020 AE23     		movs	r3, #174
  45:../../libDaisy/src/dev/oled_ssd130x.h ****     };
 558              		.loc 7 45 30 view .LVU138
 559 0022 03AA     		add	r2, sp, #12
 560 0024 0096     		str	r6, [sp]
  44:../../libDaisy/src/dev/oled_ssd130x.h ****         i2c_.TransmitBlocking(i2c_address_, buf, 2, 1000);
 561              		.loc 7 44 36 view .LVU139
 562 0026 8DF80D30 		strb	r3, [sp, #13]
  45:../../libDaisy/src/dev/oled_ssd130x.h ****     };
 563              		.loc 7 45 9 is_stmt 1 view .LVU140
  45:../../libDaisy/src/dev/oled_ssd130x.h ****     };
 564              		.loc 7 45 30 is_stmt 0 view .LVU141
 565 002a 2046     		mov	r0, r4
 566 002c 2179     		ldrb	r1, [r4, #4]	@ zero_extendqisi2
 567 002e 0223     		movs	r3, #2
  44:../../libDaisy/src/dev/oled_ssd130x.h ****         i2c_.TransmitBlocking(i2c_address_, buf, 2, 1000);
 568              		.loc 7 44 17 view .LVU142
 569 0030 8DF80C50 		strb	r5, [sp, #12]
  45:../../libDaisy/src/dev/oled_ssd130x.h ****     };
 570              		.loc 7 45 30 view .LVU143
 571 0034 FFF7FEFF 		bl	_ZN5daisy9I2CHandle16TransmitBlockingEtPhtm
 572              	.LVL31:
  45:../../libDaisy/src/dev/oled_ssd130x.h ****     };
 573              		.loc 7 45 30 view .LVU144
 574              	.LBE428:
 575              	.LBE432:
 576              	.LBB433:
 577              	.LBI433:
  42:../../libDaisy/src/dev/oled_ssd130x.h ****     {
 578              		.loc 7 42 10 is_stmt 1 view .LVU145
 579              	.LBB434:
  44:../../libDaisy/src/dev/oled_ssd130x.h ****         i2c_.TransmitBlocking(i2c_address_, buf, 2, 1000);
 580              		.loc 7 44 9 view .LVU146
  44:../../libDaisy/src/dev/oled_ssd130x.h ****         i2c_.TransmitBlocking(i2c_address_, buf, 2, 1000);
 581              		.loc 7 44 36 is_stmt 0 view .LVU147
 582 0038 D523     		movs	r3, #213
  45:../../libDaisy/src/dev/oled_ssd130x.h ****     };
 583              		.loc 7 45 30 view .LVU148
 584 003a 03AA     		add	r2, sp, #12
 585 003c 0096     		str	r6, [sp]
 586 003e 2046     		mov	r0, r4
 587 0040 2179     		ldrb	r1, [r4, #4]	@ zero_extendqisi2
  44:../../libDaisy/src/dev/oled_ssd130x.h ****         i2c_.TransmitBlocking(i2c_address_, buf, 2, 1000);
 588              		.loc 7 44 36 view .LVU149
 589 0042 8DF80D30 		strb	r3, [sp, #13]
  45:../../libDaisy/src/dev/oled_ssd130x.h ****     };
 590              		.loc 7 45 9 is_stmt 1 view .LVU150
  45:../../libDaisy/src/dev/oled_ssd130x.h ****     };
 591              		.loc 7 45 30 is_stmt 0 view .LVU151
 592 0046 0223     		movs	r3, #2
ARM GAS  /var/folders/th/s5djnwg15xxc0dk87c413f_h0000gn/T//ccXOGyQC.s 			page 30


  44:../../libDaisy/src/dev/oled_ssd130x.h ****         i2c_.TransmitBlocking(i2c_address_, buf, 2, 1000);
 593              		.loc 7 44 17 view .LVU152
 594 0048 8DF80C50 		strb	r5, [sp, #12]
  45:../../libDaisy/src/dev/oled_ssd130x.h ****     };
 595              		.loc 7 45 30 view .LVU153
 596 004c FFF7FEFF 		bl	_ZN5daisy9I2CHandle16TransmitBlockingEtPhtm
 597              	.LVL32:
  45:../../libDaisy/src/dev/oled_ssd130x.h ****     };
 598              		.loc 7 45 30 view .LVU154
 599              	.LBE434:
 600              	.LBE433:
 601              	.LBB435:
 602              	.LBI435:
  42:../../libDaisy/src/dev/oled_ssd130x.h ****     {
 603              		.loc 7 42 10 is_stmt 1 view .LVU155
 604              	.LBB436:
  44:../../libDaisy/src/dev/oled_ssd130x.h ****         i2c_.TransmitBlocking(i2c_address_, buf, 2, 1000);
 605              		.loc 7 44 9 view .LVU156
  44:../../libDaisy/src/dev/oled_ssd130x.h ****         i2c_.TransmitBlocking(i2c_address_, buf, 2, 1000);
 606              		.loc 7 44 36 is_stmt 0 view .LVU157
 607 0050 8023     		movs	r3, #128
  45:../../libDaisy/src/dev/oled_ssd130x.h ****     };
 608              		.loc 7 45 30 view .LVU158
 609 0052 03AA     		add	r2, sp, #12
 610 0054 0096     		str	r6, [sp]
 611 0056 2046     		mov	r0, r4
 612 0058 2179     		ldrb	r1, [r4, #4]	@ zero_extendqisi2
  44:../../libDaisy/src/dev/oled_ssd130x.h ****         i2c_.TransmitBlocking(i2c_address_, buf, 2, 1000);
 613              		.loc 7 44 36 view .LVU159
 614 005a 8DF80D30 		strb	r3, [sp, #13]
  45:../../libDaisy/src/dev/oled_ssd130x.h ****     };
 615              		.loc 7 45 9 is_stmt 1 view .LVU160
  45:../../libDaisy/src/dev/oled_ssd130x.h ****     };
 616              		.loc 7 45 30 is_stmt 0 view .LVU161
 617 005e 0223     		movs	r3, #2
  44:../../libDaisy/src/dev/oled_ssd130x.h ****         i2c_.TransmitBlocking(i2c_address_, buf, 2, 1000);
 618              		.loc 7 44 17 view .LVU162
 619 0060 8DF80C50 		strb	r5, [sp, #12]
  45:../../libDaisy/src/dev/oled_ssd130x.h ****     };
 620              		.loc 7 45 30 view .LVU163
 621 0064 FFF7FEFF 		bl	_ZN5daisy9I2CHandle16TransmitBlockingEtPhtm
 622              	.LVL33:
  45:../../libDaisy/src/dev/oled_ssd130x.h ****     };
 623              		.loc 7 45 30 view .LVU164
 624              	.LBE436:
 625              	.LBE435:
 626              	.LBB437:
 627              	.LBI437:
  42:../../libDaisy/src/dev/oled_ssd130x.h ****     {
 628              		.loc 7 42 10 is_stmt 1 view .LVU165
 629              	.LBB438:
  44:../../libDaisy/src/dev/oled_ssd130x.h ****         i2c_.TransmitBlocking(i2c_address_, buf, 2, 1000);
 630              		.loc 7 44 9 view .LVU166
  44:../../libDaisy/src/dev/oled_ssd130x.h ****         i2c_.TransmitBlocking(i2c_address_, buf, 2, 1000);
 631              		.loc 7 44 36 is_stmt 0 view .LVU167
 632 0068 A823     		movs	r3, #168
  45:../../libDaisy/src/dev/oled_ssd130x.h ****     };
ARM GAS  /var/folders/th/s5djnwg15xxc0dk87c413f_h0000gn/T//ccXOGyQC.s 			page 31


 633              		.loc 7 45 30 view .LVU168
 634 006a 03AA     		add	r2, sp, #12
 635 006c 0096     		str	r6, [sp]
 636 006e 2046     		mov	r0, r4
 637 0070 2179     		ldrb	r1, [r4, #4]	@ zero_extendqisi2
  44:../../libDaisy/src/dev/oled_ssd130x.h ****         i2c_.TransmitBlocking(i2c_address_, buf, 2, 1000);
 638              		.loc 7 44 36 view .LVU169
 639 0072 8DF80D30 		strb	r3, [sp, #13]
  45:../../libDaisy/src/dev/oled_ssd130x.h ****     };
 640              		.loc 7 45 9 is_stmt 1 view .LVU170
  45:../../libDaisy/src/dev/oled_ssd130x.h ****     };
 641              		.loc 7 45 30 is_stmt 0 view .LVU171
 642 0076 0223     		movs	r3, #2
  44:../../libDaisy/src/dev/oled_ssd130x.h ****         i2c_.TransmitBlocking(i2c_address_, buf, 2, 1000);
 643              		.loc 7 44 17 view .LVU172
 644 0078 8DF80C50 		strb	r5, [sp, #12]
  45:../../libDaisy/src/dev/oled_ssd130x.h ****     };
 645              		.loc 7 45 30 view .LVU173
 646 007c FFF7FEFF 		bl	_ZN5daisy9I2CHandle16TransmitBlockingEtPhtm
 647              	.LVL34:
  45:../../libDaisy/src/dev/oled_ssd130x.h ****     };
 648              		.loc 7 45 30 view .LVU174
 649              	.LBE438:
 650              	.LBE437:
 651              	.LBB439:
 652              	.LBI439:
  42:../../libDaisy/src/dev/oled_ssd130x.h ****     {
 653              		.loc 7 42 10 is_stmt 1 view .LVU175
 654              	.LBB440:
  44:../../libDaisy/src/dev/oled_ssd130x.h ****         i2c_.TransmitBlocking(i2c_address_, buf, 2, 1000);
 655              		.loc 7 44 9 view .LVU176
  44:../../libDaisy/src/dev/oled_ssd130x.h ****         i2c_.TransmitBlocking(i2c_address_, buf, 2, 1000);
 656              		.loc 7 44 36 is_stmt 0 view .LVU177
 657 0080 3F23     		movs	r3, #63
  45:../../libDaisy/src/dev/oled_ssd130x.h ****     };
 658              		.loc 7 45 30 view .LVU178
 659 0082 03AA     		add	r2, sp, #12
 660 0084 0096     		str	r6, [sp]
 661 0086 2046     		mov	r0, r4
 662 0088 2179     		ldrb	r1, [r4, #4]	@ zero_extendqisi2
  44:../../libDaisy/src/dev/oled_ssd130x.h ****         i2c_.TransmitBlocking(i2c_address_, buf, 2, 1000);
 663              		.loc 7 44 36 view .LVU179
 664 008a 8DF80D30 		strb	r3, [sp, #13]
  45:../../libDaisy/src/dev/oled_ssd130x.h ****     };
 665              		.loc 7 45 9 is_stmt 1 view .LVU180
  45:../../libDaisy/src/dev/oled_ssd130x.h ****     };
 666              		.loc 7 45 30 is_stmt 0 view .LVU181
 667 008e 0223     		movs	r3, #2
  44:../../libDaisy/src/dev/oled_ssd130x.h ****         i2c_.TransmitBlocking(i2c_address_, buf, 2, 1000);
 668              		.loc 7 44 17 view .LVU182
 669 0090 8DF80C50 		strb	r5, [sp, #12]
  45:../../libDaisy/src/dev/oled_ssd130x.h ****     };
 670              		.loc 7 45 30 view .LVU183
 671 0094 FFF7FEFF 		bl	_ZN5daisy9I2CHandle16TransmitBlockingEtPhtm
 672              	.LVL35:
  45:../../libDaisy/src/dev/oled_ssd130x.h ****     };
 673              		.loc 7 45 30 view .LVU184
ARM GAS  /var/folders/th/s5djnwg15xxc0dk87c413f_h0000gn/T//ccXOGyQC.s 			page 32


 674              	.LBE440:
 675              	.LBE439:
 676              	.LBB441:
 677              	.LBI441:
  42:../../libDaisy/src/dev/oled_ssd130x.h ****     {
 678              		.loc 7 42 10 is_stmt 1 view .LVU185
 679              	.LBB442:
  44:../../libDaisy/src/dev/oled_ssd130x.h ****         i2c_.TransmitBlocking(i2c_address_, buf, 2, 1000);
 680              		.loc 7 44 9 view .LVU186
  44:../../libDaisy/src/dev/oled_ssd130x.h ****         i2c_.TransmitBlocking(i2c_address_, buf, 2, 1000);
 681              		.loc 7 44 36 is_stmt 0 view .LVU187
 682 0098 DA23     		movs	r3, #218
  45:../../libDaisy/src/dev/oled_ssd130x.h ****     };
 683              		.loc 7 45 30 view .LVU188
 684 009a 03AA     		add	r2, sp, #12
 685 009c 0096     		str	r6, [sp]
 686 009e 2046     		mov	r0, r4
 687 00a0 2179     		ldrb	r1, [r4, #4]	@ zero_extendqisi2
  44:../../libDaisy/src/dev/oled_ssd130x.h ****         i2c_.TransmitBlocking(i2c_address_, buf, 2, 1000);
 688              		.loc 7 44 36 view .LVU189
 689 00a2 8DF80D30 		strb	r3, [sp, #13]
  45:../../libDaisy/src/dev/oled_ssd130x.h ****     };
 690              		.loc 7 45 9 is_stmt 1 view .LVU190
  45:../../libDaisy/src/dev/oled_ssd130x.h ****     };
 691              		.loc 7 45 30 is_stmt 0 view .LVU191
 692 00a6 0223     		movs	r3, #2
  44:../../libDaisy/src/dev/oled_ssd130x.h ****         i2c_.TransmitBlocking(i2c_address_, buf, 2, 1000);
 693              		.loc 7 44 17 view .LVU192
 694 00a8 8DF80C50 		strb	r5, [sp, #12]
  45:../../libDaisy/src/dev/oled_ssd130x.h ****     };
 695              		.loc 7 45 30 view .LVU193
 696 00ac FFF7FEFF 		bl	_ZN5daisy9I2CHandle16TransmitBlockingEtPhtm
 697              	.LVL36:
  45:../../libDaisy/src/dev/oled_ssd130x.h ****     };
 698              		.loc 7 45 30 view .LVU194
 699              	.LBE442:
 700              	.LBE441:
 701              	.LBB443:
 702              	.LBI443:
  42:../../libDaisy/src/dev/oled_ssd130x.h ****     {
 703              		.loc 7 42 10 is_stmt 1 view .LVU195
 704              	.LBB444:
  44:../../libDaisy/src/dev/oled_ssd130x.h ****         i2c_.TransmitBlocking(i2c_address_, buf, 2, 1000);
 705              		.loc 7 44 9 view .LVU196
  44:../../libDaisy/src/dev/oled_ssd130x.h ****         i2c_.TransmitBlocking(i2c_address_, buf, 2, 1000);
 706              		.loc 7 44 36 is_stmt 0 view .LVU197
 707 00b0 1223     		movs	r3, #18
  45:../../libDaisy/src/dev/oled_ssd130x.h ****     };
 708              		.loc 7 45 30 view .LVU198
 709 00b2 03AA     		add	r2, sp, #12
 710 00b4 0096     		str	r6, [sp]
 711 00b6 2046     		mov	r0, r4
 712 00b8 2179     		ldrb	r1, [r4, #4]	@ zero_extendqisi2
  44:../../libDaisy/src/dev/oled_ssd130x.h ****         i2c_.TransmitBlocking(i2c_address_, buf, 2, 1000);
 713              		.loc 7 44 36 view .LVU199
 714 00ba 8DF80D30 		strb	r3, [sp, #13]
  45:../../libDaisy/src/dev/oled_ssd130x.h ****     };
ARM GAS  /var/folders/th/s5djnwg15xxc0dk87c413f_h0000gn/T//ccXOGyQC.s 			page 33


 715              		.loc 7 45 9 is_stmt 1 view .LVU200
  45:../../libDaisy/src/dev/oled_ssd130x.h ****     };
 716              		.loc 7 45 30 is_stmt 0 view .LVU201
 717 00be 0223     		movs	r3, #2
  44:../../libDaisy/src/dev/oled_ssd130x.h ****         i2c_.TransmitBlocking(i2c_address_, buf, 2, 1000);
 718              		.loc 7 44 17 view .LVU202
 719 00c0 8DF80C50 		strb	r5, [sp, #12]
  45:../../libDaisy/src/dev/oled_ssd130x.h ****     };
 720              		.loc 7 45 30 view .LVU203
 721 00c4 FFF7FEFF 		bl	_ZN5daisy9I2CHandle16TransmitBlockingEtPhtm
 722              	.LVL37:
  45:../../libDaisy/src/dev/oled_ssd130x.h ****     };
 723              		.loc 7 45 30 view .LVU204
 724              	.LBE444:
 725              	.LBE443:
 726              	.LBB445:
 727              	.LBI445:
  42:../../libDaisy/src/dev/oled_ssd130x.h ****     {
 728              		.loc 7 42 10 is_stmt 1 view .LVU205
 729              	.LBB446:
  44:../../libDaisy/src/dev/oled_ssd130x.h ****         i2c_.TransmitBlocking(i2c_address_, buf, 2, 1000);
 730              		.loc 7 44 9 view .LVU206
  44:../../libDaisy/src/dev/oled_ssd130x.h ****         i2c_.TransmitBlocking(i2c_address_, buf, 2, 1000);
 731              		.loc 7 44 36 is_stmt 0 view .LVU207
 732 00c8 D323     		movs	r3, #211
  45:../../libDaisy/src/dev/oled_ssd130x.h ****     };
 733              		.loc 7 45 30 view .LVU208
 734 00ca 03AA     		add	r2, sp, #12
 735 00cc 0096     		str	r6, [sp]
 736 00ce 2046     		mov	r0, r4
 737 00d0 2179     		ldrb	r1, [r4, #4]	@ zero_extendqisi2
  44:../../libDaisy/src/dev/oled_ssd130x.h ****         i2c_.TransmitBlocking(i2c_address_, buf, 2, 1000);
 738              		.loc 7 44 36 view .LVU209
 739 00d2 8DF80D30 		strb	r3, [sp, #13]
  45:../../libDaisy/src/dev/oled_ssd130x.h ****     };
 740              		.loc 7 45 9 is_stmt 1 view .LVU210
  45:../../libDaisy/src/dev/oled_ssd130x.h ****     };
 741              		.loc 7 45 30 is_stmt 0 view .LVU211
 742 00d6 0223     		movs	r3, #2
  44:../../libDaisy/src/dev/oled_ssd130x.h ****         i2c_.TransmitBlocking(i2c_address_, buf, 2, 1000);
 743              		.loc 7 44 17 view .LVU212
 744 00d8 8DF80C50 		strb	r5, [sp, #12]
  45:../../libDaisy/src/dev/oled_ssd130x.h ****     };
 745              		.loc 7 45 30 view .LVU213
 746 00dc FFF7FEFF 		bl	_ZN5daisy9I2CHandle16TransmitBlockingEtPhtm
 747              	.LVL38:
  45:../../libDaisy/src/dev/oled_ssd130x.h ****     };
 748              		.loc 7 45 30 view .LVU214
 749              	.LBE446:
 750              	.LBE445:
 751              	.LBB447:
 752              	.LBI447:
  42:../../libDaisy/src/dev/oled_ssd130x.h ****     {
 753              		.loc 7 42 10 is_stmt 1 view .LVU215
 754              	.LBB448:
  44:../../libDaisy/src/dev/oled_ssd130x.h ****         i2c_.TransmitBlocking(i2c_address_, buf, 2, 1000);
 755              		.loc 7 44 9 view .LVU216
ARM GAS  /var/folders/th/s5djnwg15xxc0dk87c413f_h0000gn/T//ccXOGyQC.s 			page 34


  45:../../libDaisy/src/dev/oled_ssd130x.h ****     };
 756              		.loc 7 45 30 is_stmt 0 view .LVU217
 757 00e0 03AA     		add	r2, sp, #12
 758 00e2 0096     		str	r6, [sp]
 759 00e4 0223     		movs	r3, #2
 760 00e6 2179     		ldrb	r1, [r4, #4]	@ zero_extendqisi2
 761 00e8 2046     		mov	r0, r4
  44:../../libDaisy/src/dev/oled_ssd130x.h ****         i2c_.TransmitBlocking(i2c_address_, buf, 2, 1000);
 762              		.loc 7 44 17 view .LVU218
 763 00ea 8DF80C50 		strb	r5, [sp, #12]
  44:../../libDaisy/src/dev/oled_ssd130x.h ****         i2c_.TransmitBlocking(i2c_address_, buf, 2, 1000);
 764              		.loc 7 44 36 view .LVU219
 765 00ee 8DF80D50 		strb	r5, [sp, #13]
  45:../../libDaisy/src/dev/oled_ssd130x.h ****     };
 766              		.loc 7 45 9 is_stmt 1 view .LVU220
  45:../../libDaisy/src/dev/oled_ssd130x.h ****     };
 767              		.loc 7 45 30 is_stmt 0 view .LVU221
 768 00f2 FFF7FEFF 		bl	_ZN5daisy9I2CHandle16TransmitBlockingEtPhtm
 769              	.LVL39:
  45:../../libDaisy/src/dev/oled_ssd130x.h ****     };
 770              		.loc 7 45 30 view .LVU222
 771              	.LBE448:
 772              	.LBE447:
 773              	.LBB449:
 774              	.LBI449:
  42:../../libDaisy/src/dev/oled_ssd130x.h ****     {
 775              		.loc 7 42 10 is_stmt 1 view .LVU223
 776              	.LBB450:
  44:../../libDaisy/src/dev/oled_ssd130x.h ****         i2c_.TransmitBlocking(i2c_address_, buf, 2, 1000);
 777              		.loc 7 44 9 view .LVU224
  44:../../libDaisy/src/dev/oled_ssd130x.h ****         i2c_.TransmitBlocking(i2c_address_, buf, 2, 1000);
 778              		.loc 7 44 36 is_stmt 0 view .LVU225
 779 00f6 4023     		movs	r3, #64
  45:../../libDaisy/src/dev/oled_ssd130x.h ****     };
 780              		.loc 7 45 30 view .LVU226
 781 00f8 03AA     		add	r2, sp, #12
 782 00fa 0096     		str	r6, [sp]
 783 00fc 2046     		mov	r0, r4
 784 00fe 2179     		ldrb	r1, [r4, #4]	@ zero_extendqisi2
  44:../../libDaisy/src/dev/oled_ssd130x.h ****         i2c_.TransmitBlocking(i2c_address_, buf, 2, 1000);
 785              		.loc 7 44 36 view .LVU227
 786 0100 8DF80D30 		strb	r3, [sp, #13]
  45:../../libDaisy/src/dev/oled_ssd130x.h ****     };
 787              		.loc 7 45 9 is_stmt 1 view .LVU228
  45:../../libDaisy/src/dev/oled_ssd130x.h ****     };
 788              		.loc 7 45 30 is_stmt 0 view .LVU229
 789 0104 0223     		movs	r3, #2
  44:../../libDaisy/src/dev/oled_ssd130x.h ****         i2c_.TransmitBlocking(i2c_address_, buf, 2, 1000);
 790              		.loc 7 44 17 view .LVU230
 791 0106 8DF80C50 		strb	r5, [sp, #12]
  45:../../libDaisy/src/dev/oled_ssd130x.h ****     };
 792              		.loc 7 45 30 view .LVU231
 793 010a FFF7FEFF 		bl	_ZN5daisy9I2CHandle16TransmitBlockingEtPhtm
 794              	.LVL40:
  45:../../libDaisy/src/dev/oled_ssd130x.h ****     };
 795              		.loc 7 45 30 view .LVU232
 796              	.LBE450:
ARM GAS  /var/folders/th/s5djnwg15xxc0dk87c413f_h0000gn/T//ccXOGyQC.s 			page 35


 797              	.LBE449:
 798              	.LBB451:
 799              	.LBI451:
  42:../../libDaisy/src/dev/oled_ssd130x.h ****     {
 800              		.loc 7 42 10 is_stmt 1 view .LVU233
 801              	.LBB452:
  44:../../libDaisy/src/dev/oled_ssd130x.h ****         i2c_.TransmitBlocking(i2c_address_, buf, 2, 1000);
 802              		.loc 7 44 9 view .LVU234
  44:../../libDaisy/src/dev/oled_ssd130x.h ****         i2c_.TransmitBlocking(i2c_address_, buf, 2, 1000);
 803              		.loc 7 44 36 is_stmt 0 view .LVU235
 804 010e A623     		movs	r3, #166
  45:../../libDaisy/src/dev/oled_ssd130x.h ****     };
 805              		.loc 7 45 30 view .LVU236
 806 0110 03AA     		add	r2, sp, #12
 807 0112 0096     		str	r6, [sp]
 808 0114 2046     		mov	r0, r4
 809 0116 2179     		ldrb	r1, [r4, #4]	@ zero_extendqisi2
  44:../../libDaisy/src/dev/oled_ssd130x.h ****         i2c_.TransmitBlocking(i2c_address_, buf, 2, 1000);
 810              		.loc 7 44 36 view .LVU237
 811 0118 8DF80D30 		strb	r3, [sp, #13]
  45:../../libDaisy/src/dev/oled_ssd130x.h ****     };
 812              		.loc 7 45 9 is_stmt 1 view .LVU238
  45:../../libDaisy/src/dev/oled_ssd130x.h ****     };
 813              		.loc 7 45 30 is_stmt 0 view .LVU239
 814 011c 0223     		movs	r3, #2
  44:../../libDaisy/src/dev/oled_ssd130x.h ****         i2c_.TransmitBlocking(i2c_address_, buf, 2, 1000);
 815              		.loc 7 44 17 view .LVU240
 816 011e 8DF80C50 		strb	r5, [sp, #12]
  45:../../libDaisy/src/dev/oled_ssd130x.h ****     };
 817              		.loc 7 45 30 view .LVU241
 818 0122 FFF7FEFF 		bl	_ZN5daisy9I2CHandle16TransmitBlockingEtPhtm
 819              	.LVL41:
  45:../../libDaisy/src/dev/oled_ssd130x.h ****     };
 820              		.loc 7 45 30 view .LVU242
 821              	.LBE452:
 822              	.LBE451:
 823              	.LBB453:
 824              	.LBI453:
  42:../../libDaisy/src/dev/oled_ssd130x.h ****     {
 825              		.loc 7 42 10 is_stmt 1 view .LVU243
 826              	.LBB454:
  44:../../libDaisy/src/dev/oled_ssd130x.h ****         i2c_.TransmitBlocking(i2c_address_, buf, 2, 1000);
 827              		.loc 7 44 9 view .LVU244
  44:../../libDaisy/src/dev/oled_ssd130x.h ****         i2c_.TransmitBlocking(i2c_address_, buf, 2, 1000);
 828              		.loc 7 44 36 is_stmt 0 view .LVU245
 829 0126 A423     		movs	r3, #164
  45:../../libDaisy/src/dev/oled_ssd130x.h ****     };
 830              		.loc 7 45 30 view .LVU246
 831 0128 03AA     		add	r2, sp, #12
 832 012a 0096     		str	r6, [sp]
 833 012c 2046     		mov	r0, r4
 834 012e 2179     		ldrb	r1, [r4, #4]	@ zero_extendqisi2
  44:../../libDaisy/src/dev/oled_ssd130x.h ****         i2c_.TransmitBlocking(i2c_address_, buf, 2, 1000);
 835              		.loc 7 44 36 view .LVU247
 836 0130 8DF80D30 		strb	r3, [sp, #13]
  45:../../libDaisy/src/dev/oled_ssd130x.h ****     };
 837              		.loc 7 45 9 is_stmt 1 view .LVU248
ARM GAS  /var/folders/th/s5djnwg15xxc0dk87c413f_h0000gn/T//ccXOGyQC.s 			page 36


  45:../../libDaisy/src/dev/oled_ssd130x.h ****     };
 838              		.loc 7 45 30 is_stmt 0 view .LVU249
 839 0134 0223     		movs	r3, #2
  44:../../libDaisy/src/dev/oled_ssd130x.h ****         i2c_.TransmitBlocking(i2c_address_, buf, 2, 1000);
 840              		.loc 7 44 17 view .LVU250
 841 0136 8DF80C50 		strb	r5, [sp, #12]
  45:../../libDaisy/src/dev/oled_ssd130x.h ****     };
 842              		.loc 7 45 30 view .LVU251
 843 013a FFF7FEFF 		bl	_ZN5daisy9I2CHandle16TransmitBlockingEtPhtm
 844              	.LVL42:
  45:../../libDaisy/src/dev/oled_ssd130x.h ****     };
 845              		.loc 7 45 30 view .LVU252
 846              	.LBE454:
 847              	.LBE453:
 848              	.LBB455:
 849              	.LBI455:
  42:../../libDaisy/src/dev/oled_ssd130x.h ****     {
 850              		.loc 7 42 10 is_stmt 1 view .LVU253
 851              	.LBB456:
  44:../../libDaisy/src/dev/oled_ssd130x.h ****         i2c_.TransmitBlocking(i2c_address_, buf, 2, 1000);
 852              		.loc 7 44 9 view .LVU254
  44:../../libDaisy/src/dev/oled_ssd130x.h ****         i2c_.TransmitBlocking(i2c_address_, buf, 2, 1000);
 853              		.loc 7 44 36 is_stmt 0 view .LVU255
 854 013e 8D23     		movs	r3, #141
  45:../../libDaisy/src/dev/oled_ssd130x.h ****     };
 855              		.loc 7 45 30 view .LVU256
 856 0140 03AA     		add	r2, sp, #12
 857 0142 0096     		str	r6, [sp]
 858 0144 2046     		mov	r0, r4
 859 0146 2179     		ldrb	r1, [r4, #4]	@ zero_extendqisi2
  44:../../libDaisy/src/dev/oled_ssd130x.h ****         i2c_.TransmitBlocking(i2c_address_, buf, 2, 1000);
 860              		.loc 7 44 36 view .LVU257
 861 0148 8DF80D30 		strb	r3, [sp, #13]
  45:../../libDaisy/src/dev/oled_ssd130x.h ****     };
 862              		.loc 7 45 9 is_stmt 1 view .LVU258
  45:../../libDaisy/src/dev/oled_ssd130x.h ****     };
 863              		.loc 7 45 30 is_stmt 0 view .LVU259
 864 014c 0223     		movs	r3, #2
  44:../../libDaisy/src/dev/oled_ssd130x.h ****         i2c_.TransmitBlocking(i2c_address_, buf, 2, 1000);
 865              		.loc 7 44 17 view .LVU260
 866 014e 8DF80C50 		strb	r5, [sp, #12]
  45:../../libDaisy/src/dev/oled_ssd130x.h ****     };
 867              		.loc 7 45 30 view .LVU261
 868 0152 FFF7FEFF 		bl	_ZN5daisy9I2CHandle16TransmitBlockingEtPhtm
 869              	.LVL43:
  45:../../libDaisy/src/dev/oled_ssd130x.h ****     };
 870              		.loc 7 45 30 view .LVU262
 871              	.LBE456:
 872              	.LBE455:
 873              	.LBB457:
 874              	.LBI457:
  42:../../libDaisy/src/dev/oled_ssd130x.h ****     {
 875              		.loc 7 42 10 is_stmt 1 view .LVU263
 876              	.LBB458:
  44:../../libDaisy/src/dev/oled_ssd130x.h ****         i2c_.TransmitBlocking(i2c_address_, buf, 2, 1000);
 877              		.loc 7 44 9 view .LVU264
  44:../../libDaisy/src/dev/oled_ssd130x.h ****         i2c_.TransmitBlocking(i2c_address_, buf, 2, 1000);
ARM GAS  /var/folders/th/s5djnwg15xxc0dk87c413f_h0000gn/T//ccXOGyQC.s 			page 37


 878              		.loc 7 44 36 is_stmt 0 view .LVU265
 879 0156 1423     		movs	r3, #20
  45:../../libDaisy/src/dev/oled_ssd130x.h ****     };
 880              		.loc 7 45 30 view .LVU266
 881 0158 03AA     		add	r2, sp, #12
 882 015a 0096     		str	r6, [sp]
 883 015c 2046     		mov	r0, r4
 884 015e 2179     		ldrb	r1, [r4, #4]	@ zero_extendqisi2
  44:../../libDaisy/src/dev/oled_ssd130x.h ****         i2c_.TransmitBlocking(i2c_address_, buf, 2, 1000);
 885              		.loc 7 44 36 view .LVU267
 886 0160 8DF80D30 		strb	r3, [sp, #13]
  45:../../libDaisy/src/dev/oled_ssd130x.h ****     };
 887              		.loc 7 45 9 is_stmt 1 view .LVU268
  45:../../libDaisy/src/dev/oled_ssd130x.h ****     };
 888              		.loc 7 45 30 is_stmt 0 view .LVU269
 889 0164 0223     		movs	r3, #2
  44:../../libDaisy/src/dev/oled_ssd130x.h ****         i2c_.TransmitBlocking(i2c_address_, buf, 2, 1000);
 890              		.loc 7 44 17 view .LVU270
 891 0166 8DF80C50 		strb	r5, [sp, #12]
  45:../../libDaisy/src/dev/oled_ssd130x.h ****     };
 892              		.loc 7 45 30 view .LVU271
 893 016a FFF7FEFF 		bl	_ZN5daisy9I2CHandle16TransmitBlockingEtPhtm
 894              	.LVL44:
  45:../../libDaisy/src/dev/oled_ssd130x.h ****     };
 895              		.loc 7 45 30 view .LVU272
 896              	.LBE458:
 897              	.LBE457:
 898              	.LBB459:
 899              	.LBI459:
  42:../../libDaisy/src/dev/oled_ssd130x.h ****     {
 900              		.loc 7 42 10 is_stmt 1 view .LVU273
 901              	.LBB460:
  44:../../libDaisy/src/dev/oled_ssd130x.h ****         i2c_.TransmitBlocking(i2c_address_, buf, 2, 1000);
 902              		.loc 7 44 9 view .LVU274
  44:../../libDaisy/src/dev/oled_ssd130x.h ****         i2c_.TransmitBlocking(i2c_address_, buf, 2, 1000);
 903              		.loc 7 44 36 is_stmt 0 view .LVU275
 904 016e A123     		movs	r3, #161
  45:../../libDaisy/src/dev/oled_ssd130x.h ****     };
 905              		.loc 7 45 30 view .LVU276
 906 0170 03AA     		add	r2, sp, #12
 907 0172 0096     		str	r6, [sp]
 908 0174 2046     		mov	r0, r4
 909 0176 2179     		ldrb	r1, [r4, #4]	@ zero_extendqisi2
  44:../../libDaisy/src/dev/oled_ssd130x.h ****         i2c_.TransmitBlocking(i2c_address_, buf, 2, 1000);
 910              		.loc 7 44 36 view .LVU277
 911 0178 8DF80D30 		strb	r3, [sp, #13]
  45:../../libDaisy/src/dev/oled_ssd130x.h ****     };
 912              		.loc 7 45 9 is_stmt 1 view .LVU278
  45:../../libDaisy/src/dev/oled_ssd130x.h ****     };
 913              		.loc 7 45 30 is_stmt 0 view .LVU279
 914 017c 0223     		movs	r3, #2
  44:../../libDaisy/src/dev/oled_ssd130x.h ****         i2c_.TransmitBlocking(i2c_address_, buf, 2, 1000);
 915              		.loc 7 44 17 view .LVU280
 916 017e 8DF80C50 		strb	r5, [sp, #12]
  45:../../libDaisy/src/dev/oled_ssd130x.h ****     };
 917              		.loc 7 45 30 view .LVU281
 918 0182 FFF7FEFF 		bl	_ZN5daisy9I2CHandle16TransmitBlockingEtPhtm
ARM GAS  /var/folders/th/s5djnwg15xxc0dk87c413f_h0000gn/T//ccXOGyQC.s 			page 38


 919              	.LVL45:
  45:../../libDaisy/src/dev/oled_ssd130x.h ****     };
 920              		.loc 7 45 30 view .LVU282
 921              	.LBE460:
 922              	.LBE459:
 923              	.LBB461:
 924              	.LBI461:
  42:../../libDaisy/src/dev/oled_ssd130x.h ****     {
 925              		.loc 7 42 10 is_stmt 1 view .LVU283
 926              	.LBB462:
  44:../../libDaisy/src/dev/oled_ssd130x.h ****         i2c_.TransmitBlocking(i2c_address_, buf, 2, 1000);
 927              		.loc 7 44 9 view .LVU284
  44:../../libDaisy/src/dev/oled_ssd130x.h ****         i2c_.TransmitBlocking(i2c_address_, buf, 2, 1000);
 928              		.loc 7 44 36 is_stmt 0 view .LVU285
 929 0186 C823     		movs	r3, #200
  45:../../libDaisy/src/dev/oled_ssd130x.h ****     };
 930              		.loc 7 45 30 view .LVU286
 931 0188 03AA     		add	r2, sp, #12
 932 018a 0096     		str	r6, [sp]
 933 018c 2046     		mov	r0, r4
 934 018e 2179     		ldrb	r1, [r4, #4]	@ zero_extendqisi2
  44:../../libDaisy/src/dev/oled_ssd130x.h ****         i2c_.TransmitBlocking(i2c_address_, buf, 2, 1000);
 935              		.loc 7 44 36 view .LVU287
 936 0190 8DF80D30 		strb	r3, [sp, #13]
  45:../../libDaisy/src/dev/oled_ssd130x.h ****     };
 937              		.loc 7 45 9 is_stmt 1 view .LVU288
  45:../../libDaisy/src/dev/oled_ssd130x.h ****     };
 938              		.loc 7 45 30 is_stmt 0 view .LVU289
 939 0194 0223     		movs	r3, #2
  44:../../libDaisy/src/dev/oled_ssd130x.h ****         i2c_.TransmitBlocking(i2c_address_, buf, 2, 1000);
 940              		.loc 7 44 17 view .LVU290
 941 0196 8DF80C50 		strb	r5, [sp, #12]
  45:../../libDaisy/src/dev/oled_ssd130x.h ****     };
 942              		.loc 7 45 30 view .LVU291
 943 019a FFF7FEFF 		bl	_ZN5daisy9I2CHandle16TransmitBlockingEtPhtm
 944              	.LVL46:
  45:../../libDaisy/src/dev/oled_ssd130x.h ****     };
 945              		.loc 7 45 30 view .LVU292
 946              	.LBE462:
 947              	.LBE461:
 948              	.LBB463:
 949              	.LBI463:
  42:../../libDaisy/src/dev/oled_ssd130x.h ****     {
 950              		.loc 7 42 10 is_stmt 1 view .LVU293
 951              	.LBB464:
  44:../../libDaisy/src/dev/oled_ssd130x.h ****         i2c_.TransmitBlocking(i2c_address_, buf, 2, 1000);
 952              		.loc 7 44 9 view .LVU294
  44:../../libDaisy/src/dev/oled_ssd130x.h ****         i2c_.TransmitBlocking(i2c_address_, buf, 2, 1000);
 953              		.loc 7 44 36 is_stmt 0 view .LVU295
 954 019e 8123     		movs	r3, #129
  45:../../libDaisy/src/dev/oled_ssd130x.h ****     };
 955              		.loc 7 45 30 view .LVU296
 956 01a0 03AA     		add	r2, sp, #12
 957 01a2 0096     		str	r6, [sp]
 958 01a4 2046     		mov	r0, r4
 959 01a6 2179     		ldrb	r1, [r4, #4]	@ zero_extendqisi2
  44:../../libDaisy/src/dev/oled_ssd130x.h ****         i2c_.TransmitBlocking(i2c_address_, buf, 2, 1000);
ARM GAS  /var/folders/th/s5djnwg15xxc0dk87c413f_h0000gn/T//ccXOGyQC.s 			page 39


 960              		.loc 7 44 36 view .LVU297
 961 01a8 8DF80D30 		strb	r3, [sp, #13]
  45:../../libDaisy/src/dev/oled_ssd130x.h ****     };
 962              		.loc 7 45 9 is_stmt 1 view .LVU298
  45:../../libDaisy/src/dev/oled_ssd130x.h ****     };
 963              		.loc 7 45 30 is_stmt 0 view .LVU299
 964 01ac 0223     		movs	r3, #2
  44:../../libDaisy/src/dev/oled_ssd130x.h ****         i2c_.TransmitBlocking(i2c_address_, buf, 2, 1000);
 965              		.loc 7 44 17 view .LVU300
 966 01ae 8DF80C50 		strb	r5, [sp, #12]
  45:../../libDaisy/src/dev/oled_ssd130x.h ****     };
 967              		.loc 7 45 30 view .LVU301
 968 01b2 FFF7FEFF 		bl	_ZN5daisy9I2CHandle16TransmitBlockingEtPhtm
 969              	.LVL47:
  45:../../libDaisy/src/dev/oled_ssd130x.h ****     };
 970              		.loc 7 45 30 view .LVU302
 971              	.LBE464:
 972              	.LBE463:
 973              	.LBB465:
 974              	.LBI465:
  42:../../libDaisy/src/dev/oled_ssd130x.h ****     {
 975              		.loc 7 42 10 is_stmt 1 view .LVU303
 976              	.LBB466:
  44:../../libDaisy/src/dev/oled_ssd130x.h ****         i2c_.TransmitBlocking(i2c_address_, buf, 2, 1000);
 977              		.loc 7 44 9 view .LVU304
  44:../../libDaisy/src/dev/oled_ssd130x.h ****         i2c_.TransmitBlocking(i2c_address_, buf, 2, 1000);
 978              		.loc 7 44 36 is_stmt 0 view .LVU305
 979 01b6 8F23     		movs	r3, #143
  45:../../libDaisy/src/dev/oled_ssd130x.h ****     };
 980              		.loc 7 45 30 view .LVU306
 981 01b8 03AA     		add	r2, sp, #12
 982 01ba 0096     		str	r6, [sp]
 983 01bc 2046     		mov	r0, r4
 984 01be 2179     		ldrb	r1, [r4, #4]	@ zero_extendqisi2
  44:../../libDaisy/src/dev/oled_ssd130x.h ****         i2c_.TransmitBlocking(i2c_address_, buf, 2, 1000);
 985              		.loc 7 44 36 view .LVU307
 986 01c0 8DF80D30 		strb	r3, [sp, #13]
  45:../../libDaisy/src/dev/oled_ssd130x.h ****     };
 987              		.loc 7 45 9 is_stmt 1 view .LVU308
  45:../../libDaisy/src/dev/oled_ssd130x.h ****     };
 988              		.loc 7 45 30 is_stmt 0 view .LVU309
 989 01c4 0223     		movs	r3, #2
  44:../../libDaisy/src/dev/oled_ssd130x.h ****         i2c_.TransmitBlocking(i2c_address_, buf, 2, 1000);
 990              		.loc 7 44 17 view .LVU310
 991 01c6 8DF80C50 		strb	r5, [sp, #12]
  45:../../libDaisy/src/dev/oled_ssd130x.h ****     };
 992              		.loc 7 45 30 view .LVU311
 993 01ca FFF7FEFF 		bl	_ZN5daisy9I2CHandle16TransmitBlockingEtPhtm
 994              	.LVL48:
  45:../../libDaisy/src/dev/oled_ssd130x.h ****     };
 995              		.loc 7 45 30 view .LVU312
 996              	.LBE466:
 997              	.LBE465:
 998              	.LBB467:
 999              	.LBI467:
  42:../../libDaisy/src/dev/oled_ssd130x.h ****     {
 1000              		.loc 7 42 10 is_stmt 1 view .LVU313
ARM GAS  /var/folders/th/s5djnwg15xxc0dk87c413f_h0000gn/T//ccXOGyQC.s 			page 40


 1001              	.LBB468:
  44:../../libDaisy/src/dev/oled_ssd130x.h ****         i2c_.TransmitBlocking(i2c_address_, buf, 2, 1000);
 1002              		.loc 7 44 9 view .LVU314
  44:../../libDaisy/src/dev/oled_ssd130x.h ****         i2c_.TransmitBlocking(i2c_address_, buf, 2, 1000);
 1003              		.loc 7 44 36 is_stmt 0 view .LVU315
 1004 01ce D923     		movs	r3, #217
  45:../../libDaisy/src/dev/oled_ssd130x.h ****     };
 1005              		.loc 7 45 30 view .LVU316
 1006 01d0 03AA     		add	r2, sp, #12
 1007 01d2 0096     		str	r6, [sp]
 1008 01d4 2046     		mov	r0, r4
 1009 01d6 2179     		ldrb	r1, [r4, #4]	@ zero_extendqisi2
  44:../../libDaisy/src/dev/oled_ssd130x.h ****         i2c_.TransmitBlocking(i2c_address_, buf, 2, 1000);
 1010              		.loc 7 44 36 view .LVU317
 1011 01d8 8DF80D30 		strb	r3, [sp, #13]
  45:../../libDaisy/src/dev/oled_ssd130x.h ****     };
 1012              		.loc 7 45 9 is_stmt 1 view .LVU318
  45:../../libDaisy/src/dev/oled_ssd130x.h ****     };
 1013              		.loc 7 45 30 is_stmt 0 view .LVU319
 1014 01dc 0223     		movs	r3, #2
  44:../../libDaisy/src/dev/oled_ssd130x.h ****         i2c_.TransmitBlocking(i2c_address_, buf, 2, 1000);
 1015              		.loc 7 44 17 view .LVU320
 1016 01de 8DF80C50 		strb	r5, [sp, #12]
  45:../../libDaisy/src/dev/oled_ssd130x.h ****     };
 1017              		.loc 7 45 30 view .LVU321
 1018 01e2 FFF7FEFF 		bl	_ZN5daisy9I2CHandle16TransmitBlockingEtPhtm
 1019              	.LVL49:
  45:../../libDaisy/src/dev/oled_ssd130x.h ****     };
 1020              		.loc 7 45 30 view .LVU322
 1021              	.LBE468:
 1022              	.LBE467:
 1023              	.LBB469:
 1024              	.LBI469:
  42:../../libDaisy/src/dev/oled_ssd130x.h ****     {
 1025              		.loc 7 42 10 is_stmt 1 view .LVU323
 1026              	.LBB470:
  44:../../libDaisy/src/dev/oled_ssd130x.h ****         i2c_.TransmitBlocking(i2c_address_, buf, 2, 1000);
 1027              		.loc 7 44 9 view .LVU324
  44:../../libDaisy/src/dev/oled_ssd130x.h ****         i2c_.TransmitBlocking(i2c_address_, buf, 2, 1000);
 1028              		.loc 7 44 36 is_stmt 0 view .LVU325
 1029 01e6 2523     		movs	r3, #37
  45:../../libDaisy/src/dev/oled_ssd130x.h ****     };
 1030              		.loc 7 45 30 view .LVU326
 1031 01e8 03AA     		add	r2, sp, #12
 1032 01ea 0096     		str	r6, [sp]
 1033 01ec 2046     		mov	r0, r4
 1034 01ee 2179     		ldrb	r1, [r4, #4]	@ zero_extendqisi2
  44:../../libDaisy/src/dev/oled_ssd130x.h ****         i2c_.TransmitBlocking(i2c_address_, buf, 2, 1000);
 1035              		.loc 7 44 36 view .LVU327
 1036 01f0 8DF80D30 		strb	r3, [sp, #13]
  45:../../libDaisy/src/dev/oled_ssd130x.h ****     };
 1037              		.loc 7 45 9 is_stmt 1 view .LVU328
  45:../../libDaisy/src/dev/oled_ssd130x.h ****     };
 1038              		.loc 7 45 30 is_stmt 0 view .LVU329
 1039 01f4 0223     		movs	r3, #2
  44:../../libDaisy/src/dev/oled_ssd130x.h ****         i2c_.TransmitBlocking(i2c_address_, buf, 2, 1000);
 1040              		.loc 7 44 17 view .LVU330
ARM GAS  /var/folders/th/s5djnwg15xxc0dk87c413f_h0000gn/T//ccXOGyQC.s 			page 41


 1041 01f6 8DF80C50 		strb	r5, [sp, #12]
  45:../../libDaisy/src/dev/oled_ssd130x.h ****     };
 1042              		.loc 7 45 30 view .LVU331
 1043 01fa FFF7FEFF 		bl	_ZN5daisy9I2CHandle16TransmitBlockingEtPhtm
 1044              	.LVL50:
  45:../../libDaisy/src/dev/oled_ssd130x.h ****     };
 1045              		.loc 7 45 30 view .LVU332
 1046              	.LBE470:
 1047              	.LBE469:
 1048              	.LBB471:
 1049              	.LBI471:
  42:../../libDaisy/src/dev/oled_ssd130x.h ****     {
 1050              		.loc 7 42 10 is_stmt 1 view .LVU333
 1051              	.LBB472:
  44:../../libDaisy/src/dev/oled_ssd130x.h ****         i2c_.TransmitBlocking(i2c_address_, buf, 2, 1000);
 1052              		.loc 7 44 9 view .LVU334
  44:../../libDaisy/src/dev/oled_ssd130x.h ****         i2c_.TransmitBlocking(i2c_address_, buf, 2, 1000);
 1053              		.loc 7 44 36 is_stmt 0 view .LVU335
 1054 01fe DB23     		movs	r3, #219
  45:../../libDaisy/src/dev/oled_ssd130x.h ****     };
 1055              		.loc 7 45 30 view .LVU336
 1056 0200 03AA     		add	r2, sp, #12
 1057 0202 0096     		str	r6, [sp]
 1058 0204 2046     		mov	r0, r4
 1059 0206 2179     		ldrb	r1, [r4, #4]	@ zero_extendqisi2
  44:../../libDaisy/src/dev/oled_ssd130x.h ****         i2c_.TransmitBlocking(i2c_address_, buf, 2, 1000);
 1060              		.loc 7 44 36 view .LVU337
 1061 0208 8DF80D30 		strb	r3, [sp, #13]
  45:../../libDaisy/src/dev/oled_ssd130x.h ****     };
 1062              		.loc 7 45 9 is_stmt 1 view .LVU338
  45:../../libDaisy/src/dev/oled_ssd130x.h ****     };
 1063              		.loc 7 45 30 is_stmt 0 view .LVU339
 1064 020c 0223     		movs	r3, #2
  44:../../libDaisy/src/dev/oled_ssd130x.h ****         i2c_.TransmitBlocking(i2c_address_, buf, 2, 1000);
 1065              		.loc 7 44 17 view .LVU340
 1066 020e 8DF80C50 		strb	r5, [sp, #12]
  45:../../libDaisy/src/dev/oled_ssd130x.h ****     };
 1067              		.loc 7 45 30 view .LVU341
 1068 0212 FFF7FEFF 		bl	_ZN5daisy9I2CHandle16TransmitBlockingEtPhtm
 1069              	.LVL51:
  45:../../libDaisy/src/dev/oled_ssd130x.h ****     };
 1070              		.loc 7 45 30 view .LVU342
 1071              	.LBE472:
 1072              	.LBE471:
 1073              	.LBB473:
 1074              	.LBI473:
  42:../../libDaisy/src/dev/oled_ssd130x.h ****     {
 1075              		.loc 7 42 10 is_stmt 1 view .LVU343
 1076              	.LBB474:
  44:../../libDaisy/src/dev/oled_ssd130x.h ****         i2c_.TransmitBlocking(i2c_address_, buf, 2, 1000);
 1077              		.loc 7 44 9 view .LVU344
  44:../../libDaisy/src/dev/oled_ssd130x.h ****         i2c_.TransmitBlocking(i2c_address_, buf, 2, 1000);
 1078              		.loc 7 44 36 is_stmt 0 view .LVU345
 1079 0216 3423     		movs	r3, #52
  45:../../libDaisy/src/dev/oled_ssd130x.h ****     };
 1080              		.loc 7 45 30 view .LVU346
 1081 0218 03AA     		add	r2, sp, #12
ARM GAS  /var/folders/th/s5djnwg15xxc0dk87c413f_h0000gn/T//ccXOGyQC.s 			page 42


 1082 021a 0096     		str	r6, [sp]
 1083 021c 2046     		mov	r0, r4
 1084 021e 2179     		ldrb	r1, [r4, #4]	@ zero_extendqisi2
  44:../../libDaisy/src/dev/oled_ssd130x.h ****         i2c_.TransmitBlocking(i2c_address_, buf, 2, 1000);
 1085              		.loc 7 44 36 view .LVU347
 1086 0220 8DF80D30 		strb	r3, [sp, #13]
  45:../../libDaisy/src/dev/oled_ssd130x.h ****     };
 1087              		.loc 7 45 9 is_stmt 1 view .LVU348
  45:../../libDaisy/src/dev/oled_ssd130x.h ****     };
 1088              		.loc 7 45 30 is_stmt 0 view .LVU349
 1089 0224 0223     		movs	r3, #2
  44:../../libDaisy/src/dev/oled_ssd130x.h ****         i2c_.TransmitBlocking(i2c_address_, buf, 2, 1000);
 1090              		.loc 7 44 17 view .LVU350
 1091 0226 8DF80C50 		strb	r5, [sp, #12]
  45:../../libDaisy/src/dev/oled_ssd130x.h ****     };
 1092              		.loc 7 45 30 view .LVU351
 1093 022a FFF7FEFF 		bl	_ZN5daisy9I2CHandle16TransmitBlockingEtPhtm
 1094              	.LVL52:
  45:../../libDaisy/src/dev/oled_ssd130x.h ****     };
 1095              		.loc 7 45 30 view .LVU352
 1096              	.LBE474:
 1097              	.LBE473:
 1098              	.LBB475:
 1099              	.LBI475:
  42:../../libDaisy/src/dev/oled_ssd130x.h ****     {
 1100              		.loc 7 42 10 is_stmt 1 view .LVU353
 1101              	.LBB476:
  44:../../libDaisy/src/dev/oled_ssd130x.h ****         i2c_.TransmitBlocking(i2c_address_, buf, 2, 1000);
 1102              		.loc 7 44 9 view .LVU354
  44:../../libDaisy/src/dev/oled_ssd130x.h ****         i2c_.TransmitBlocking(i2c_address_, buf, 2, 1000);
 1103              		.loc 7 44 36 is_stmt 0 view .LVU355
 1104 022e AF21     		movs	r1, #175
  45:../../libDaisy/src/dev/oled_ssd130x.h ****     };
 1105              		.loc 7 45 30 view .LVU356
 1106 0230 0096     		str	r6, [sp]
 1107 0232 03AA     		add	r2, sp, #12
 1108 0234 0223     		movs	r3, #2
  44:../../libDaisy/src/dev/oled_ssd130x.h ****         i2c_.TransmitBlocking(i2c_address_, buf, 2, 1000);
 1109              		.loc 7 44 36 view .LVU357
 1110 0236 8DF80D10 		strb	r1, [sp, #13]
  45:../../libDaisy/src/dev/oled_ssd130x.h ****     };
 1111              		.loc 7 45 9 is_stmt 1 view .LVU358
  45:../../libDaisy/src/dev/oled_ssd130x.h ****     };
 1112              		.loc 7 45 30 is_stmt 0 view .LVU359
 1113 023a 2046     		mov	r0, r4
 1114 023c 2179     		ldrb	r1, [r4, #4]	@ zero_extendqisi2
  44:../../libDaisy/src/dev/oled_ssd130x.h ****         i2c_.TransmitBlocking(i2c_address_, buf, 2, 1000);
 1115              		.loc 7 44 17 view .LVU360
 1116 023e 8DF80C50 		strb	r5, [sp, #12]
  45:../../libDaisy/src/dev/oled_ssd130x.h ****     };
 1117              		.loc 7 45 30 view .LVU361
 1118 0242 FFF7FEFF 		bl	_ZN5daisy9I2CHandle16TransmitBlockingEtPhtm
 1119              	.LVL53:
  45:../../libDaisy/src/dev/oled_ssd130x.h ****     };
 1120              		.loc 7 45 30 view .LVU362
 1121              	.LBE476:
 1122              	.LBE475:
ARM GAS  /var/folders/th/s5djnwg15xxc0dk87c413f_h0000gn/T//ccXOGyQC.s 			page 43


 254:../../libDaisy/src/dev/oled_ssd130x.h ****     {
 255:../../libDaisy/src/dev/oled_ssd130x.h ****         transport_.Init(config.transport_config);
 256:../../libDaisy/src/dev/oled_ssd130x.h **** 
 257:../../libDaisy/src/dev/oled_ssd130x.h ****         // Init routine...
 258:../../libDaisy/src/dev/oled_ssd130x.h **** 
 259:../../libDaisy/src/dev/oled_ssd130x.h ****         // Display Off
 260:../../libDaisy/src/dev/oled_ssd130x.h ****         transport_.SendCommand(0xaE);
 261:../../libDaisy/src/dev/oled_ssd130x.h ****         // Dimension dependent commands...
 262:../../libDaisy/src/dev/oled_ssd130x.h ****         switch(height)
 263:../../libDaisy/src/dev/oled_ssd130x.h ****         {
 264:../../libDaisy/src/dev/oled_ssd130x.h ****             case 16:
 265:../../libDaisy/src/dev/oled_ssd130x.h ****                 // Display Clock Divide Ratio
 266:../../libDaisy/src/dev/oled_ssd130x.h ****                 transport_.SendCommand(0xD5);
 267:../../libDaisy/src/dev/oled_ssd130x.h ****                 transport_.SendCommand(0x60);
 268:../../libDaisy/src/dev/oled_ssd130x.h ****                 // Multiplex Ratio
 269:../../libDaisy/src/dev/oled_ssd130x.h ****                 transport_.SendCommand(0xA8);
 270:../../libDaisy/src/dev/oled_ssd130x.h ****                 transport_.SendCommand(0x0F);
 271:../../libDaisy/src/dev/oled_ssd130x.h ****                 // COM Pins
 272:../../libDaisy/src/dev/oled_ssd130x.h ****                 transport_.SendCommand(0xDA);
 273:../../libDaisy/src/dev/oled_ssd130x.h ****                 transport_.SendCommand(0x02);
 274:../../libDaisy/src/dev/oled_ssd130x.h ****                 break;
 275:../../libDaisy/src/dev/oled_ssd130x.h ****             case 32:
 276:../../libDaisy/src/dev/oled_ssd130x.h ****                 // Display Clock Divide Ratio
 277:../../libDaisy/src/dev/oled_ssd130x.h ****                 transport_.SendCommand(0xD5);
 278:../../libDaisy/src/dev/oled_ssd130x.h ****                 transport_.SendCommand(0x80);
 279:../../libDaisy/src/dev/oled_ssd130x.h ****                 // Multiplex Ratio
 280:../../libDaisy/src/dev/oled_ssd130x.h ****                 transport_.SendCommand(0xA8);
 281:../../libDaisy/src/dev/oled_ssd130x.h ****                 transport_.SendCommand(0x1F);
 282:../../libDaisy/src/dev/oled_ssd130x.h ****                 // COM Pins
 283:../../libDaisy/src/dev/oled_ssd130x.h ****                 transport_.SendCommand(0xDA);
 284:../../libDaisy/src/dev/oled_ssd130x.h ****                 if(width == 64)
 285:../../libDaisy/src/dev/oled_ssd130x.h ****                 {
 286:../../libDaisy/src/dev/oled_ssd130x.h ****                     transport_.SendCommand(0x12);
 287:../../libDaisy/src/dev/oled_ssd130x.h ****                 }
 288:../../libDaisy/src/dev/oled_ssd130x.h ****                 else
 289:../../libDaisy/src/dev/oled_ssd130x.h ****                 {
 290:../../libDaisy/src/dev/oled_ssd130x.h ****                     transport_.SendCommand(0x02);
 291:../../libDaisy/src/dev/oled_ssd130x.h ****                 }
 292:../../libDaisy/src/dev/oled_ssd130x.h **** 
 293:../../libDaisy/src/dev/oled_ssd130x.h ****                 break;
 294:../../libDaisy/src/dev/oled_ssd130x.h ****             case 48:
 295:../../libDaisy/src/dev/oled_ssd130x.h ****                 // Display Clock Divide Ratio
 296:../../libDaisy/src/dev/oled_ssd130x.h ****                 transport_.SendCommand(0xD5);
 297:../../libDaisy/src/dev/oled_ssd130x.h ****                 transport_.SendCommand(0x80);
 298:../../libDaisy/src/dev/oled_ssd130x.h ****                 // Multiplex Ratio
 299:../../libDaisy/src/dev/oled_ssd130x.h ****                 transport_.SendCommand(0xA8);
 300:../../libDaisy/src/dev/oled_ssd130x.h ****                 transport_.SendCommand(0x2F);
 301:../../libDaisy/src/dev/oled_ssd130x.h ****                 // COM Pins
 302:../../libDaisy/src/dev/oled_ssd130x.h ****                 transport_.SendCommand(0xDA);
 303:../../libDaisy/src/dev/oled_ssd130x.h ****                 transport_.SendCommand(0x12);
 304:../../libDaisy/src/dev/oled_ssd130x.h ****                 break;
 305:../../libDaisy/src/dev/oled_ssd130x.h ****             default: // 128
 306:../../libDaisy/src/dev/oled_ssd130x.h ****                 // Display Clock Divide Ratio
 307:../../libDaisy/src/dev/oled_ssd130x.h ****                 transport_.SendCommand(0xD5);
 308:../../libDaisy/src/dev/oled_ssd130x.h ****                 transport_.SendCommand(0x80);
 309:../../libDaisy/src/dev/oled_ssd130x.h ****                 // Multiplex Ratio
 310:../../libDaisy/src/dev/oled_ssd130x.h ****                 transport_.SendCommand(0xA8);
ARM GAS  /var/folders/th/s5djnwg15xxc0dk87c413f_h0000gn/T//ccXOGyQC.s 			page 44


 311:../../libDaisy/src/dev/oled_ssd130x.h ****                 transport_.SendCommand(0x3F);
 312:../../libDaisy/src/dev/oled_ssd130x.h ****                 // COM Pins
 313:../../libDaisy/src/dev/oled_ssd130x.h ****                 transport_.SendCommand(0xDA);
 314:../../libDaisy/src/dev/oled_ssd130x.h ****                 transport_.SendCommand(0x12);
 315:../../libDaisy/src/dev/oled_ssd130x.h ****                 break;
 316:../../libDaisy/src/dev/oled_ssd130x.h ****         }
 317:../../libDaisy/src/dev/oled_ssd130x.h **** 
 318:../../libDaisy/src/dev/oled_ssd130x.h ****         // Display Offset
 319:../../libDaisy/src/dev/oled_ssd130x.h ****         transport_.SendCommand(0xD3);
 320:../../libDaisy/src/dev/oled_ssd130x.h ****         transport_.SendCommand(0x00);
 321:../../libDaisy/src/dev/oled_ssd130x.h ****         // Start Line Address
 322:../../libDaisy/src/dev/oled_ssd130x.h ****         transport_.SendCommand(0x40);
 323:../../libDaisy/src/dev/oled_ssd130x.h ****         // Normal Display
 324:../../libDaisy/src/dev/oled_ssd130x.h ****         transport_.SendCommand(0xA6);
 325:../../libDaisy/src/dev/oled_ssd130x.h ****         // All On Resume
 326:../../libDaisy/src/dev/oled_ssd130x.h ****         transport_.SendCommand(0xA4);
 327:../../libDaisy/src/dev/oled_ssd130x.h ****         // Charge Pump
 328:../../libDaisy/src/dev/oled_ssd130x.h ****         transport_.SendCommand(0x8D);
 329:../../libDaisy/src/dev/oled_ssd130x.h ****         transport_.SendCommand(0x14);
 330:../../libDaisy/src/dev/oled_ssd130x.h ****         // Set Segment Remap
 331:../../libDaisy/src/dev/oled_ssd130x.h ****         transport_.SendCommand(0xA1);
 332:../../libDaisy/src/dev/oled_ssd130x.h ****         // COM Output Scan Direction
 333:../../libDaisy/src/dev/oled_ssd130x.h ****         transport_.SendCommand(0xC8);
 334:../../libDaisy/src/dev/oled_ssd130x.h ****         // Contrast Control
 335:../../libDaisy/src/dev/oled_ssd130x.h ****         transport_.SendCommand(0x81);
 336:../../libDaisy/src/dev/oled_ssd130x.h ****         transport_.SendCommand(0x8F);
 337:../../libDaisy/src/dev/oled_ssd130x.h ****         // Pre Charge
 338:../../libDaisy/src/dev/oled_ssd130x.h ****         transport_.SendCommand(0xD9);
 339:../../libDaisy/src/dev/oled_ssd130x.h ****         transport_.SendCommand(0x25);
 340:../../libDaisy/src/dev/oled_ssd130x.h ****         // VCOM Detect
 341:../../libDaisy/src/dev/oled_ssd130x.h ****         transport_.SendCommand(0xDB);
 342:../../libDaisy/src/dev/oled_ssd130x.h ****         transport_.SendCommand(0x34);
 343:../../libDaisy/src/dev/oled_ssd130x.h **** 
 344:../../libDaisy/src/dev/oled_ssd130x.h **** 
 345:../../libDaisy/src/dev/oled_ssd130x.h ****         // Display On
 346:../../libDaisy/src/dev/oled_ssd130x.h ****         transport_.SendCommand(0xAF); //--turn on oled panel
 347:../../libDaisy/src/dev/oled_ssd130x.h ****     };
 1123              		.loc 7 347 5 view .LVU363
 1124 0246 04B0     		add	sp, sp, #16
 1125              		.cfi_def_cfa_offset 32
 1126              		@ sp needed
 1127 0248 BDE87040 		pop	{r4, r5, r6, lr}
 1128              		.cfi_restore 14
 1129              		.cfi_restore 6
 1130              		.cfi_restore 5
 1131              		.cfi_restore 4
 1132              		.cfi_def_cfa_offset 16
 1133              	.LVL54:
 1134              		.loc 7 347 5 view .LVU364
 1135 024c 04B0     		add	sp, sp, #16
 1136              		.cfi_def_cfa_offset 0
 1137 024e 7047     		bx	lr
 1138              		.cfi_endproc
 1139              	.LFE4613:
 1141              		.section	.text._ZN5daisy13SSD130xDriverILj128ELj64ENS_19SSD130xI2CTransportEE6UpdateEv,"axG",%prog
 1142              		.align	1
 1143              		.p2align 2,,3
ARM GAS  /var/folders/th/s5djnwg15xxc0dk87c413f_h0000gn/T//ccXOGyQC.s 			page 45


 1144              		.weak	_ZN5daisy13SSD130xDriverILj128ELj64ENS_19SSD130xI2CTransportEE6UpdateEv
 1145              		.syntax unified
 1146              		.thumb
 1147              		.thumb_func
 1149              	_ZN5daisy13SSD130xDriverILj128ELj64ENS_19SSD130xI2CTransportEE6UpdateEv:
 1150              	.LVL55:
 1151              	.LFB4615:
 348:../../libDaisy/src/dev/oled_ssd130x.h **** 
 349:../../libDaisy/src/dev/oled_ssd130x.h ****     size_t Width() const { return width; };
 350:../../libDaisy/src/dev/oled_ssd130x.h ****     size_t Height() const { return height; };
 351:../../libDaisy/src/dev/oled_ssd130x.h **** 
 352:../../libDaisy/src/dev/oled_ssd130x.h ****     void DrawPixel(uint_fast8_t x, uint_fast8_t y, bool on)
 353:../../libDaisy/src/dev/oled_ssd130x.h ****     {
 354:../../libDaisy/src/dev/oled_ssd130x.h ****         if(x >= width || y >= height)
 355:../../libDaisy/src/dev/oled_ssd130x.h ****             return;
 356:../../libDaisy/src/dev/oled_ssd130x.h ****         if(on)
 357:../../libDaisy/src/dev/oled_ssd130x.h ****             buffer_[x + (y / 8) * width] |= (1 << (y % 8));
 358:../../libDaisy/src/dev/oled_ssd130x.h ****         else
 359:../../libDaisy/src/dev/oled_ssd130x.h ****             buffer_[x + (y / 8) * width] &= ~(1 << (y % 8));
 360:../../libDaisy/src/dev/oled_ssd130x.h ****     }
 361:../../libDaisy/src/dev/oled_ssd130x.h **** 
 362:../../libDaisy/src/dev/oled_ssd130x.h ****     void Fill(bool on)
 363:../../libDaisy/src/dev/oled_ssd130x.h ****     {
 364:../../libDaisy/src/dev/oled_ssd130x.h ****         for(size_t i = 0; i < sizeof(buffer_); i++)
 365:../../libDaisy/src/dev/oled_ssd130x.h ****         {
 366:../../libDaisy/src/dev/oled_ssd130x.h ****             buffer_[i] = on ? 0xff : 0x00;
 367:../../libDaisy/src/dev/oled_ssd130x.h ****         }
 368:../../libDaisy/src/dev/oled_ssd130x.h ****     };
 369:../../libDaisy/src/dev/oled_ssd130x.h **** 
 370:../../libDaisy/src/dev/oled_ssd130x.h ****     /**
 371:../../libDaisy/src/dev/oled_ssd130x.h ****      * Update the display 
 372:../../libDaisy/src/dev/oled_ssd130x.h ****     */
 373:../../libDaisy/src/dev/oled_ssd130x.h ****     void Update()
 1152              		.loc 7 373 10 is_stmt 1 view -0
 1153              		.cfi_startproc
 1154              		@ args = 0, pretend = 0, frame = 8
 1155              		@ frame_needed = 0, uses_anonymous_args = 0
 374:../../libDaisy/src/dev/oled_ssd130x.h ****     {
 375:../../libDaisy/src/dev/oled_ssd130x.h ****         uint8_t i;
 376:../../libDaisy/src/dev/oled_ssd130x.h ****         uint8_t high_column_addr;
 377:../../libDaisy/src/dev/oled_ssd130x.h ****         switch(height)
 378:../../libDaisy/src/dev/oled_ssd130x.h ****         {
 379:../../libDaisy/src/dev/oled_ssd130x.h ****             case 32: high_column_addr = 0x12; break;
 380:../../libDaisy/src/dev/oled_ssd130x.h **** 
 381:../../libDaisy/src/dev/oled_ssd130x.h ****             default: high_column_addr = 0x10; break;
 382:../../libDaisy/src/dev/oled_ssd130x.h ****         }
 383:../../libDaisy/src/dev/oled_ssd130x.h ****         for(i = 0; i < (height / 8); i++)
 1156              		.loc 7 383 22 view .LVU366
 373:../../libDaisy/src/dev/oled_ssd130x.h ****     {
 1157              		.loc 7 373 10 is_stmt 0 view .LVU367
 1158 0000 2DE9F047 		push	{r4, r5, r6, r7, r8, r9, r10, lr}
 1159              		.cfi_def_cfa_offset 32
 1160              		.cfi_offset 4, -32
 1161              		.cfi_offset 5, -28
 1162              		.cfi_offset 6, -24
 1163              		.cfi_offset 7, -20
 1164              		.cfi_offset 8, -16
ARM GAS  /var/folders/th/s5djnwg15xxc0dk87c413f_h0000gn/T//ccXOGyQC.s 			page 46


 1165              		.cfi_offset 9, -12
 1166              		.cfi_offset 10, -8
 1167              		.cfi_offset 14, -4
 1168              	.LBB487:
 1169              	.LBB488:
  45:../../libDaisy/src/dev/oled_ssd130x.h ****     };
 1170              		.loc 7 45 30 view .LVU368
 1171 0004 4FF0B008 		mov	r8, #176
 1172              	.LBE488:
 1173              	.LBE487:
 373:../../libDaisy/src/dev/oled_ssd130x.h ****     {
 1174              		.loc 7 373 10 view .LVU369
 1175 0008 84B0     		sub	sp, sp, #16
 1176              		.cfi_def_cfa_offset 48
 373:../../libDaisy/src/dev/oled_ssd130x.h ****     {
 1177              		.loc 7 373 10 view .LVU370
 1178 000a 0546     		mov	r5, r0
 1179 000c 00F18707 		add	r7, r0, #135
 1180 0010 00F28749 		addw	r9, r0, #1159
 1181              	.LVL56:
 1182              	.L24:
 1183              	.LBB490:
 1184              	.LBI487:
  42:../../libDaisy/src/dev/oled_ssd130x.h ****     {
 1185              		.loc 7 42 10 is_stmt 1 discriminator 2 view .LVU371
 1186              	.LBB489:
  44:../../libDaisy/src/dev/oled_ssd130x.h ****         i2c_.TransmitBlocking(i2c_address_, buf, 2, 1000);
 1187              		.loc 7 44 9 discriminator 2 view .LVU372
  45:../../libDaisy/src/dev/oled_ssd130x.h ****     };
 1188              		.loc 7 45 30 is_stmt 0 discriminator 2 view .LVU373
 1189 0014 4FF47A7A 		mov	r10, #1000
  44:../../libDaisy/src/dev/oled_ssd130x.h ****         i2c_.TransmitBlocking(i2c_address_, buf, 2, 1000);
 1190              		.loc 7 44 17 discriminator 2 view .LVU374
 1191 0018 0026     		movs	r6, #0
  45:../../libDaisy/src/dev/oled_ssd130x.h ****     };
 1192              		.loc 7 45 30 discriminator 2 view .LVU375
 1193 001a 2979     		ldrb	r1, [r5, #4]	@ zero_extendqisi2
 1194 001c 0223     		movs	r3, #2
 1195 001e 03AA     		add	r2, sp, #12
 1196 0020 2846     		mov	r0, r5
 1197 0022 CDF800A0 		str	r10, [sp]
 1198 0026 A7F18004 		sub	r4, r7, #128
  44:../../libDaisy/src/dev/oled_ssd130x.h ****         i2c_.TransmitBlocking(i2c_address_, buf, 2, 1000);
 1199              		.loc 7 44 17 discriminator 2 view .LVU376
 1200 002a 8DF80C60 		strb	r6, [sp, #12]
  44:../../libDaisy/src/dev/oled_ssd130x.h ****         i2c_.TransmitBlocking(i2c_address_, buf, 2, 1000);
 1201              		.loc 7 44 36 discriminator 2 view .LVU377
 1202 002e 8DF80D80 		strb	r8, [sp, #13]
  45:../../libDaisy/src/dev/oled_ssd130x.h ****     };
 1203              		.loc 7 45 9 is_stmt 1 discriminator 2 view .LVU378
  45:../../libDaisy/src/dev/oled_ssd130x.h ****     };
 1204              		.loc 7 45 30 is_stmt 0 discriminator 2 view .LVU379
 1205 0032 FFF7FEFF 		bl	_ZN5daisy9I2CHandle16TransmitBlockingEtPhtm
 1206              	.LVL57:
  45:../../libDaisy/src/dev/oled_ssd130x.h ****     };
 1207              		.loc 7 45 30 discriminator 2 view .LVU380
 1208              	.LBE489:
ARM GAS  /var/folders/th/s5djnwg15xxc0dk87c413f_h0000gn/T//ccXOGyQC.s 			page 47


 1209              	.LBE490:
 1210              	.LBB491:
 1211              	.LBI491:
  42:../../libDaisy/src/dev/oled_ssd130x.h ****     {
 1212              		.loc 7 42 10 is_stmt 1 discriminator 2 view .LVU381
 1213              	.LBB492:
  44:../../libDaisy/src/dev/oled_ssd130x.h ****         i2c_.TransmitBlocking(i2c_address_, buf, 2, 1000);
 1214              		.loc 7 44 9 discriminator 2 view .LVU382
  45:../../libDaisy/src/dev/oled_ssd130x.h ****     };
 1215              		.loc 7 45 30 is_stmt 0 discriminator 2 view .LVU383
 1216 0036 2979     		ldrb	r1, [r5, #4]	@ zero_extendqisi2
 1217 0038 0223     		movs	r3, #2
 1218 003a 03AA     		add	r2, sp, #12
 1219 003c 2846     		mov	r0, r5
 1220 003e CDF800A0 		str	r10, [sp]
  44:../../libDaisy/src/dev/oled_ssd130x.h ****         i2c_.TransmitBlocking(i2c_address_, buf, 2, 1000);
 1221              		.loc 7 44 17 discriminator 2 view .LVU384
 1222 0042 8DF80C60 		strb	r6, [sp, #12]
  44:../../libDaisy/src/dev/oled_ssd130x.h ****         i2c_.TransmitBlocking(i2c_address_, buf, 2, 1000);
 1223              		.loc 7 44 36 discriminator 2 view .LVU385
 1224 0046 8DF80D60 		strb	r6, [sp, #13]
  45:../../libDaisy/src/dev/oled_ssd130x.h ****     };
 1225              		.loc 7 45 9 is_stmt 1 discriminator 2 view .LVU386
  45:../../libDaisy/src/dev/oled_ssd130x.h ****     };
 1226              		.loc 7 45 30 is_stmt 0 discriminator 2 view .LVU387
 1227 004a FFF7FEFF 		bl	_ZN5daisy9I2CHandle16TransmitBlockingEtPhtm
 1228              	.LVL58:
  45:../../libDaisy/src/dev/oled_ssd130x.h ****     };
 1229              		.loc 7 45 30 discriminator 2 view .LVU388
 1230              	.LBE492:
 1231              	.LBE491:
 1232              	.LBB493:
 1233              	.LBI493:
  42:../../libDaisy/src/dev/oled_ssd130x.h ****     {
 1234              		.loc 7 42 10 is_stmt 1 discriminator 2 view .LVU389
 1235              	.LBB494:
  44:../../libDaisy/src/dev/oled_ssd130x.h ****         i2c_.TransmitBlocking(i2c_address_, buf, 2, 1000);
 1236              		.loc 7 44 9 discriminator 2 view .LVU390
  44:../../libDaisy/src/dev/oled_ssd130x.h ****         i2c_.TransmitBlocking(i2c_address_, buf, 2, 1000);
 1237              		.loc 7 44 36 is_stmt 0 discriminator 2 view .LVU391
 1238 004e 4FF0100C 		mov	ip, #16
  45:../../libDaisy/src/dev/oled_ssd130x.h ****     };
 1239              		.loc 7 45 30 discriminator 2 view .LVU392
 1240 0052 2979     		ldrb	r1, [r5, #4]	@ zero_extendqisi2
 1241 0054 0223     		movs	r3, #2
 1242 0056 03AA     		add	r2, sp, #12
 1243 0058 2846     		mov	r0, r5
 1244 005a CDF800A0 		str	r10, [sp]
  44:../../libDaisy/src/dev/oled_ssd130x.h ****         i2c_.TransmitBlocking(i2c_address_, buf, 2, 1000);
 1245              		.loc 7 44 17 discriminator 2 view .LVU393
 1246 005e 8DF80C60 		strb	r6, [sp, #12]
  44:../../libDaisy/src/dev/oled_ssd130x.h ****         i2c_.TransmitBlocking(i2c_address_, buf, 2, 1000);
 1247              		.loc 7 44 36 discriminator 2 view .LVU394
 1248 0062 8DF80DC0 		strb	ip, [sp, #13]
  45:../../libDaisy/src/dev/oled_ssd130x.h ****     };
 1249              		.loc 7 45 9 is_stmt 1 discriminator 2 view .LVU395
  45:../../libDaisy/src/dev/oled_ssd130x.h ****     };
ARM GAS  /var/folders/th/s5djnwg15xxc0dk87c413f_h0000gn/T//ccXOGyQC.s 			page 48


 1250              		.loc 7 45 30 is_stmt 0 discriminator 2 view .LVU396
 1251 0066 FFF7FEFF 		bl	_ZN5daisy9I2CHandle16TransmitBlockingEtPhtm
 1252              	.LVL59:
  45:../../libDaisy/src/dev/oled_ssd130x.h ****     };
 1253              		.loc 7 45 30 discriminator 2 view .LVU397
 1254              	.LBE494:
 1255              	.LBE493:
 1256              	.LBB495:
 1257              	.LBI495:
  48:../../libDaisy/src/dev/oled_ssd130x.h ****     {
 1258              		.loc 7 48 10 is_stmt 1 discriminator 2 view .LVU398
 1259              	.LBB496:
  50:../../libDaisy/src/dev/oled_ssd130x.h ****         {
 1260              		.loc 7 50 29 discriminator 2 view .LVU399
 1261              	.L23:
 1262              	.LBB497:
  52:../../libDaisy/src/dev/oled_ssd130x.h ****             i2c_.TransmitBlocking(i2c_address_, buf, 2, 1000);
 1263              		.loc 7 52 13 view .LVU400
  53:../../libDaisy/src/dev/oled_ssd130x.h ****         }
 1264              		.loc 7 53 34 is_stmt 0 view .LVU401
 1265 006a 4FF47A76 		mov	r6, #1000
  52:../../libDaisy/src/dev/oled_ssd130x.h ****             i2c_.TransmitBlocking(i2c_address_, buf, 2, 1000);
 1266              		.loc 7 52 44 view .LVU402
 1267 006e 14F801CF 		ldrb	ip, [r4, #1]!	@ zero_extendqisi2
 1268              	.LVL60:
  52:../../libDaisy/src/dev/oled_ssd130x.h ****             i2c_.TransmitBlocking(i2c_address_, buf, 2, 1000);
 1269              		.loc 7 52 21 view .LVU403
 1270 0072 4FF0400E 		mov	lr, #64
  53:../../libDaisy/src/dev/oled_ssd130x.h ****         }
 1271              		.loc 7 53 34 view .LVU404
 1272 0076 2979     		ldrb	r1, [r5, #4]	@ zero_extendqisi2
 1273 0078 0223     		movs	r3, #2
 1274 007a 03AA     		add	r2, sp, #12
 1275 007c 2846     		mov	r0, r5
 1276 007e 0096     		str	r6, [sp]
  52:../../libDaisy/src/dev/oled_ssd130x.h ****             i2c_.TransmitBlocking(i2c_address_, buf, 2, 1000);
 1277              		.loc 7 52 21 view .LVU405
 1278 0080 8DF80CE0 		strb	lr, [sp, #12]
  52:../../libDaisy/src/dev/oled_ssd130x.h ****             i2c_.TransmitBlocking(i2c_address_, buf, 2, 1000);
 1279              		.loc 7 52 44 view .LVU406
 1280 0084 8DF80DC0 		strb	ip, [sp, #13]
  53:../../libDaisy/src/dev/oled_ssd130x.h ****         }
 1281              		.loc 7 53 13 is_stmt 1 view .LVU407
  53:../../libDaisy/src/dev/oled_ssd130x.h ****         }
 1282              		.loc 7 53 34 is_stmt 0 view .LVU408
 1283 0088 FFF7FEFF 		bl	_ZN5daisy9I2CHandle16TransmitBlockingEtPhtm
 1284              	.LVL61:
 1285              	.LBE497:
  50:../../libDaisy/src/dev/oled_ssd130x.h ****         {
 1286              		.loc 7 50 9 is_stmt 1 view .LVU409
  50:../../libDaisy/src/dev/oled_ssd130x.h ****         {
 1287              		.loc 7 50 29 view .LVU410
 1288 008c BC42     		cmp	r4, r7
 1289 008e ECD1     		bne	.L23
 1290              	.LVL62:
  50:../../libDaisy/src/dev/oled_ssd130x.h ****         {
 1291              		.loc 7 50 29 is_stmt 0 view .LVU411
ARM GAS  /var/folders/th/s5djnwg15xxc0dk87c413f_h0000gn/T//ccXOGyQC.s 			page 49


 1292              	.LBE496:
 1293              	.LBE495:
 1294              		.loc 7 383 9 is_stmt 1 discriminator 2 view .LVU412
 1295              		.loc 7 383 22 discriminator 2 view .LVU413
 1296 0090 04F18007 		add	r7, r4, #128
 1297 0094 08F10108 		add	r8, r8, #1
 1298              	.LVL63:
 1299              		.loc 7 383 22 is_stmt 0 discriminator 2 view .LVU414
 1300 0098 4F45     		cmp	r7, r9
 1301 009a 5FFA88F8 		uxtb	r8, r8
 1302 009e B9D1     		bne	.L24
 384:../../libDaisy/src/dev/oled_ssd130x.h ****         {
 385:../../libDaisy/src/dev/oled_ssd130x.h ****             transport_.SendCommand(0xB0 + i);
 386:../../libDaisy/src/dev/oled_ssd130x.h ****             transport_.SendCommand(0x00);
 387:../../libDaisy/src/dev/oled_ssd130x.h ****             transport_.SendCommand(high_column_addr);
 388:../../libDaisy/src/dev/oled_ssd130x.h ****             transport_.SendData(&buffer_[width * i], width);
 389:../../libDaisy/src/dev/oled_ssd130x.h ****         }
 390:../../libDaisy/src/dev/oled_ssd130x.h ****     };
 1303              		.loc 7 390 5 view .LVU415
 1304 00a0 04B0     		add	sp, sp, #16
 1305              		.cfi_def_cfa_offset 32
 1306              		@ sp needed
 1307 00a2 BDE8F087 		pop	{r4, r5, r6, r7, r8, r9, r10, pc}
 1308              		.loc 7 390 5 view .LVU416
 1309              		.cfi_endproc
 1310              	.LFE4615:
 1312 00a6 00BF     		.section	.rodata.main.str1.4,"aMS",%progbits,1
 1313              		.align	2
 1314              	.LC3:
 1315 0000 44697370 		.ascii	"Display initialized. This is a false message if aud"
 1315      6C617920 
 1315      696E6974 
 1315      69616C69 
 1315      7A65642E 
 1316 0033 696F2074 		.ascii	"io took more than 20 seconds to start up.\000"
 1316      6F6F6B20 
 1316      6D6F7265 
 1316      20746861 
 1316      6E203230 
 1317 005d 000000   		.align	2
 1318              	.LC4:
 1319 0060 43616C69 		.ascii	"Calibrating...\000"
 1319      62726174 
 1319      696E672E 
 1319      2E2E00
 1320 006f 00       		.align	2
 1321              	.LC5:
 1322 0070 43616C69 		.ascii	"Calibration done.\000"
 1322      62726174 
 1322      696F6E20 
 1322      646F6E65 
 1322      2E00
 1323 0082 0000     		.align	2
 1324              	.LC6:
 1325 0084 53747269 		.ascii	"Stringtone ready. kDebugStep=%d  kPlayFrequency=%d."
 1325      6E67746F 
 1325      6E652072 
ARM GAS  /var/folders/th/s5djnwg15xxc0dk87c413f_h0000gn/T//ccXOGyQC.s 			page 50


 1325      65616479 
 1325      2E206B44 
 1326 00b7 25303164 		.ascii	"%01d Hz\000"
 1326      20487A00 
 1327 00bf 00       		.align	2
 1328              	.LC7:
 1329 00c0 5B432564 		.ascii	"[C%d R%d] sel=%u ch=%u  %d.%04d (norm)  %d.%04d V  "
 1329      20522564 
 1329      5D207365 
 1329      6C3D2575 
 1329      2063683D 
 1330 00f3 6465763D 		.ascii	"dev=%c%d.%04d V\000"
 1330      25632564 
 1330      2E253034 
 1330      64205600 
 1331 0103 00       		.align	2
 1332              	.LC8:
 1333 0104 506F7369 		.ascii	"Positions: \000"
 1333      74696F6E 
 1333      733A2000 
 1334              		.align	2
 1335              	.LC9:
 1336 0110 25632564 		.ascii	"%c%d.%02d \000"
 1336      2E253032 
 1336      642000
 1337 011b 00       		.align	2
 1338              	.LC10:
 1339 011c 00       		.ascii	"\000"
 1340              		.section	.text.startup.main,"ax",%progbits
 1341              		.align	1
 1342              		.p2align 2,,3
 1343              		.global	main
 1344              		.syntax unified
 1345              		.thumb
 1346              		.thumb_func
 1348              	main:
 1349              	.LFB4527:
 331:WavPlayer.cpp **** 
 332:WavPlayer.cpp **** // ŌĢÉŌĢÉŌĢÉŌĢÉŌĢÉŌĢÉŌĢÉŌĢÉŌĢÉŌĢÉŌĢÉŌĢÉŌĢÉŌĢÉŌĢÉŌĢÉŌĢÉŌĢÉŌĢÉŌĢÉŌĢÉŌĢÉŌĢÉŌĢÉŌĢÉŌĢÉŌĢÉŌĢÉŌĢÉŌĢÉŌĢÉŌĢÉ
 333:WavPlayer.cpp **** //  Main
 334:WavPlayer.cpp **** // ŌĢÉŌĢÉŌĢÉŌĢÉŌĢÉŌĢÉŌĢÉŌĢÉŌĢÉŌĢÉŌĢÉŌĢÉŌĢÉŌĢÉŌĢÉŌĢÉŌĢÉŌĢÉŌĢÉŌĢÉŌĢÉŌĢÉŌĢÉŌĢÉŌĢÉŌĢÉŌĢÉŌĢÉŌĢÉŌĢÉŌĢÉŌĢÉ
 335:WavPlayer.cpp **** 
 336:WavPlayer.cpp **** int main()
 337:WavPlayer.cpp **** {
 1350              		.loc 6 337 1 is_stmt 1 view -0
 1351              		.cfi_startproc
 1352              		@ args = 0, pretend = 0, frame = 104
 1353              		@ frame_needed = 0, uses_anonymous_args = 0
 338:WavPlayer.cpp ****     hw.Init();
 1354              		.loc 6 338 5 view .LVU418
 337:WavPlayer.cpp ****     hw.Init();
 1355              		.loc 6 337 1 is_stmt 0 view .LVU419
 1356 0000 2DE9F04F 		push	{r4, r5, r6, r7, r8, r9, r10, fp, lr}
 1357              		.cfi_def_cfa_offset 36
 1358              		.cfi_offset 4, -36
 1359              		.cfi_offset 5, -32
 1360              		.cfi_offset 6, -28
ARM GAS  /var/folders/th/s5djnwg15xxc0dk87c413f_h0000gn/T//ccXOGyQC.s 			page 51


 1361              		.cfi_offset 7, -24
 1362              		.cfi_offset 8, -20
 1363              		.cfi_offset 9, -16
 1364              		.cfi_offset 10, -12
 1365              		.cfi_offset 11, -8
 1366              		.cfi_offset 14, -4
 1367              		.loc 6 338 12 view .LVU420
 1368 0004 0021     		movs	r1, #0
 1369 0006 CF48     		ldr	r0, .L70
 339:WavPlayer.cpp ****     hw.SetAudioBlockSize(64);
 340:WavPlayer.cpp ****     hw.StartLog(true);
 341:WavPlayer.cpp **** 
 342:WavPlayer.cpp ****     System::Delay(STARTUP_DELAY_MS); // Startup delay to allow the power supply to stabilise for th
 343:WavPlayer.cpp **** 
 344:WavPlayer.cpp ****     // ŌöĆŌöĆ Display ŌĆö I2C1, D11 (SCL), D22 (SDA), address 0x3C ŌöĆŌöĆŌöĆŌöĆŌöĆŌöĆŌöĆŌöĆŌöĆŌöĆ
 345:WavPlayer.cpp ****     //  periph and i2c_address must both be set; zero-initialised defaults
 346:WavPlayer.cpp ****     //  leave the peripheral unselected, causing Init to silently fail and
 347:WavPlayer.cpp ****     //  every subsequent Update() to block on a hardware timeout.
 348:WavPlayer.cpp ****     display_config.transport_config.i2c_config = {
 1370              		.loc 6 348 48 view .LVU421
 1371 0008 CF4E     		ldr	r6, .L70+4
 1372              	.LBB583:
 349:WavPlayer.cpp ****         .pin_config = {
 350:WavPlayer.cpp ****             .scl = seed::D11, // I2C1 device SCL pin
 351:WavPlayer.cpp ****             .sda = seed::D12, // I2C1 device SDA pin
 352:WavPlayer.cpp ****         },
 353:WavPlayer.cpp ****         .speed = I2CHandle::Config::Speed::I2C_400KHZ, // Should support up to 400kHz
 354:WavPlayer.cpp ****     };
 355:WavPlayer.cpp ****     display_config.transport_config.i2c_address = 0x3C; // 0x3C and 0x3D are the most common addres
 356:WavPlayer.cpp ****                                                         // Could probe the pin to check?
 357:WavPlayer.cpp **** 
 358:WavPlayer.cpp ****     // Display initialization
 359:WavPlayer.cpp ****     display.Init(display_config);
 360:WavPlayer.cpp ****     // Probe the display with a fill+update to confirm the bus is alive.
 361:WavPlayer.cpp ****     // If this hangs (ie, the 27 second startup delay), the peripheral, address, or pull-up resisto
 362:WavPlayer.cpp ****     display.Fill(false);
 363:WavPlayer.cpp ****     display.Update();
 364:WavPlayer.cpp ****     hw.PrintLine("Display initialized. This is a false message if audio took more than 20 seconds t
 365:WavPlayer.cpp **** 
 366:WavPlayer.cpp ****     size_t DISPLAY_WIDTH = display.Width(); // Get display width in case a different dim display is
 367:WavPlayer.cpp ****     size_t DISPLAY_HEIGHT = display.Height(); // Get display height in case a different dim display
 368:WavPlayer.cpp **** 
 369:WavPlayer.cpp ****     // ŌöĆŌöĆ GPIO: selector mux ŌĆö S0ŌåÆD17, S1ŌåÆD16, S2ŌåÆD15 ŌöĆŌöĆŌöĆŌöĆŌöĆŌöĆŌöĆŌöĆŌöĆŌöĆŌöĆ
 370:WavPlayer.cpp ****     static const Pin kSelPins[3] = { seed::D17, seed::D16, seed::D15 };
 371:WavPlayer.cpp ****     for (int i = 0; i < 3; i++)
 1373              		.loc 6 371 14 view .LVU422
 1374 000a 0027     		movs	r7, #0
 1375              	.LBE583:
 348:WavPlayer.cpp ****         .pin_config = {
 1376              		.loc 6 348 48 view .LVU423
 1377 000c CF4D     		ldr	r5, .L70+8
 1378 000e 3446     		mov	r4, r6
 1379 0010 DFF87083 		ldr	r8, .L70+64
 1380 0014 DFF8AC93 		ldr	r9, .L70+128
 337:WavPlayer.cpp ****     hw.Init();
 1381              		.loc 6 337 1 view .LVU424
 1382 0018 2DED028B 		vpush.64	{d8}
ARM GAS  /var/folders/th/s5djnwg15xxc0dk87c413f_h0000gn/T//ccXOGyQC.s 			page 52


 1383              		.cfi_def_cfa_offset 44
 1384              		.cfi_offset 80, -44
 1385              		.cfi_offset 81, -40
 1386 001c A3B0     		sub	sp, sp, #140
 1387              		.cfi_def_cfa_offset 184
 338:WavPlayer.cpp ****     hw.SetAudioBlockSize(64);
 1388              		.loc 6 338 12 view .LVU425
 1389 001e FFF7FEFF 		bl	_ZN5daisy9DaisySeed4InitEb
 1390              	.LVL64:
 339:WavPlayer.cpp ****     hw.StartLog(true);
 1391              		.loc 6 339 5 is_stmt 1 view .LVU426
 339:WavPlayer.cpp ****     hw.StartLog(true);
 1392              		.loc 6 339 25 is_stmt 0 view .LVU427
 1393 0022 4021     		movs	r1, #64
 1394 0024 C748     		ldr	r0, .L70
 1395 0026 FFF7FEFF 		bl	_ZN5daisy9DaisySeed17SetAudioBlockSizeEj
 1396              	.LVL65:
 340:WavPlayer.cpp **** 
 1397              		.loc 6 340 5 is_stmt 1 view .LVU428
 1398              	.LBB584:
 1399              	.LBI584:
  23:../../libDaisy/src/daisy_seed.h **** 
  24:../../libDaisy/src/daisy_seed.h ****     /** This function used to provide a pre-initialization configuraiton 
  25:../../libDaisy/src/daisy_seed.h ****      *  it has since been deprecated, and does nothing.
  26:../../libDaisy/src/daisy_seed.h ****      */
  27:../../libDaisy/src/daisy_seed.h ****     void Configure();
  28:../../libDaisy/src/daisy_seed.h **** 
  29:../../libDaisy/src/daisy_seed.h ****     /** 
  30:../../libDaisy/src/daisy_seed.h ****     Initializes the Daisy Seed and the following peripherals:
  31:../../libDaisy/src/daisy_seed.h ****     SDRAM, QSPI, 24-bit 48kHz Audio via AK4556, Internal USB,
  32:../../libDaisy/src/daisy_seed.h ****     as well as the built-in LED and Testpoint.
  33:../../libDaisy/src/daisy_seed.h **** 
  34:../../libDaisy/src/daisy_seed.h ****     ADCs, DACs, and other special peripherals (such as I2C, SPI, etc.)
  35:../../libDaisy/src/daisy_seed.h ****     can be initialized using their specific initializers within libdaisy
  36:../../libDaisy/src/daisy_seed.h ****     for a specific application.
  37:../../libDaisy/src/daisy_seed.h ****     */
  38:../../libDaisy/src/daisy_seed.h ****     void Init(bool boost = false);
  39:../../libDaisy/src/daisy_seed.h **** 
  40:../../libDaisy/src/daisy_seed.h ****     /** 
  41:../../libDaisy/src/daisy_seed.h ****     Deinitializes all peripherals automatically handled by `Init`.
  42:../../libDaisy/src/daisy_seed.h ****     */
  43:../../libDaisy/src/daisy_seed.h ****     void DeInit();
  44:../../libDaisy/src/daisy_seed.h **** 
  45:../../libDaisy/src/daisy_seed.h ****     /** 
  46:../../libDaisy/src/daisy_seed.h ****     Wait some ms before going on.
  47:../../libDaisy/src/daisy_seed.h ****     \param del Delay time in ms.
  48:../../libDaisy/src/daisy_seed.h ****     */
  49:../../libDaisy/src/daisy_seed.h ****     void DelayMs(size_t del);
  50:../../libDaisy/src/daisy_seed.h **** 
  51:../../libDaisy/src/daisy_seed.h ****     /** 
  52:../../libDaisy/src/daisy_seed.h ****     Returns the gpio_pin corresponding to the index 0-31.
  53:../../libDaisy/src/daisy_seed.h ****     For the given GPIO on the Daisy Seed (labeled 1-32 in docs).
  54:../../libDaisy/src/daisy_seed.h ****     */
  55:../../libDaisy/src/daisy_seed.h ****     static dsy_gpio_pin GetPin(uint8_t pin_idx);
  56:../../libDaisy/src/daisy_seed.h **** 
  57:../../libDaisy/src/daisy_seed.h ****     /** Begins the audio for the seeds builtin audio.
  58:../../libDaisy/src/daisy_seed.h ****     the specified callback will get called whenever
ARM GAS  /var/folders/th/s5djnwg15xxc0dk87c413f_h0000gn/T//ccXOGyQC.s 			page 53


  59:../../libDaisy/src/daisy_seed.h ****     new data is ready to be prepared.
  60:../../libDaisy/src/daisy_seed.h ****     */
  61:../../libDaisy/src/daisy_seed.h ****     void StartAudio(AudioHandle::InterleavingAudioCallback cb);
  62:../../libDaisy/src/daisy_seed.h **** 
  63:../../libDaisy/src/daisy_seed.h ****     /** Begins the audio for the seeds builtin audio.
  64:../../libDaisy/src/daisy_seed.h ****     the specified callback will get called whenever
  65:../../libDaisy/src/daisy_seed.h ****     new data is ready to be prepared.
  66:../../libDaisy/src/daisy_seed.h ****     This will use the newer non-interleaved callback.
  67:../../libDaisy/src/daisy_seed.h ****     */
  68:../../libDaisy/src/daisy_seed.h ****     void StartAudio(AudioHandle::AudioCallback cb);
  69:../../libDaisy/src/daisy_seed.h **** 
  70:../../libDaisy/src/daisy_seed.h ****     /** Changes to a new interleaved callback
  71:../../libDaisy/src/daisy_seed.h ****      */
  72:../../libDaisy/src/daisy_seed.h ****     void ChangeAudioCallback(AudioHandle::InterleavingAudioCallback cb);
  73:../../libDaisy/src/daisy_seed.h **** 
  74:../../libDaisy/src/daisy_seed.h ****     /** Changes to a new multichannel callback
  75:../../libDaisy/src/daisy_seed.h ****      */
  76:../../libDaisy/src/daisy_seed.h ****     void ChangeAudioCallback(AudioHandle::AudioCallback cb);
  77:../../libDaisy/src/daisy_seed.h **** 
  78:../../libDaisy/src/daisy_seed.h ****     /** Stops the audio if it is running. */
  79:../../libDaisy/src/daisy_seed.h ****     void StopAudio();
  80:../../libDaisy/src/daisy_seed.h **** 
  81:../../libDaisy/src/daisy_seed.h ****     /** Updates the Audio Sample Rate, and reinitializes.
  82:../../libDaisy/src/daisy_seed.h ****      ** Audio must be stopped for this to work.
  83:../../libDaisy/src/daisy_seed.h ****      */
  84:../../libDaisy/src/daisy_seed.h ****     void SetAudioSampleRate(SaiHandle::Config::SampleRate samplerate);
  85:../../libDaisy/src/daisy_seed.h **** 
  86:../../libDaisy/src/daisy_seed.h ****     /** Returns the audio sample rate in Hz as a floating point number.
  87:../../libDaisy/src/daisy_seed.h ****      */
  88:../../libDaisy/src/daisy_seed.h ****     float AudioSampleRate();
  89:../../libDaisy/src/daisy_seed.h **** 
  90:../../libDaisy/src/daisy_seed.h ****     /** Sets the number of samples processed per channel by the audio callback.
  91:../../libDaisy/src/daisy_seed.h ****      */
  92:../../libDaisy/src/daisy_seed.h ****     void SetAudioBlockSize(size_t blocksize);
  93:../../libDaisy/src/daisy_seed.h **** 
  94:../../libDaisy/src/daisy_seed.h ****     /** Returns the number of samples per channel in a block of audio. */
  95:../../libDaisy/src/daisy_seed.h ****     size_t AudioBlockSize();
  96:../../libDaisy/src/daisy_seed.h **** 
  97:../../libDaisy/src/daisy_seed.h ****     /** Returns the rate in Hz that the Audio callback is called */
  98:../../libDaisy/src/daisy_seed.h ****     float AudioCallbackRate() const;
  99:../../libDaisy/src/daisy_seed.h **** 
 100:../../libDaisy/src/daisy_seed.h ****     /** Returns the SAI Handle for the Daisy Seed 
 101:../../libDaisy/src/daisy_seed.h ****      *  This can be useful when adding a secondary codec,
 102:../../libDaisy/src/daisy_seed.h ****      *  the result of this function can be passed to the audio reinit 
 103:../../libDaisy/src/daisy_seed.h ****      *  with an SAI2 configuration
 104:../../libDaisy/src/daisy_seed.h ****      */
 105:../../libDaisy/src/daisy_seed.h ****     const SaiHandle& AudioSaiHandle() const;
 106:../../libDaisy/src/daisy_seed.h **** 
 107:../../libDaisy/src/daisy_seed.h ****     /** Sets the state of the built in LED
 108:../../libDaisy/src/daisy_seed.h ****      */
 109:../../libDaisy/src/daisy_seed.h ****     void SetLed(bool state);
 110:../../libDaisy/src/daisy_seed.h **** 
 111:../../libDaisy/src/daisy_seed.h ****     /** Sets the state of the test point near pin 10
 112:../../libDaisy/src/daisy_seed.h ****      */
 113:../../libDaisy/src/daisy_seed.h ****     void SetTestPoint(bool state);
 114:../../libDaisy/src/daisy_seed.h **** 
 115:../../libDaisy/src/daisy_seed.h ****     /** Print formatted debug log message
ARM GAS  /var/folders/th/s5djnwg15xxc0dk87c413f_h0000gn/T//ccXOGyQC.s 			page 54


 116:../../libDaisy/src/daisy_seed.h ****      */
 117:../../libDaisy/src/daisy_seed.h ****     template <typename... VA>
 118:../../libDaisy/src/daisy_seed.h ****     static void Print(const char* format, VA... va)
 119:../../libDaisy/src/daisy_seed.h ****     {
 120:../../libDaisy/src/daisy_seed.h ****         Log::Print(format, va...);
 121:../../libDaisy/src/daisy_seed.h ****     }
 122:../../libDaisy/src/daisy_seed.h **** 
 123:../../libDaisy/src/daisy_seed.h ****     /** Print formatted debug log message with automatic line termination
 124:../../libDaisy/src/daisy_seed.h ****     */
 125:../../libDaisy/src/daisy_seed.h ****     template <typename... VA>
 126:../../libDaisy/src/daisy_seed.h ****     static void PrintLine(const char* format, VA... va)
 127:../../libDaisy/src/daisy_seed.h ****     {
 128:../../libDaisy/src/daisy_seed.h ****         Log::PrintLine(format, va...);
 129:../../libDaisy/src/daisy_seed.h ****     }
 130:../../libDaisy/src/daisy_seed.h **** 
 131:../../libDaisy/src/daisy_seed.h ****     /** Start the logging session. Optionally wait for terminal connection before proceeding.
 132:../../libDaisy/src/daisy_seed.h ****     */
 133:../../libDaisy/src/daisy_seed.h ****     static void StartLog(bool wait_for_pc = false)
 1400              		.loc 1 133 17 view .LVU429
 1401              	.LBB585:
 134:../../libDaisy/src/daisy_seed.h ****     {
 135:../../libDaisy/src/daisy_seed.h ****         Log::StartLog(wait_for_pc);
 1402              		.loc 1 135 9 view .LVU430
 1403              		.loc 1 135 22 is_stmt 0 view .LVU431
 1404 002a 0120     		movs	r0, #1
 1405 002c FFF7FEFF 		bl	_ZN5daisy6LoggerILNS_17LoggerDestinationE1EE8StartLogEb
 1406              	.LVL66:
 1407              		.loc 1 135 22 view .LVU432
 1408              	.LBE585:
 1409              	.LBE584:
 342:WavPlayer.cpp **** 
 1410              		.loc 6 342 5 is_stmt 1 view .LVU433
 342:WavPlayer.cpp **** 
 1411              		.loc 6 342 18 is_stmt 0 view .LVU434
 1412 0030 4FF47A70 		mov	r0, #1000
 1413 0034 FFF7FEFF 		bl	_ZN5daisy6System5DelayEm
 1414              	.LVL67:
 348:WavPlayer.cpp ****         .pin_config = {
 1415              		.loc 6 348 5 is_stmt 1 view .LVU435
 355:WavPlayer.cpp ****                                                         // Could probe the pin to check?
 1416              		.loc 6 355 49 is_stmt 0 view .LVU436
 1417 0038 3C23     		movs	r3, #60
 359:WavPlayer.cpp ****     // Probe the display with a fill+update to confirm the bus is alive.
 1418              		.loc 6 359 17 view .LVU437
 1419 003a 06F10C0C 		add	ip, r6, #12
 355:WavPlayer.cpp ****                                                         // Could probe the pin to check?
 1420              		.loc 6 355 49 view .LVU438
 1421 003e 3375     		strb	r3, [r6, #20]
 348:WavPlayer.cpp ****         .pin_config = {
 1422              		.loc 6 348 48 view .LVU439
 1423 0040 0FCD     		ldmia	r5!, {r0, r1, r2, r3}
 1424 0042 0FC4     		stmia	r4!, {r0, r1, r2, r3}
 1425 0044 2B68     		ldr	r3, [r5]
 1426 0046 2360     		str	r3, [r4]
 355:WavPlayer.cpp ****                                                         // Could probe the pin to check?
 1427              		.loc 6 355 5 is_stmt 1 view .LVU440
 359:WavPlayer.cpp ****     // Probe the display with a fill+update to confirm the bus is alive.
ARM GAS  /var/folders/th/s5djnwg15xxc0dk87c413f_h0000gn/T//ccXOGyQC.s 			page 55


 1428              		.loc 6 359 5 view .LVU441
 359:WavPlayer.cpp ****     // Probe the display with a fill+update to confirm the bus is alive.
 1429              		.loc 6 359 17 is_stmt 0 view .LVU442
 1430 0048 9CE80700 		ldm	ip, {r0, r1, r2}
 1431 004c 8DE80700 		stm	sp, {r0, r1, r2}
 1432 0050 BF48     		ldr	r0, .L70+12
 1433 0052 96E80E00 		ldm	r6, {r1, r2, r3}
 1434 0056 FFF7FEFF 		bl	_ZN5daisy13SSD130xDriverILj128ELj64ENS_19SSD130xI2CTransportEE4InitENS2_6ConfigE
 1435              	.LVL68:
 362:WavPlayer.cpp ****     display.Update();
 1436              		.loc 6 362 5 is_stmt 1 view .LVU443
 1437              	.LBB586:
 1438              	.LBI586:
 362:../../libDaisy/src/dev/oled_ssd130x.h ****     {
 1439              		.loc 7 362 10 view .LVU444
 1440              	.LBB587:
 364:../../libDaisy/src/dev/oled_ssd130x.h ****         {
 1441              		.loc 7 364 29 view .LVU445
 366:../../libDaisy/src/dev/oled_ssd130x.h ****         }
 1442              		.loc 7 366 24 is_stmt 0 view .LVU446
 1443 005a 4FF48062 		mov	r2, #1024
 1444 005e 3946     		mov	r1, r7
 1445 0060 BC48     		ldr	r0, .L70+16
 1446 0062 FFF7FEFF 		bl	memset
 1447              	.LVL69:
 366:../../libDaisy/src/dev/oled_ssd130x.h ****         }
 1448              		.loc 7 366 24 view .LVU447
 1449              	.LBE587:
 1450              	.LBE586:
 363:WavPlayer.cpp ****     hw.PrintLine("Display initialized. This is a false message if audio took more than 20 seconds t
 1451              		.loc 6 363 5 is_stmt 1 view .LVU448
 363:WavPlayer.cpp ****     hw.PrintLine("Display initialized. This is a false message if audio took more than 20 seconds t
 1452              		.loc 6 363 19 is_stmt 0 view .LVU449
 1453 0066 BA48     		ldr	r0, .L70+12
 1454 0068 FFF7FEFF 		bl	_ZN5daisy13SSD130xDriverILj128ELj64ENS_19SSD130xI2CTransportEE6UpdateEv
 1455              	.LVL70:
 364:WavPlayer.cpp **** 
 1456              		.loc 6 364 5 is_stmt 1 view .LVU450
 1457              	.LBB588:
 1458              	.LBI588:
 126:../../libDaisy/src/daisy_seed.h ****     {
 1459              		.loc 1 126 17 view .LVU451
 1460              	.LBB589:
 128:../../libDaisy/src/daisy_seed.h ****     }
 1461              		.loc 1 128 23 is_stmt 0 view .LVU452
 1462 006c BA48     		ldr	r0, .L70+20
 1463 006e FFF7FEFF 		bl	_ZN5daisy6LoggerILNS_17LoggerDestinationE1EE9PrintLineEPKcz
 1464              	.LVL71:
 128:../../libDaisy/src/daisy_seed.h ****     }
 1465              		.loc 1 128 23 view .LVU453
 1466              	.LBE589:
 1467              	.LBE588:
 366:WavPlayer.cpp ****     size_t DISPLAY_HEIGHT = display.Height(); // Get display height in case a different dim display
 1468              		.loc 6 366 5 is_stmt 1 view .LVU454
 367:WavPlayer.cpp **** 
 1469              		.loc 6 367 5 view .LVU455
 370:WavPlayer.cpp ****     for (int i = 0; i < 3; i++)
ARM GAS  /var/folders/th/s5djnwg15xxc0dk87c413f_h0000gn/T//ccXOGyQC.s 			page 56


 1470              		.loc 6 370 5 view .LVU456
 1471              		.loc 6 371 5 view .LVU457
 1472              	.LBB590:
 1473              		.loc 6 371 23 view .LVU458
 1474              	.L29:
 372:WavPlayer.cpp ****         sel_gpio[i].Init(kSelPins[i], GPIO::Mode::OUTPUT);
 1475              		.loc 6 372 9 discriminator 2 view .LVU459
 1476              		.loc 6 372 25 is_stmt 0 discriminator 2 view .LVU460
 1477 0072 0024     		movs	r4, #0
 1478 0074 39F81710 		ldrh	r1, [r9, r7, lsl #1]
 371:WavPlayer.cpp ****         sel_gpio[i].Init(kSelPins[i], GPIO::Mode::OUTPUT);
 1479              		.loc 6 371 5 discriminator 2 view .LVU461
 1480 0078 0137     		adds	r7, r7, #1
 1481              	.LVL72:
 1482              		.loc 6 372 25 discriminator 2 view .LVU462
 1483 007a 4046     		mov	r0, r8
 1484 007c 2346     		mov	r3, r4
 1485 007e 0122     		movs	r2, #1
 1486 0080 0094     		str	r4, [sp]
 371:WavPlayer.cpp ****         sel_gpio[i].Init(kSelPins[i], GPIO::Mode::OUTPUT);
 1487              		.loc 6 371 23 discriminator 2 view .LVU463
 1488 0082 08F11408 		add	r8, r8, #20
 1489              		.loc 6 372 25 discriminator 2 view .LVU464
 1490 0086 FFF7FEFF 		bl	_ZN5daisy4GPIO4InitENS_3PinENS0_4ModeENS0_4PullENS0_5SpeedE
 1491              	.LVL73:
 371:WavPlayer.cpp ****         sel_gpio[i].Init(kSelPins[i], GPIO::Mode::OUTPUT);
 1492              		.loc 6 371 5 is_stmt 1 discriminator 2 view .LVU465
 371:WavPlayer.cpp ****         sel_gpio[i].Init(kSelPins[i], GPIO::Mode::OUTPUT);
 1493              		.loc 6 371 23 discriminator 2 view .LVU466
 1494 008a 032F     		cmp	r7, #3
 1495 008c F1D1     		bne	.L29
 1496 008e B34E     		ldr	r6, .L70+24
 1497 0090 B34F     		ldr	r7, .L70+28
 1498              	.LVL74:
 1499              	.L30:
 371:WavPlayer.cpp ****         sel_gpio[i].Init(kSelPins[i], GPIO::Mode::OUTPUT);
 1500              		.loc 6 371 23 is_stmt 0 discriminator 2 view .LVU467
 1501              	.LBE590:
 1502              	.LBB591:
 373:WavPlayer.cpp **** 
 374:WavPlayer.cpp ****     // ŌöĆŌöĆ GPIO: channel muxes ŌĆö S0ŌåÆD20, S1ŌåÆD19, S2ŌåÆD18 ŌöĆŌöĆŌöĆŌöĆŌöĆŌöĆŌöĆŌöĆŌöĆŌöĆŌö
 375:WavPlayer.cpp ****     static const Pin kChPins[3] = { seed::D20, seed::D19, seed::D18 };
 376:WavPlayer.cpp ****     for (int i = 0; i < 3; i++)
 377:WavPlayer.cpp ****         ch_gpio[i].Init(kChPins[i], GPIO::Mode::OUTPUT);
 1503              		.loc 6 377 9 is_stmt 1 discriminator 2 view .LVU468
 1504              		.loc 6 377 24 is_stmt 0 discriminator 2 view .LVU469
 1505 0092 0025     		movs	r5, #0
 1506 0094 37F81410 		ldrh	r1, [r7, r4, lsl #1]
 376:WavPlayer.cpp ****         ch_gpio[i].Init(kChPins[i], GPIO::Mode::OUTPUT);
 1507              		.loc 6 376 5 discriminator 2 view .LVU470
 1508 0098 0134     		adds	r4, r4, #1
 1509              	.LVL75:
 1510              		.loc 6 377 24 discriminator 2 view .LVU471
 1511 009a 3046     		mov	r0, r6
 1512 009c 2B46     		mov	r3, r5
 1513 009e 0122     		movs	r2, #1
 1514 00a0 0095     		str	r5, [sp]
ARM GAS  /var/folders/th/s5djnwg15xxc0dk87c413f_h0000gn/T//ccXOGyQC.s 			page 57


 376:WavPlayer.cpp ****         ch_gpio[i].Init(kChPins[i], GPIO::Mode::OUTPUT);
 1515              		.loc 6 376 23 discriminator 2 view .LVU472
 1516 00a2 1436     		adds	r6, r6, #20
 1517              		.loc 6 377 24 discriminator 2 view .LVU473
 1518 00a4 FFF7FEFF 		bl	_ZN5daisy4GPIO4InitENS_3PinENS0_4ModeENS0_4PullENS0_5SpeedE
 1519              	.LVL76:
 376:WavPlayer.cpp ****         ch_gpio[i].Init(kChPins[i], GPIO::Mode::OUTPUT);
 1520              		.loc 6 376 5 is_stmt 1 discriminator 2 view .LVU474
 376:WavPlayer.cpp ****         ch_gpio[i].Init(kChPins[i], GPIO::Mode::OUTPUT);
 1521              		.loc 6 376 23 discriminator 2 view .LVU475
 1522 00a8 032C     		cmp	r4, #3
 1523 00aa F2D1     		bne	.L30
 1524              	.LBE591:
 378:WavPlayer.cpp **** 
 379:WavPlayer.cpp ****     // ŌöĆŌöĆ GPIO: debug parameter pins (D24..D31) ŌöĆŌöĆŌöĆŌöĆŌöĆŌöĆŌöĆŌöĆŌöĆŌöĆŌöĆŌöĆŌöĆŌöĆŌöĆŌö
 380:WavPlayer.cpp ****     if (kDebugParams) { // RESERVED FOR FUTURE USE TO TUNE PARAMETERS WITH POTS
 1525              		.loc 6 380 5 view .LVU476
 381:WavPlayer.cpp ****         static const Pin kNoiseFloorPin = seed::A9;
 382:WavPlayer.cpp ****         static const Pin kPosDeadPin    = seed::A10;
 383:WavPlayer.cpp ****         static const Pin kSmoothPin     = seed::A11;
 384:WavPlayer.cpp ****         static const Pin kScanDelayPin  = seed::A12;
 385:WavPlayer.cpp **** 
 386:WavPlayer.cpp ****         noise_floor_gpio.Init(kNoiseFloorPin, GPIO::Mode::INPUT);
 387:WavPlayer.cpp ****         pos_dead_gpio.Init(kPosDeadPin,       GPIO::Mode::INPUT);
 388:WavPlayer.cpp ****         smooth_gpio.Init(kSmoothPin,          GPIO::Mode::INPUT);
 389:WavPlayer.cpp ****         scan_delay_gpio.Init(kScanDelayPin,   GPIO::Mode::INPUT);
 390:WavPlayer.cpp ****     }
 391:WavPlayer.cpp **** 
 392:WavPlayer.cpp ****     // ŌöĆŌöĆ ADC: single channel on A8 ŌöĆŌöĆŌöĆŌöĆŌöĆŌöĆŌöĆŌöĆŌöĆŌöĆŌöĆŌöĆŌöĆŌöĆŌöĆŌöĆŌöĆŌöĆŌöĆŌö
 393:WavPlayer.cpp ****     AdcChannelConfig adc_cfg;
 1526              		.loc 6 393 5 view .LVU477
 394:WavPlayer.cpp ****     adc_cfg.InitSingle(seed::A8);
 1527              		.loc 6 394 5 view .LVU478
 1528              		.loc 6 394 23 is_stmt 0 view .LVU479
 1529 00ac 0424     		movs	r4, #4
 1530              	.LVL77:
 1531              		.loc 6 394 23 view .LVU480
 1532 00ae 8DF83050 		strb	r5, [sp, #48]
 1533 00b2 0222     		movs	r2, #2
 1534 00b4 0DA8     		add	r0, sp, #52
 1535 00b6 8DF83140 		strb	r4, [sp, #49]
 1536 00ba 0C99     		ldr	r1, [sp, #48]
 1537 00bc FFF7FEFF 		bl	_ZN5daisy16AdcChannelConfig10InitSingleE12dsy_gpio_pinNS0_15ConversionSpeedE
 1538              	.LVL78:
 395:WavPlayer.cpp ****     hw.adc.Init(&adc_cfg, 1);
 1539              		.loc 6 395 5 is_stmt 1 view .LVU481
 1540              		.loc 6 395 16 is_stmt 0 view .LVU482
 1541 00c0 2346     		mov	r3, r4
 1542 00c2 0122     		movs	r2, #1
 1543 00c4 0DA9     		add	r1, sp, #52
 1544 00c6 A748     		ldr	r0, .L70+32
 1545 00c8 FFF7FEFF 		bl	_ZN5daisy9AdcHandle4InitEPNS_16AdcChannelConfigEjNS0_12OverSamplingE
 1546              	.LVL79:
 396:WavPlayer.cpp ****     hw.adc.Start();
 1547              		.loc 6 396 5 is_stmt 1 view .LVU483
 1548              		.loc 6 396 17 is_stmt 0 view .LVU484
 1549 00cc A548     		ldr	r0, .L70+32
ARM GAS  /var/folders/th/s5djnwg15xxc0dk87c413f_h0000gn/T//ccXOGyQC.s 			page 58


 1550 00ce FFF7FEFF 		bl	_ZN5daisy9AdcHandle5StartEv
 1551              	.LVL80:
 397:WavPlayer.cpp **** 
 398:WavPlayer.cpp ****     // ŌöĆŌöĆ Initialise sofware state ŌĆö all columns start at ZERO_ROW ŌåÆ amplitude = 0
 399:WavPlayer.cpp ****     for (int c = 0; c < NUM_COLS; c++) {
 1552              		.loc 6 399 5 is_stmt 1 view .LVU485
 1553              	.LBB592:
 1554              		.loc 6 399 23 view .LVU486
 1555              	.LBE592:
 396:WavPlayer.cpp ****     hw.adc.Start();
 1556              		.loc 6 396 17 is_stmt 0 view .LVU487
 1557 00d2 A54A     		ldr	r2, .L70+36
 1558 00d4 A54B     		ldr	r3, .L70+40
 1559              	.LVL81:
 1560              	.L31:
 1561              	.LBB599:
 1562              	.LBB593:
 400:WavPlayer.cpp ****         col_pos[c]        = ZERO_ROW;
 1563              		.loc 6 400 9 is_stmt 1 view .LVU488
 1564              		.loc 6 400 27 is_stmt 0 view .LVU489
 1565 00d6 A649     		ldr	r1, .L70+44
 1566 00d8 43F8041B 		str	r1, [r3], #4	@ float
 401:WavPlayer.cpp ****         col_pos_smooth[c] = ZERO_ROW;
 1567              		.loc 6 401 9 is_stmt 1 view .LVU490
 1568              		.loc 6 401 27 is_stmt 0 view .LVU491
 1569 00dc 42F8041B 		str	r1, [r2], #4	@ float
 402:WavPlayer.cpp ****         for (int r = 0; r < NUM_ROWS; r++)
 1570              		.loc 6 402 9 is_stmt 1 view .LVU492
 1571              	.LVL82:
 1572              	.LBB594:
 1573              		.loc 6 402 27 view .LVU493
 403:WavPlayer.cpp ****             sensor_v[c][r] = 0.0f;
 1574              		.loc 6 403 13 view .LVU494
 402:WavPlayer.cpp ****         for (int r = 0; r < NUM_ROWS; r++)
 1575              		.loc 6 402 9 view .LVU495
 402:WavPlayer.cpp ****         for (int r = 0; r < NUM_ROWS; r++)
 1576              		.loc 6 402 27 view .LVU496
 1577              	.LBE594:
 1578              	.LBE593:
 399:WavPlayer.cpp ****         col_pos[c]        = ZERO_ROW;
 1579              		.loc 6 399 5 view .LVU497
 399:WavPlayer.cpp ****         col_pos[c]        = ZERO_ROW;
 1580              		.loc 6 399 23 view .LVU498
 1581 00e0 A449     		ldr	r1, .L70+48
 1582 00e2 9942     		cmp	r1, r3
 1583 00e4 F7D1     		bne	.L31
 1584              	.LBB597:
 1585              	.LBB595:
 1586              		.loc 6 403 28 is_stmt 0 view .LVU499
 1587 00e6 4FF48072 		mov	r2, #256
 1588 00ea 0021     		movs	r1, #0
 1589 00ec A248     		ldr	r0, .L70+52
 1590              	.LBE595:
 1591              	.LBE597:
 1592              	.LBE599:
 1593              	.LBB600:
 404:WavPlayer.cpp ****     }
ARM GAS  /var/folders/th/s5djnwg15xxc0dk87c413f_h0000gn/T//ccXOGyQC.s 			page 59


 405:WavPlayer.cpp ****     std::memset(wavetable, 0, sizeof(wavetable));
 406:WavPlayer.cpp **** 
 407:WavPlayer.cpp ****     System::Delay(STARTUP_DELAY_MS); // Another delay to ensure the sensors are stabilised at their
 408:WavPlayer.cpp **** 
 409:WavPlayer.cpp ****     // ŌöĆŌöĆ Per-sensor baseline calibration ŌöĆŌöĆŌöĆŌöĆŌöĆŌöĆŌöĆŌöĆŌöĆŌöĆŌöĆŌöĆŌöĆŌöĆŌöĆŌöĆŌöĆŌö
 410:WavPlayer.cpp ****     //  Averages CAL_SAMPLES reads per sensor at power-on.
 411:WavPlayer.cpp ****     //  Ensure no magnets are near the array during this window.
 412:WavPlayer.cpp ****     //  In the future, add a button to retare the instrument wihtout needing to reboot it
 413:WavPlayer.cpp ****     hw.PrintLine("Calibrating...");
 414:WavPlayer.cpp ****     static constexpr int CAL_SAMPLES = 16;
 415:WavPlayer.cpp ****     for (int c = 0; c < NUM_COLS; c++) {
 1594              		.loc 6 415 14 view .LVU500
 1595 00ee 4FF0000A 		mov	r10, #0
 1596              	.LBE600:
 1597              	.LBB631:
 1598              	.LBB598:
 1599              	.LBB596:
 403:WavPlayer.cpp ****     }
 1600              		.loc 6 403 28 view .LVU501
 1601 00f2 FFF7FEFF 		bl	memset
 1602              	.LVL83:
 1603              	.LBE596:
 1604              	.LBE598:
 1605              	.LBE631:
 405:WavPlayer.cpp **** 
 1606              		.loc 6 405 5 is_stmt 1 view .LVU502
 405:WavPlayer.cpp **** 
 1607              		.loc 6 405 16 is_stmt 0 view .LVU503
 1608 00f6 4FF48042 		mov	r2, #16384
 1609 00fa 0021     		movs	r1, #0
 1610 00fc 9F48     		ldr	r0, .L70+56
 1611 00fe FFF7FEFF 		bl	memset
 1612              	.LVL84:
 407:WavPlayer.cpp **** 
 1613              		.loc 6 407 5 is_stmt 1 view .LVU504
 1614              	.LBB632:
 1615              	.LBB633:
 128:../../libDaisy/src/daisy_seed.h ****     }
 1616              		.loc 1 128 23 is_stmt 0 view .LVU505
 1617 0102 DFF8ACB2 		ldr	fp, .L70+108
 1618              	.LBE633:
 1619              	.LBE632:
 407:WavPlayer.cpp **** 
 1620              		.loc 6 407 18 view .LVU506
 1621 0106 4FF47A70 		mov	r0, #1000
 1622 010a FFF7FEFF 		bl	_ZN5daisy6System5DelayEm
 1623              	.LVL85:
 413:WavPlayer.cpp ****     static constexpr int CAL_SAMPLES = 16;
 1624              		.loc 6 413 5 is_stmt 1 view .LVU507
 1625              	.LBB635:
 1626              	.LBI632:
 126:../../libDaisy/src/daisy_seed.h ****     {
 1627              		.loc 1 126 17 view .LVU508
 1628              	.LBB634:
 128:../../libDaisy/src/daisy_seed.h ****     }
 1629              		.loc 1 128 23 is_stmt 0 view .LVU509
 1630 010e 9C48     		ldr	r0, .L70+60
ARM GAS  /var/folders/th/s5djnwg15xxc0dk87c413f_h0000gn/T//ccXOGyQC.s 			page 60


 1631 0110 FFF7FEFF 		bl	_ZN5daisy6LoggerILNS_17LoggerDestinationE1EE9PrintLineEPKcz
 1632              	.LVL86:
 128:../../libDaisy/src/daisy_seed.h ****     }
 1633              		.loc 1 128 23 view .LVU510
 1634              	.LBE634:
 1635              	.LBE635:
 414:WavPlayer.cpp ****     for (int c = 0; c < NUM_COLS; c++) {
 1636              		.loc 6 414 5 is_stmt 1 view .LVU511
 1637              		.loc 6 415 5 view .LVU512
 1638              	.LBB636:
 1639              		.loc 6 415 23 view .LVU513
 1640              	.L34:
 1641              	.LBB601:
 416:WavPlayer.cpp ****         for (int r = 0; r < NUM_ROWS; r++) {
 1642              		.loc 6 416 27 view .LVU514
 1643              	.LBB602:
 1644              	.LBB603:
 1645              	.LBB604:
 162:WavPlayer.cpp **** }
 1646              		.loc 6 162 41 is_stmt 0 view .LVU515
 1647 0114 1AF0010F 		tst	r10, #1
 1648              	.LBE604:
 1649              	.LBE603:
 1650              	.LBE602:
 1651              		.loc 6 416 18 view .LVU516
 1652 0118 4FF00006 		mov	r6, #0
 1653              	.LBB626:
 1654              	.LBB609:
 1655              	.LBB605:
 161:WavPlayer.cpp ****     ch  = static_cast<uint8_t>(ch_base  + (row % 4));
 1656              		.loc 6 161 45 view .LVU517
 1657 011c 0AF0FE09 		and	r9, r10, #254
 162:WavPlayer.cpp **** }
 1658              		.loc 6 162 41 view .LVU518
 1659 0120 5F46     		mov	r7, fp
 1660 0122 0CBF     		ite	eq
 1661 0124 4FF00408 		moveq	r8, #4
 1662 0128 B046     		movne	r8, r6
 1663              	.LVL87:
 1664              	.L33:
 162:WavPlayer.cpp **** }
 1665              		.loc 6 162 41 view .LVU519
 1666              	.LBE605:
 1667              	.LBE609:
 417:WavPlayer.cpp ****             uint8_t sel_addr, ch_addr;
 1668              		.loc 6 417 13 is_stmt 1 view .LVU520
 418:WavPlayer.cpp ****             GetMuxAddrs(c, r, sel_addr, ch_addr);
 1669              		.loc 6 418 13 view .LVU521
 1670              	.LBB610:
 1671              	.LBI603:
 157:WavPlayer.cpp **** {
 1672              		.loc 6 157 13 view .LVU522
 1673              	.LBB606:
 159:WavPlayer.cpp ****     const int ch_base  = (col % 2 == 0) ? 4 : 0;
 1674              		.loc 6 159 5 view .LVU523
 160:WavPlayer.cpp ****     sel = static_cast<uint8_t>(col_pair * 2 + (row >= 4 ? 1 : 0));
 1675              		.loc 6 160 5 view .LVU524
ARM GAS  /var/folders/th/s5djnwg15xxc0dk87c413f_h0000gn/T//ccXOGyQC.s 			page 61


 161:WavPlayer.cpp ****     ch  = static_cast<uint8_t>(ch_base  + (row % 4));
 1676              		.loc 6 161 5 view .LVU525
 161:WavPlayer.cpp ****     ch  = static_cast<uint8_t>(ch_base  + (row % 4));
 1677              		.loc 6 161 45 is_stmt 0 view .LVU526
 1678 012a 032E     		cmp	r6, #3
 1679 012c D4BF     		ite	le
 1680 012e 4946     		movle	r1, r9
 1681 0130 09F10101 		addgt	r1, r9, #1
 162:WavPlayer.cpp **** }
 1682              		.loc 6 162 48 view .LVU527
 1683 0134 06F00305 		and	r5, r6, #3
 1684              	.LBE606:
 1685              	.LBE610:
 1686              	.LBB611:
 1687              	.LBB612:
 145:WavPlayer.cpp ****     sel_gpio[1].Write((addr >> 1) & 1u);
 1688              		.loc 6 145 22 view .LVU528
 1689 0138 9248     		ldr	r0, .L70+64
 1690              	.LBE612:
 1691              	.LBE611:
 1692              	.LBB616:
 1693              	.LBB607:
 161:WavPlayer.cpp ****     ch  = static_cast<uint8_t>(ch_base  + (row % 4));
 1694              		.loc 6 161 45 view .LVU529
 1695 013a CCB2     		uxtb	r4, r1
 1696              	.LVL88:
 162:WavPlayer.cpp **** }
 1697              		.loc 6 162 5 is_stmt 1 view .LVU530
 1698              	.LBE607:
 1699              	.LBE616:
 1700              	.LBB617:
 1701              	.LBB613:
 145:WavPlayer.cpp ****     sel_gpio[1].Write((addr >> 1) & 1u);
 1702              		.loc 6 145 22 is_stmt 0 view .LVU531
 1703 013c 01F00101 		and	r1, r1, #1
 1704              	.LBE613:
 1705              	.LBE617:
 1706              	.LBB618:
 1707              	.LBB608:
 162:WavPlayer.cpp **** }
 1708              		.loc 6 162 41 view .LVU532
 1709 0140 4544     		add	r5, r5, r8
 1710              	.LVL89:
 162:WavPlayer.cpp **** }
 1711              		.loc 6 162 41 view .LVU533
 1712              	.LBE608:
 1713              	.LBE618:
 419:WavPlayer.cpp ****             SetSelectorAddr(sel_addr);
 1714              		.loc 6 419 13 is_stmt 1 view .LVU534
 1715              	.LBB619:
 1716              	.LBI611:
 143:WavPlayer.cpp **** {
 1717              		.loc 6 143 20 view .LVU535
 1718              	.LBB614:
 145:WavPlayer.cpp ****     sel_gpio[1].Write((addr >> 1) & 1u);
 1719              		.loc 6 145 5 view .LVU536
 145:WavPlayer.cpp ****     sel_gpio[1].Write((addr >> 1) & 1u);
ARM GAS  /var/folders/th/s5djnwg15xxc0dk87c413f_h0000gn/T//ccXOGyQC.s 			page 62


 1720              		.loc 6 145 22 is_stmt 0 view .LVU537
 1721 0142 FFF7FEFF 		bl	_ZN5daisy4GPIO5WriteEb
 1722              	.LVL90:
 146:WavPlayer.cpp ****     sel_gpio[2].Write((addr >> 2) & 1u);
 1723              		.loc 6 146 5 is_stmt 1 view .LVU538
 146:WavPlayer.cpp ****     sel_gpio[2].Write((addr >> 2) & 1u);
 1724              		.loc 6 146 22 is_stmt 0 view .LVU539
 1725 0146 C4F34001 		ubfx	r1, r4, #1, #1
 1726 014a 8F48     		ldr	r0, .L70+68
 1727 014c FFF7FEFF 		bl	_ZN5daisy4GPIO5WriteEb
 1728              	.LVL91:
 147:WavPlayer.cpp **** }
 1729              		.loc 6 147 5 is_stmt 1 view .LVU540
 147:WavPlayer.cpp **** }
 1730              		.loc 6 147 22 is_stmt 0 view .LVU541
 1731 0150 C4F38001 		ubfx	r1, r4, #2, #1
 1732 0154 8D48     		ldr	r0, .L70+72
 1733              	.LBE614:
 1734              	.LBE619:
 420:WavPlayer.cpp ****             SetChannelAddr(ch_addr);
 421:WavPlayer.cpp ****             System::DelayUs(100 * kScanDelayUs);
 1735              		.loc 6 421 28 view .LVU542
 1736 0156 1024     		movs	r4, #16
 1737              	.LVL92:
 1738              	.LBB620:
 1739              	.LBB615:
 147:WavPlayer.cpp **** }
 1740              		.loc 6 147 22 view .LVU543
 1741 0158 FFF7FEFF 		bl	_ZN5daisy4GPIO5WriteEb
 1742              	.LVL93:
 147:WavPlayer.cpp **** }
 1743              		.loc 6 147 22 view .LVU544
 1744              	.LBE615:
 1745              	.LBE620:
 420:WavPlayer.cpp ****             SetChannelAddr(ch_addr);
 1746              		.loc 6 420 13 is_stmt 1 view .LVU545
 1747              	.LBB621:
 1748              	.LBI621:
 150:WavPlayer.cpp **** {
 1749              		.loc 6 150 20 view .LVU546
 1750              	.LBB622:
 152:WavPlayer.cpp ****     ch_gpio[1].Write((addr >> 1) & 1u);
 1751              		.loc 6 152 5 view .LVU547
 152:WavPlayer.cpp ****     ch_gpio[1].Write((addr >> 1) & 1u);
 1752              		.loc 6 152 21 is_stmt 0 view .LVU548
 1753 015c 05F00101 		and	r1, r5, #1
 1754 0160 7E48     		ldr	r0, .L70+24
 1755 0162 FFF7FEFF 		bl	_ZN5daisy4GPIO5WriteEb
 1756              	.LVL94:
 153:WavPlayer.cpp ****     ch_gpio[2].Write((addr >> 2) & 1u);
 1757              		.loc 6 153 5 is_stmt 1 view .LVU549
 153:WavPlayer.cpp ****     ch_gpio[2].Write((addr >> 2) & 1u);
 1758              		.loc 6 153 21 is_stmt 0 view .LVU550
 1759 0166 C5F34001 		ubfx	r1, r5, #1, #1
 1760 016a 8948     		ldr	r0, .L70+76
 1761 016c FFF7FEFF 		bl	_ZN5daisy4GPIO5WriteEb
 1762              	.LVL95:
ARM GAS  /var/folders/th/s5djnwg15xxc0dk87c413f_h0000gn/T//ccXOGyQC.s 			page 63


 154:WavPlayer.cpp **** }
 1763              		.loc 6 154 5 is_stmt 1 view .LVU551
 154:WavPlayer.cpp **** }
 1764              		.loc 6 154 21 is_stmt 0 view .LVU552
 1765 0170 8848     		ldr	r0, .L70+80
 1766 0172 C5F38001 		ubfx	r1, r5, #2, #1
 1767              	.LBE622:
 1768              	.LBE621:
 422:WavPlayer.cpp **** 
 423:WavPlayer.cpp ****             float acc = 0.0f;
 1769              		.loc 6 423 19 view .LVU553
 1770 0176 9FED888A 		vldr.32	s16, .L70+84
 1771              	.LBB624:
 1772              	.LBB623:
 154:WavPlayer.cpp **** }
 1773              		.loc 6 154 21 view .LVU554
 1774 017a FFF7FEFF 		bl	_ZN5daisy4GPIO5WriteEb
 1775              	.LVL96:
 154:WavPlayer.cpp **** }
 1776              		.loc 6 154 21 view .LVU555
 1777              	.LBE623:
 1778              	.LBE624:
 421:WavPlayer.cpp **** 
 1779              		.loc 6 421 13 is_stmt 1 view .LVU556
 421:WavPlayer.cpp **** 
 1780              		.loc 6 421 28 is_stmt 0 view .LVU557
 1781 017e 44F62060 		movw	r0, #20000
 1782 0182 FFF7FEFF 		bl	_ZN5daisy6System7DelayUsEm
 1783              	.LVL97:
 1784              		.loc 6 423 13 is_stmt 1 view .LVU558
 424:WavPlayer.cpp ****             for (int s = 0; s < CAL_SAMPLES; s++) {
 1785              		.loc 6 424 13 view .LVU559
 1786              	.LBB625:
 1787              		.loc 6 424 31 view .LVU560
 1788              	.L32:
 425:WavPlayer.cpp ****                 acc += hw.adc.GetFloat(0) * SUPPLY_VOLTS;
 1789              		.loc 6 425 17 discriminator 2 view .LVU561
 1790              		.loc 6 425 39 is_stmt 0 discriminator 2 view .LVU562
 1791 0186 7748     		ldr	r0, .L70+32
 1792 0188 0021     		movs	r1, #0
 1793 018a FFF7FEFF 		bl	_ZNK5daisy9AdcHandle8GetFloatEh
 1794              	.LVL98:
 1795              		.loc 6 425 21 discriminator 2 view .LVU563
 1796 018e DFED837A 		vldr.32	s15, .L70+88
 426:WavPlayer.cpp ****                 System::DelayUs(100 * kScanDelayUs);
 1797              		.loc 6 426 32 discriminator 2 view .LVU564
 1798 0192 44F62060 		movw	r0, #20000
 425:WavPlayer.cpp ****                 acc += hw.adc.GetFloat(0) * SUPPLY_VOLTS;
 1799              		.loc 6 425 21 discriminator 2 view .LVU565
 1800 0196 A0EE278A 		vfma.f32	s16, s0, s15
 1801              	.LVL99:
 1802              		.loc 6 426 17 is_stmt 1 discriminator 2 view .LVU566
 1803              		.loc 6 426 32 is_stmt 0 discriminator 2 view .LVU567
 1804 019a FFF7FEFF 		bl	_ZN5daisy6System7DelayUsEm
 1805              	.LVL100:
 424:WavPlayer.cpp ****             for (int s = 0; s < CAL_SAMPLES; s++) {
 1806              		.loc 6 424 13 is_stmt 1 discriminator 2 view .LVU568
ARM GAS  /var/folders/th/s5djnwg15xxc0dk87c413f_h0000gn/T//ccXOGyQC.s 			page 64


 424:WavPlayer.cpp ****             for (int s = 0; s < CAL_SAMPLES; s++) {
 1807              		.loc 6 424 31 discriminator 2 view .LVU569
 1808 019e 013C     		subs	r4, r4, #1
 1809              	.LVL101:
 424:WavPlayer.cpp ****             for (int s = 0; s < CAL_SAMPLES; s++) {
 1810              		.loc 6 424 31 is_stmt 0 discriminator 2 view .LVU570
 1811 01a0 F1D1     		bne	.L32
 1812              	.LBE625:
 427:WavPlayer.cpp ****             }
 428:WavPlayer.cpp ****             baseline[c][r] = acc / static_cast<float>(CAL_SAMPLES);
 1813              		.loc 6 428 13 is_stmt 1 discriminator 2 view .LVU571
 1814              		.loc 6 428 34 is_stmt 0 discriminator 2 view .LVU572
 1815 01a2 DFED7F7A 		vldr.32	s15, .L70+92
 1816              	.LBE626:
 416:WavPlayer.cpp ****             uint8_t sel_addr, ch_addr;
 1817              		.loc 6 416 9 discriminator 2 view .LVU573
 1818 01a6 0136     		adds	r6, r6, #1
 1819              	.LVL102:
 1820              	.LBB627:
 1821              		.loc 6 428 34 discriminator 2 view .LVU574
 1822 01a8 28EE278A 		vmul.f32	s16, s16, s15
 1823              	.LVL103:
 1824              		.loc 6 428 34 discriminator 2 view .LVU575
 1825              	.LBE627:
 416:WavPlayer.cpp ****             uint8_t sel_addr, ch_addr;
 1826              		.loc 6 416 27 discriminator 2 view .LVU576
 1827 01ac 082E     		cmp	r6, #8
 1828              	.LBB628:
 1829              		.loc 6 428 28 discriminator 2 view .LVU577
 1830 01ae A7EC018A 		vstmia.32	r7!, {s16}
 1831              	.LVL104:
 1832              		.loc 6 428 28 discriminator 2 view .LVU578
 1833              	.LBE628:
 416:WavPlayer.cpp ****             uint8_t sel_addr, ch_addr;
 1834              		.loc 6 416 9 is_stmt 1 discriminator 2 view .LVU579
 416:WavPlayer.cpp ****             uint8_t sel_addr, ch_addr;
 1835              		.loc 6 416 27 discriminator 2 view .LVU580
 1836 01b2 BAD1     		bne	.L33
 1837              	.LBE601:
 415:WavPlayer.cpp ****         for (int r = 0; r < NUM_ROWS; r++) {
 1838              		.loc 6 415 5 discriminator 2 view .LVU581
 1839 01b4 0AF1010A 		add	r10, r10, #1
 1840              	.LVL105:
 415:WavPlayer.cpp ****         for (int r = 0; r < NUM_ROWS; r++) {
 1841              		.loc 6 415 23 discriminator 2 view .LVU582
 1842 01b8 0BF1200B 		add	fp, fp, #32
 1843 01bc BAF1080F 		cmp	r10, #8
 1844 01c0 A8D1     		bne	.L34
 1845              	.LBE636:
 429:WavPlayer.cpp **** 
 430:WavPlayer.cpp ****         }
 431:WavPlayer.cpp ****     }
 432:WavPlayer.cpp ****     hw.PrintLine("Calibration done.");
 1846              		.loc 6 432 5 view .LVU583
 1847              	.LVL106:
 1848              	.LBB637:
 1849              	.LBI637:
ARM GAS  /var/folders/th/s5djnwg15xxc0dk87c413f_h0000gn/T//ccXOGyQC.s 			page 65


 126:../../libDaisy/src/daisy_seed.h ****     {
 1850              		.loc 1 126 17 view .LVU584
 1851              	.LBB638:
 128:../../libDaisy/src/daisy_seed.h ****     }
 1852              		.loc 1 128 23 is_stmt 0 view .LVU585
 1853 01c2 7848     		ldr	r0, .L70+96
 1854 01c4 FFF7FEFF 		bl	_ZN5daisy6LoggerILNS_17LoggerDestinationE1EE9PrintLineEPKcz
 1855              	.LVL107:
 128:../../libDaisy/src/daisy_seed.h ****     }
 1856              		.loc 1 128 23 view .LVU586
 1857              	.LBE638:
 1858              	.LBE637:
 433:WavPlayer.cpp **** 
 434:WavPlayer.cpp ****     hw.StartAudio(AudioCallback);
 1859              		.loc 6 434 5 is_stmt 1 view .LVU587
 1860              		.loc 6 434 18 is_stmt 0 view .LVU588
 1861 01c8 7749     		ldr	r1, .L70+100
 1862 01ca 5E48     		ldr	r0, .L70
 1863 01cc FFF7FEFF 		bl	_ZN5daisy9DaisySeed10StartAudioEPFvPKPKfPPfjE
 1864              	.LVL108:
 435:WavPlayer.cpp ****     hw.PrintLine("Stringtone ready. kDebugStep=%d  kPlayFrequency=%d.%01d Hz",
 1865              		.loc 6 435 5 is_stmt 1 view .LVU589
 1866              	.LBB639:
 1867              	.LBI639:
 126:../../libDaisy/src/daisy_seed.h ****     {
 1868              		.loc 1 126 17 view .LVU590
 1869 01d0 654A     		ldr	r2, .L70+36
 1870              	.LBB640:
 128:../../libDaisy/src/daisy_seed.h ****     }
 1871              		.loc 1 128 23 is_stmt 0 view .LVU591
 1872 01d2 2346     		mov	r3, r4
 1873 01d4 0121     		movs	r1, #1
 1874 01d6 2032     		adds	r2, r2, #32
 1875 01d8 7448     		ldr	r0, .L70+104
 1876 01da 0A92     		str	r2, [sp, #40]
 1877 01dc C822     		movs	r2, #200
 1878 01de FFF7FEFF 		bl	_ZN5daisy6LoggerILNS_17LoggerDestinationE1EE9PrintLineEPKcz
 1879              	.LVL109:
 128:../../libDaisy/src/daisy_seed.h ****     }
 1880              		.loc 1 128 23 view .LVU592
 1881              	.LBE640:
 1882              	.LBE639:
 436:WavPlayer.cpp ****         (int)kDebugStep,
 437:WavPlayer.cpp ****         (int)kPlayFrequency,
 438:WavPlayer.cpp ****         (int)(kPlayFrequency * 10) % 10);
 439:WavPlayer.cpp **** 
 440:WavPlayer.cpp ****     // ŌĢÉŌĢÉŌĢÉŌĢÉŌĢÉŌĢÉŌĢÉŌĢÉŌĢÉŌĢÉŌĢÉŌĢÉŌĢÉŌĢÉŌĢÉŌĢÉŌĢÉŌĢÉŌĢÉŌĢÉŌĢÉŌĢÉŌĢÉŌĢÉŌĢÉŌĢÉŌĢÉŌĢÉŌĢÉŌĢÉŌĢ
 441:WavPlayer.cpp ****     //  Main scan loop
 442:WavPlayer.cpp ****     //  Each iteration: scan 64 sensors ŌåÆ compute positions ŌåÆ build wavetable
 443:WavPlayer.cpp ****     // ŌĢÉŌĢÉŌĢÉŌĢÉŌĢÉŌĢÉŌĢÉŌĢÉŌĢÉŌĢÉŌĢÉŌĢÉŌĢÉŌĢÉŌĢÉŌĢÉŌĢÉŌĢÉŌĢÉŌĢÉŌĢÉŌĢÉŌĢÉŌĢÉŌĢÉŌĢÉŌĢÉŌĢÉŌĢÉŌĢÉŌĢ
 444:WavPlayer.cpp **** 
 445:WavPlayer.cpp ****     float normalized = 0;
 1883              		.loc 6 445 5 is_stmt 1 view .LVU593
 1884              	.L50:
 446:WavPlayer.cpp **** 
 447:WavPlayer.cpp ****     while (true) {
 1885              		.loc 6 447 5 view .LVU594
ARM GAS  /var/folders/th/s5djnwg15xxc0dk87c413f_h0000gn/T//ccXOGyQC.s 			page 66


 1886              	.LBB641:
 448:WavPlayer.cpp **** 
 449:WavPlayer.cpp ****         // ŌöĆŌöĆ Step 1: scan all 64 sensors ŌöĆŌöĆŌöĆŌöĆŌöĆŌöĆŌöĆŌöĆŌöĆŌöĆŌöĆŌöĆŌöĆŌöĆŌöĆŌöĆŌöĆŌö
 450:WavPlayer.cpp **** 
 451:WavPlayer.cpp ****         for (int c = 0; c < NUM_COLS; c++) {
 1887              		.loc 6 451 9 view .LVU595
 1888              	.LBB642:
 1889              		.loc 6 451 27 view .LVU596
 1890 01e2 654B     		ldr	r3, .L70+52
 1891              		.loc 6 451 18 is_stmt 0 view .LVU597
 1892 01e4 4FF00009 		mov	r9, #0
 1893              	.LBE642:
 1894              	.LBE641:
 1895              	.LBB730:
 1896              	.LBB630:
 1897              	.LBB629:
 423:WavPlayer.cpp ****             for (int s = 0; s < CAL_SAMPLES; s++) {
 1898              		.loc 6 423 19 view .LVU598
 1899 01e8 714A     		ldr	r2, .L70+108
 1900 01ea 0B93     		str	r3, [sp, #44]
 1901 01ec 0892     		str	r2, [sp, #32]
 1902 01ee 0993     		str	r3, [sp, #36]
 1903              	.LVL110:
 1904              	.L37:
 423:WavPlayer.cpp ****             for (int s = 0; s < CAL_SAMPLES; s++) {
 1905              		.loc 6 423 19 view .LVU599
 1906              	.LBE629:
 1907              	.LBE630:
 1908              	.LBE730:
 1909              	.LBB731:
 1910              	.LBB679:
 1911              	.LBB643:
 452:WavPlayer.cpp ****             for (int r = 0; r < NUM_ROWS; r++) {
 1912              		.loc 6 452 31 is_stmt 1 view .LVU600
 1913              	.LBB644:
 1914              	.LBB645:
 1915              	.LBB646:
 162:WavPlayer.cpp **** }
 1916              		.loc 6 162 41 is_stmt 0 view .LVU601
 1917 01f0 19F0010F 		tst	r9, #1
 161:WavPlayer.cpp ****     ch  = static_cast<uint8_t>(ch_base  + (row % 4));
 1918              		.loc 6 161 45 view .LVU602
 1919 01f4 09F0FE0B 		and	fp, r9, #254
 1920              	.LBE646:
 1921              	.LBE645:
 1922              	.LBE644:
 1923              		.loc 6 452 22 view .LVU603
 1924 01f8 4FF00005 		mov	r5, #0
 1925              	.LBB677:
 1926              	.LBB651:
 1927              	.LBB647:
 162:WavPlayer.cpp **** }
 1928              		.loc 6 162 41 view .LVU604
 1929 01fc 0CBF     		ite	eq
 1930 01fe 4FF0040A 		moveq	r10, #4
 1931 0202 4FF0000A 		movne	r10, #0
 1932 0206 DDE90887 		ldrd	r8, r7, [sp, #32]
ARM GAS  /var/folders/th/s5djnwg15xxc0dk87c413f_h0000gn/T//ccXOGyQC.s 			page 67


 1933              	.LVL111:
 1934              	.L36:
 162:WavPlayer.cpp **** }
 1935              		.loc 6 162 41 view .LVU605
 1936              	.LBE647:
 1937              	.LBE651:
 453:WavPlayer.cpp **** 
 454:WavPlayer.cpp ****                 uint8_t sel_addr, ch_addr;
 1938              		.loc 6 454 17 is_stmt 1 view .LVU606
 455:WavPlayer.cpp ****                 GetMuxAddrs(c, r, sel_addr, ch_addr);
 1939              		.loc 6 455 17 view .LVU607
 1940              	.LBB652:
 1941              	.LBI645:
 157:WavPlayer.cpp **** {
 1942              		.loc 6 157 13 view .LVU608
 1943              	.LBB648:
 159:WavPlayer.cpp ****     const int ch_base  = (col % 2 == 0) ? 4 : 0;
 1944              		.loc 6 159 5 view .LVU609
 160:WavPlayer.cpp ****     sel = static_cast<uint8_t>(col_pair * 2 + (row >= 4 ? 1 : 0));
 1945              		.loc 6 160 5 view .LVU610
 161:WavPlayer.cpp ****     ch  = static_cast<uint8_t>(ch_base  + (row % 4));
 1946              		.loc 6 161 5 view .LVU611
 161:WavPlayer.cpp ****     ch  = static_cast<uint8_t>(ch_base  + (row % 4));
 1947              		.loc 6 161 45 is_stmt 0 view .LVU612
 1948 020a 032D     		cmp	r5, #3
 1949 020c D4BF     		ite	le
 1950 020e 5946     		movle	r1, fp
 1951 0210 0BF10101 		addgt	r1, fp, #1
 162:WavPlayer.cpp **** }
 1952              		.loc 6 162 48 view .LVU613
 1953 0214 05F00304 		and	r4, r5, #3
 1954              	.LBE648:
 1955              	.LBE652:
 1956              	.LBB653:
 1957              	.LBB654:
 145:WavPlayer.cpp ****     sel_gpio[1].Write((addr >> 1) & 1u);
 1958              		.loc 6 145 22 view .LVU614
 1959 0218 5A48     		ldr	r0, .L70+64
 1960              	.LBE654:
 1961              	.LBE653:
 1962              	.LBB657:
 1963              	.LBB649:
 161:WavPlayer.cpp ****     ch  = static_cast<uint8_t>(ch_base  + (row % 4));
 1964              		.loc 6 161 45 view .LVU615
 1965 021a CEB2     		uxtb	r6, r1
 1966              	.LVL112:
 162:WavPlayer.cpp **** }
 1967              		.loc 6 162 5 is_stmt 1 view .LVU616
 1968              	.LBE649:
 1969              	.LBE657:
 1970              	.LBB658:
 1971              	.LBB655:
 145:WavPlayer.cpp ****     sel_gpio[1].Write((addr >> 1) & 1u);
 1972              		.loc 6 145 22 is_stmt 0 view .LVU617
 1973 021c 01F00101 		and	r1, r1, #1
 1974 0220 FFF7FEFF 		bl	_ZN5daisy4GPIO5WriteEb
 1975              	.LVL113:
ARM GAS  /var/folders/th/s5djnwg15xxc0dk87c413f_h0000gn/T//ccXOGyQC.s 			page 68


 1976              	.LBE655:
 1977              	.LBE658:
 1978              	.LBB659:
 1979              	.LBB650:
 162:WavPlayer.cpp **** }
 1980              		.loc 6 162 41 view .LVU618
 1981 0224 5444     		add	r4, r4, r10
 1982              	.LVL114:
 162:WavPlayer.cpp **** }
 1983              		.loc 6 162 41 view .LVU619
 1984              	.LBE650:
 1985              	.LBE659:
 456:WavPlayer.cpp **** 
 457:WavPlayer.cpp ****                 SetSelectorAddr(sel_addr);
 1986              		.loc 6 457 17 is_stmt 1 view .LVU620
 1987              	.LBB660:
 1988              	.LBI653:
 143:WavPlayer.cpp **** {
 1989              		.loc 6 143 20 view .LVU621
 1990              	.LBB656:
 145:WavPlayer.cpp ****     sel_gpio[1].Write((addr >> 1) & 1u);
 1991              		.loc 6 145 5 view .LVU622
 146:WavPlayer.cpp ****     sel_gpio[2].Write((addr >> 2) & 1u);
 1992              		.loc 6 146 5 view .LVU623
 146:WavPlayer.cpp ****     sel_gpio[2].Write((addr >> 2) & 1u);
 1993              		.loc 6 146 22 is_stmt 0 view .LVU624
 1994 0226 C6F34001 		ubfx	r1, r6, #1, #1
 1995 022a 5748     		ldr	r0, .L70+68
 1996 022c FFF7FEFF 		bl	_ZN5daisy4GPIO5WriteEb
 1997              	.LVL115:
 147:WavPlayer.cpp **** }
 1998              		.loc 6 147 5 is_stmt 1 view .LVU625
 147:WavPlayer.cpp **** }
 1999              		.loc 6 147 22 is_stmt 0 view .LVU626
 2000 0230 C6F38001 		ubfx	r1, r6, #2, #1
 2001 0234 5548     		ldr	r0, .L70+72
 2002 0236 FFF7FEFF 		bl	_ZN5daisy4GPIO5WriteEb
 2003              	.LVL116:
 147:WavPlayer.cpp **** }
 2004              		.loc 6 147 22 view .LVU627
 2005              	.LBE656:
 2006              	.LBE660:
 458:WavPlayer.cpp ****                 SetChannelAddr(ch_addr);
 2007              		.loc 6 458 17 is_stmt 1 view .LVU628
 2008              	.LBB661:
 2009              	.LBI661:
 150:WavPlayer.cpp **** {
 2010              		.loc 6 150 20 view .LVU629
 2011              	.LBB662:
 152:WavPlayer.cpp ****     ch_gpio[1].Write((addr >> 1) & 1u);
 2012              		.loc 6 152 5 view .LVU630
 152:WavPlayer.cpp ****     ch_gpio[1].Write((addr >> 1) & 1u);
 2013              		.loc 6 152 21 is_stmt 0 view .LVU631
 2014 023a 04F00101 		and	r1, r4, #1
 2015 023e 4748     		ldr	r0, .L70+24
 2016 0240 FFF7FEFF 		bl	_ZN5daisy4GPIO5WriteEb
 2017              	.LVL117:
ARM GAS  /var/folders/th/s5djnwg15xxc0dk87c413f_h0000gn/T//ccXOGyQC.s 			page 69


 153:WavPlayer.cpp ****     ch_gpio[2].Write((addr >> 2) & 1u);
 2018              		.loc 6 153 5 is_stmt 1 view .LVU632
 153:WavPlayer.cpp ****     ch_gpio[2].Write((addr >> 2) & 1u);
 2019              		.loc 6 153 21 is_stmt 0 view .LVU633
 2020 0244 C4F34001 		ubfx	r1, r4, #1, #1
 2021 0248 5148     		ldr	r0, .L70+76
 2022 024a FFF7FEFF 		bl	_ZN5daisy4GPIO5WriteEb
 2023              	.LVL118:
 154:WavPlayer.cpp **** }
 2024              		.loc 6 154 5 is_stmt 1 view .LVU634
 154:WavPlayer.cpp **** }
 2025              		.loc 6 154 21 is_stmt 0 view .LVU635
 2026 024e C4F38001 		ubfx	r1, r4, #2, #1
 2027 0252 5048     		ldr	r0, .L70+80
 2028 0254 FFF7FEFF 		bl	_ZN5daisy4GPIO5WriteEb
 2029              	.LVL119:
 154:WavPlayer.cpp **** }
 2030              		.loc 6 154 21 view .LVU636
 2031              	.LBE662:
 2032              	.LBE661:
 459:WavPlayer.cpp ****                 System::DelayUs(kScanDelayUs);
 2033              		.loc 6 459 17 is_stmt 1 view .LVU637
 2034              		.loc 6 459 32 is_stmt 0 view .LVU638
 2035 0258 C820     		movs	r0, #200
 2036 025a FFF7FEFF 		bl	_ZN5daisy6System7DelayUsEm
 2037              	.LVL120:
 460:WavPlayer.cpp **** 
 461:WavPlayer.cpp ****                 normalized = hw.adc.GetFloat(0);
 2038              		.loc 6 461 17 is_stmt 1 view .LVU639
 2039              		.loc 6 461 45 is_stmt 0 view .LVU640
 2040 025e 0021     		movs	r1, #0
 2041 0260 4048     		ldr	r0, .L70+32
 2042 0262 FFF7FEFF 		bl	_ZNK5daisy9AdcHandle8GetFloatEh
 2043              	.LVL121:
 462:WavPlayer.cpp ****                 sensor_v[c][r] = normalized * SUPPLY_VOLTS;
 2044              		.loc 6 462 45 view .LVU641
 2045 0266 9FED4D7A 		vldr.32	s14, .L70+88
 2046              	.LBB663:
 2047              	.LBB664:
 128:../../libDaisy/src/daisy_seed.h ****     }
 2048              		.loc 1 128 23 view .LVU642
 2049 026a 0094     		str	r4, [sp]
 2050              	.LVL122:
 128:../../libDaisy/src/daisy_seed.h ****     }
 2051              		.loc 1 128 23 view .LVU643
 2052              	.LBE664:
 2053              	.LBE663:
 2054              		.loc 6 462 17 is_stmt 1 view .LVU644
 2055              	.LBB671:
 2056              	.LBB665:
 128:../../libDaisy/src/daisy_seed.h ****     }
 2057              		.loc 1 128 23 is_stmt 0 view .LVU645
 2058 026c 3346     		mov	r3, r6
 2059              	.LBE665:
 2060              	.LBE671:
 2061              		.loc 6 462 45 view .LVU646
 2062 026e 20EE077A 		vmul.f32	s14, s0, s14
ARM GAS  /var/folders/th/s5djnwg15xxc0dk87c413f_h0000gn/T//ccXOGyQC.s 			page 70


 463:WavPlayer.cpp **** 
 464:WavPlayer.cpp ****                 if (kDebugStep) { // This prints while the sensor scan occurs
 465:WavPlayer.cpp ****                     hw.PrintLine( // Should fix output since float print is not enabled on the Dais
 466:WavPlayer.cpp ****                         "[C%d R%d] sel=%u ch=%u  %d.%04d (norm)  %d.%04d V  dev=%c%d.%04d V",
 467:WavPlayer.cpp ****                         c, r,
 468:WavPlayer.cpp ****                         static_cast<unsigned>(sel_addr),
 469:WavPlayer.cpp ****                         static_cast<unsigned>(ch_addr),
 470:WavPlayer.cpp ****                         (int)normalized,
 471:WavPlayer.cpp ****                         (int)(normalized * 10000) % 10000,
 472:WavPlayer.cpp ****                         (int)sensor_v[c][r],
 473:WavPlayer.cpp ****                         (int)(fabsf(sensor_v[c][r]) * 10000) % 10000,
 474:WavPlayer.cpp ****                         (sensor_v[c][r] - baseline[c][r] >= 0) ? '+' : '-',
 2063              		.loc 6 474 56 view .LVU647
 2064 0272 F8EC015A 		vldmia.32	r8!, {s11}
 471:WavPlayer.cpp ****                         (int)sensor_v[c][r],
 2065              		.loc 6 471 42 view .LVU648
 2066 0276 DFED4F7A 		vldr.32	s15, .L70+112
 465:WavPlayer.cpp ****                         "[C%d R%d] sel=%u ch=%u  %d.%04d (norm)  %d.%04d V  dev=%c%d.%04d V",
 2067              		.loc 6 465 33 view .LVU649
 2068 027a 4F48     		ldr	r0, .L70+116
 2069              		.loc 6 474 41 view .LVU650
 2070 027c 77EE655A 		vsub.f32	s11, s14, s11
 465:WavPlayer.cpp ****                         "[C%d R%d] sel=%u ch=%u  %d.%04d (norm)  %d.%04d V  dev=%c%d.%04d V",
 2071              		.loc 6 465 33 view .LVU651
 2072 0280 4E49     		ldr	r1, .L70+120
 473:WavPlayer.cpp ****                         (sensor_v[c][r] - baseline[c][r] >= 0) ? '+' : '-',
 2073              		.loc 6 473 36 view .LVU652
 2074 0282 F0EEC76A 		vabs.f32	s13, s14
 462:WavPlayer.cpp **** 
 2075              		.loc 6 462 32 view .LVU653
 2076 0286 A7EC017A 		vstmia.32	r7!, {s14}
 464:WavPlayer.cpp ****                     hw.PrintLine( // Should fix output since float print is not enabled on the Dais
 2077              		.loc 6 464 17 is_stmt 1 view .LVU654
 465:WavPlayer.cpp ****                         "[C%d R%d] sel=%u ch=%u  %d.%04d (norm)  %d.%04d V  dev=%c%d.%04d V",
 2078              		.loc 6 465 21 view .LVU655
 471:WavPlayer.cpp ****                         (int)sensor_v[c][r],
 2079              		.loc 6 471 42 is_stmt 0 view .LVU656
 2080 028a 20EE275A 		vmul.f32	s10, s0, s15
 475:WavPlayer.cpp ****                         (int)fabsf(sensor_v[c][r] - baseline[c][r]),
 2081              		.loc 6 475 35 view .LVU657
 2082 028e B0EEE56A 		vabs.f32	s12, s11
 2083              	.LVL123:
 473:WavPlayer.cpp ****                         (sensor_v[c][r] - baseline[c][r] >= 0) ? '+' : '-',
 2084              		.loc 6 473 53 view .LVU658
 2085 0292 66EEA76A 		vmul.f32	s13, s13, s15
 465:WavPlayer.cpp ****                         "[C%d R%d] sel=%u ch=%u  %d.%04d (norm)  %d.%04d V  dev=%c%d.%04d V",
 2086              		.loc 6 465 33 view .LVU659
 2087 0296 F5EEC05A 		vcmpe.f32	s11, #0
 476:WavPlayer.cpp ****                         (int)(fabsf(sensor_v[c][r] - baseline[c][r]) * 10000) % 10000);
 2088              		.loc 6 476 70 view .LVU660
 2089 029a 66EE277A 		vmul.f32	s15, s12, s15
 471:WavPlayer.cpp ****                         (int)sensor_v[c][r],
 2090              		.loc 6 471 25 view .LVU661
 2091 029e FDEEC55A 		vcvt.s32.f32	s11, s10
 473:WavPlayer.cpp ****                         (sensor_v[c][r] - baseline[c][r] >= 0) ? '+' : '-',
 2092              		.loc 6 473 25 view .LVU662
 2093 02a2 FDEEE66A 		vcvt.s32.f32	s13, s13
ARM GAS  /var/folders/th/s5djnwg15xxc0dk87c413f_h0000gn/T//ccXOGyQC.s 			page 71


 2094              		.loc 6 476 25 view .LVU663
 2095 02a6 FDEEE77A 		vcvt.s32.f32	s15, s15
 471:WavPlayer.cpp ****                         (int)sensor_v[c][r],
 2096              		.loc 6 471 25 view .LVU664
 2097 02aa 15EE906A 		vmov	r6, s11	@ int
 2098              	.LVL124:
 465:WavPlayer.cpp ****                         "[C%d R%d] sel=%u ch=%u  %d.%04d (norm)  %d.%04d V  dev=%c%d.%04d V",
 2099              		.loc 6 465 33 view .LVU665
 2100 02ae F1EE10FA 		vmrs	APSR_nzcv, FPSCR
 473:WavPlayer.cpp ****                         (sensor_v[c][r] - baseline[c][r] >= 0) ? '+' : '-',
 2101              		.loc 6 473 25 view .LVU666
 2102 02b2 16EE90CA 		vmov	ip, s13	@ int
 465:WavPlayer.cpp ****                         "[C%d R%d] sel=%u ch=%u  %d.%04d (norm)  %d.%04d V  dev=%c%d.%04d V",
 2103              		.loc 6 465 33 view .LVU667
 2104 02b6 BDEEC00A 		vcvt.s32.f32	s0, s0
 2105              	.LVL125:
 2106              		.loc 6 476 25 view .LVU668
 2107 02ba 17EE902A 		vmov	r2, s15	@ int
 465:WavPlayer.cpp ****                         "[C%d R%d] sel=%u ch=%u  %d.%04d (norm)  %d.%04d V  dev=%c%d.%04d V",
 2108              		.loc 6 465 33 view .LVU669
 2109 02be 80FB0640 		smull	r4, r0, r0, r6
 2110              	.LVL126:
 465:WavPlayer.cpp ****                         "[C%d R%d] sel=%u ch=%u  %d.%04d (norm)  %d.%04d V  dev=%c%d.%04d V",
 2111              		.loc 6 465 33 view .LVU670
 2112 02c2 4FEAE674 		asr	r4, r6, #31
 2113 02c6 BDEEC77A 		vcvt.s32.f32	s14, s14
 2114 02ca BDEEC66A 		vcvt.s32.f32	s12, s12
 2115              	.LBB672:
 2116              	.LBB666:
 128:../../libDaisy/src/daisy_seed.h ****     }
 2117              		.loc 1 128 23 view .LVU671
 2118 02ce 8DED010A 		vstr.32	s0, [sp, #4]	@ int
 2119              	.LBE666:
 2120              	.LBE672:
 465:WavPlayer.cpp ****                         "[C%d R%d] sel=%u ch=%u  %d.%04d (norm)  %d.%04d V  dev=%c%d.%04d V",
 2121              		.loc 6 465 33 view .LVU672
 2122 02d2 C4EB2030 		rsb	r0, r4, r0, asr #12
 2123 02d6 A1FB0CE4 		umull	lr, r4, r1, ip
 2124 02da A1FB02E1 		umull	lr, r1, r1, r2
 2125 02de 42F2107E 		movw	lr, #10000
 2126 02e2 4FEA5434 		lsr	r4, r4, #13
 2127              	.LBB673:
 2128              	.LBB667:
 128:../../libDaisy/src/daisy_seed.h ****     }
 2129              		.loc 1 128 23 view .LVU673
 2130 02e6 8DED037A 		vstr.32	s14, [sp, #12]	@ int
 2131              	.LBE667:
 2132              	.LBE673:
 465:WavPlayer.cpp ****                         "[C%d R%d] sel=%u ch=%u  %d.%04d (norm)  %d.%04d V  dev=%c%d.%04d V",
 2133              		.loc 6 465 33 view .LVU674
 2134 02ea 4FEA5131 		lsr	r1, r1, #13
 2135 02ee 0EFB1060 		mls	r0, lr, r0, r6
 2136 02f2 0EFB14C4 		mls	r4, lr, r4, ip
 2137 02f6 0EFB1122 		mls	r2, lr, r1, r2
 2138              	.LBB674:
 2139              	.LBB668:
 128:../../libDaisy/src/daisy_seed.h ****     }
ARM GAS  /var/folders/th/s5djnwg15xxc0dk87c413f_h0000gn/T//ccXOGyQC.s 			page 72


 2140              		.loc 1 128 23 view .LVU675
 2141 02fa 4946     		mov	r1, r9
 2142 02fc 0290     		str	r0, [sp, #8]
 2143 02fe 0792     		str	r2, [sp, #28]
 2144              	.LBE668:
 2145              	.LBE674:
 465:WavPlayer.cpp ****                         "[C%d R%d] sel=%u ch=%u  %d.%04d (norm)  %d.%04d V  dev=%c%d.%04d V",
 2146              		.loc 6 465 33 view .LVU676
 2147 0300 ACBF     		ite	ge
 2148 0302 2B22     		movge	r2, #43
 2149 0304 2D22     		movlt	r2, #45
 2150              	.LBB675:
 2151              	.LBB669:
 128:../../libDaisy/src/daisy_seed.h ****     }
 2152              		.loc 1 128 23 view .LVU677
 2153 0306 2E48     		ldr	r0, .L70+124
 2154 0308 8DED066A 		vstr.32	s12, [sp, #24]	@ int
 2155 030c 0592     		str	r2, [sp, #20]
 2156 030e 2A46     		mov	r2, r5
 2157 0310 0494     		str	r4, [sp, #16]
 2158              	.LVL127:
 128:../../libDaisy/src/daisy_seed.h ****     }
 2159              		.loc 1 128 23 view .LVU678
 2160              	.LBE669:
 2161              	.LBI663:
 126:../../libDaisy/src/daisy_seed.h ****     {
 2162              		.loc 1 126 17 is_stmt 1 view .LVU679
 2163              	.LBE675:
 2164              	.LBE677:
 452:WavPlayer.cpp **** 
 2165              		.loc 6 452 13 is_stmt 0 view .LVU680
 2166 0312 0135     		adds	r5, r5, #1
 2167              	.LVL128:
 2168              	.LBB678:
 2169              	.LBB676:
 2170              	.LBB670:
 128:../../libDaisy/src/daisy_seed.h ****     }
 2171              		.loc 1 128 23 view .LVU681
 2172 0314 FFF7FEFF 		bl	_ZN5daisy6LoggerILNS_17LoggerDestinationE1EE9PrintLineEPKcz
 2173              	.LVL129:
 128:../../libDaisy/src/daisy_seed.h ****     }
 2174              		.loc 1 128 23 view .LVU682
 2175              	.LBE670:
 2176              	.LBE676:
 477:WavPlayer.cpp ****                     System::Delay(kDebugDelayMs);
 2177              		.loc 6 477 21 is_stmt 1 view .LVU683
 2178              		.loc 6 477 34 is_stmt 0 view .LVU684
 2179 0318 4FF4FA60 		mov	r0, #2000
 2180 031c FFF7FEFF 		bl	_ZN5daisy6System5DelayEm
 2181              	.LVL130:
 2182              		.loc 6 477 34 view .LVU685
 2183              	.LBE678:
 452:WavPlayer.cpp **** 
 2184              		.loc 6 452 13 is_stmt 1 view .LVU686
 452:WavPlayer.cpp **** 
 2185              		.loc 6 452 31 view .LVU687
 2186 0320 082D     		cmp	r5, #8
ARM GAS  /var/folders/th/s5djnwg15xxc0dk87c413f_h0000gn/T//ccXOGyQC.s 			page 73


 2187 0322 7FF472AF 		bne	.L36
 2188              	.LBE643:
 451:WavPlayer.cpp ****             for (int r = 0; r < NUM_ROWS; r++) {
 2189              		.loc 6 451 9 discriminator 2 view .LVU688
 451:WavPlayer.cpp ****             for (int r = 0; r < NUM_ROWS; r++) {
 2190              		.loc 6 451 27 is_stmt 0 discriminator 2 view .LVU689
 2191 0326 099B     		ldr	r3, [sp, #36]
 451:WavPlayer.cpp ****             for (int r = 0; r < NUM_ROWS; r++) {
 2192              		.loc 6 451 9 discriminator 2 view .LVU690
 2193 0328 09F10109 		add	r9, r9, #1
 2194              	.LVL131:
 451:WavPlayer.cpp ****             for (int r = 0; r < NUM_ROWS; r++) {
 2195              		.loc 6 451 27 is_stmt 1 discriminator 2 view .LVU691
 2196 032c 2033     		adds	r3, r3, #32
 2197 032e B9F1080F 		cmp	r9, #8
 2198 0332 0993     		str	r3, [sp, #36]
 2199 0334 089B     		ldr	r3, [sp, #32]
 2200 0336 03F12003 		add	r3, r3, #32
 2201 033a 0893     		str	r3, [sp, #32]
 2202 033c 7FF458AF 		bne	.L37
 2203 0340 1B4D     		ldr	r5, .L70+108
 2204 0342 41E0     		b	.L71
 2205              	.L72:
 2206              		.align	2
 2207              	.L70:
 2208 0344 00000000 		.word	.LANCHOR0
 2209 0348 00000000 		.word	.LANCHOR6
 2210 034c 00000000 		.word	.LANCHOR7
 2211 0350 00000000 		.word	.LANCHOR8
 2212 0354 08000000 		.word	.LANCHOR8+8
 2213 0358 00000000 		.word	.LC3
 2214 035c 00000000 		.word	.LANCHOR11
 2215 0360 00000000 		.word	.LANCHOR12
 2216 0364 18000000 		.word	.LANCHOR0+24
 2217 0368 00000000 		.word	.LANCHOR14
 2218 036c 00000000 		.word	.LANCHOR13
 2219 0370 00006040 		.word	1080033280
 2220 0374 20000000 		.word	.LANCHOR13+32
 2221 0378 00000000 		.word	.LANCHOR15
 2222 037c 00000000 		.word	_ZL9wavetable
 2223 0380 60000000 		.word	.LC4
 2224 0384 00000000 		.word	.LANCHOR9
 2225 0388 14000000 		.word	.LANCHOR9+20
 2226 038c 28000000 		.word	.LANCHOR9+40
 2227 0390 14000000 		.word	.LANCHOR11+20
 2228 0394 28000000 		.word	.LANCHOR11+40
 2229 0398 00000000 		.word	0
 2230 039c 33335340 		.word	1079194419
 2231 03a0 0000803D 		.word	1031798784
 2232 03a4 70000000 		.word	.LC5
 2233 03a8 00000000 		.word	_ZL13AudioCallbackPKPKfPPfj
 2234 03ac 84000000 		.word	.LC6
 2235 03b0 00000000 		.word	.LANCHOR16
 2236 03b4 00401C46 		.word	1176256512
 2237 03b8 AD8BDB68 		.word	1759218605
 2238 03bc 5917B7D1 		.word	-776530087
 2239 03c0 C0000000 		.word	.LC7
ARM GAS  /var/folders/th/s5djnwg15xxc0dk87c413f_h0000gn/T//ccXOGyQC.s 			page 74


 2240 03c4 00000000 		.word	.LANCHOR10
 2241              	.L71:
 2242              	.LVL132:
 451:WavPlayer.cpp ****             for (int r = 0; r < NUM_ROWS; r++) {
 2243              		.loc 6 451 27 is_stmt 0 discriminator 2 view .LVU692
 2244 03c8 954C     		ldr	r4, .L73
 2245 03ca 9648     		ldr	r0, .L73+4
 2246 03cc 0B9E     		ldr	r6, [sp, #44]
 2247              	.L42:
 2248              	.LBE679:
 2249              	.LBB680:
 478:WavPlayer.cpp ****                 }
 479:WavPlayer.cpp ****             }
 480:WavPlayer.cpp ****         }
 481:WavPlayer.cpp **** 
 482:WavPlayer.cpp ****         // ŌöĆŌöĆ Step 2: update per-column positions ŌöĆŌöĆŌöĆŌöĆŌöĆŌöĆŌöĆŌöĆŌöĆŌöĆŌöĆŌöĆŌöĆŌöĆŌöĆ
 483:WavPlayer.cpp **** 
 484:WavPlayer.cpp ****         for (int c = 0; c < NUM_COLS; c++) {
 485:WavPlayer.cpp ****             col_pos[c] = UpdatePosition(sensor_v[c], baseline[c], col_pos[c]);
 2250              		.loc 6 485 13 is_stmt 1 discriminator 2 view .LVU693
 2251              	.LBB681:
 2252              	.LBB682:
 188:WavPlayer.cpp **** 
 2253              		.loc 6 188 11 is_stmt 0 discriminator 2 view .LVU694
 2254 03ce 9FED966A 		vldr.32	s12, .L73+8
 2255              	.LBE682:
 2256              	.LBE681:
 2257              		.loc 6 485 40 discriminator 2 view .LVU695
 2258 03d2 2946     		mov	r1, r5
 2259 03d4 B0EC015A 		vldmia.32	r0!, {s10}
 2260              	.LVL133:
 2261              	.LBB688:
 2262              	.LBI681:
 185:WavPlayer.cpp **** {
 2263              		.loc 6 185 14 is_stmt 1 discriminator 2 view .LVU696
 2264              	.LBB686:
 187:WavPlayer.cpp ****     float w_total = 0.0f;
 2265              		.loc 6 187 5 discriminator 2 view .LVU697
 188:WavPlayer.cpp **** 
 2266              		.loc 6 188 5 discriminator 2 view .LVU698
 190:WavPlayer.cpp ****         float dev = fabsf(voltages[r] - baselines[r]);
 2267              		.loc 6 190 5 discriminator 2 view .LVU699
 2268              	.LBB683:
 190:WavPlayer.cpp ****         float dev = fabsf(voltages[r] - baselines[r]);
 2269              		.loc 6 190 23 discriminator 2 view .LVU700
 2270              	.LBE683:
 2271              	.LBE686:
 2272              	.LBE688:
 2273              		.loc 6 485 40 is_stmt 0 discriminator 2 view .LVU701
 2274 03d8 3246     		mov	r2, r6
 2275              	.LBB689:
 2276              	.LBB687:
 187:WavPlayer.cpp ****     float w_total = 0.0f;
 2277              		.loc 6 187 11 discriminator 2 view .LVU702
 2278 03da F0EE465A 		vmov.f32	s11, s12
 2279              	.LBB685:
 190:WavPlayer.cpp ****         float dev = fabsf(voltages[r] - baselines[r]);
ARM GAS  /var/folders/th/s5djnwg15xxc0dk87c413f_h0000gn/T//ccXOGyQC.s 			page 75


 2280              		.loc 6 190 14 discriminator 2 view .LVU703
 2281 03de 0023     		movs	r3, #0
 2282              	.LVL134:
 2283              	.L40:
 2284              	.LBB684:
 191:WavPlayer.cpp ****         if (dev > kNoiseFloor) {
 2285              		.loc 6 191 9 is_stmt 1 view .LVU704
 193:WavPlayer.cpp ****             w_total += dev;
 2286              		.loc 6 193 13 view .LVU705
 191:WavPlayer.cpp ****         if (dev > kNoiseFloor) {
 2287              		.loc 6 191 37 is_stmt 0 view .LVU706
 2288 03e0 F2EC017A 		vldmia.32	r2!, {s15}
 191:WavPlayer.cpp ****         if (dev > kNoiseFloor) {
 2289              		.loc 6 191 52 view .LVU707
 2290 03e4 F1EC016A 		vldmia.32	r1!, {s13}
 192:WavPlayer.cpp ****             w_sum   += static_cast<float>(r) * dev;
 2291              		.loc 6 192 9 view .LVU708
 2292 03e8 9FED907A 		vldr.32	s14, .L73+12
 191:WavPlayer.cpp ****         if (dev > kNoiseFloor) {
 2293              		.loc 6 191 39 view .LVU709
 2294 03ec 77EEE67A 		vsub.f32	s15, s15, s13
 191:WavPlayer.cpp ****         if (dev > kNoiseFloor) {
 2295              		.loc 6 191 15 view .LVU710
 2296 03f0 F0EEE77A 		vabs.f32	s15, s15
 2297              	.LVL135:
 192:WavPlayer.cpp ****             w_sum   += static_cast<float>(r) * dev;
 2298              		.loc 6 192 9 is_stmt 1 view .LVU711
 2299 03f4 F4EEC77A 		vcmpe.f32	s15, s14
 2300 03f8 F1EE10FA 		vmrs	APSR_nzcv, FPSCR
 2301 03fc 07DD     		ble	.L38
 193:WavPlayer.cpp ****             w_total += dev;
 2302              		.loc 6 193 21 is_stmt 0 view .LVU712
 2303 03fe 07EE103A 		vmov	s14, r3	@ int
 194:WavPlayer.cpp ****         }
 2304              		.loc 6 194 21 view .LVU713
 2305 0402 36EE276A 		vadd.f32	s12, s12, s15
 2306              	.LVL136:
 193:WavPlayer.cpp ****             w_total += dev;
 2307              		.loc 6 193 21 view .LVU714
 2308 0406 B8EEC77A 		vcvt.f32.s32	s14, s14
 2309 040a E7EE875A 		vfma.f32	s11, s15, s14
 2310              	.LVL137:
 194:WavPlayer.cpp ****         }
 2311              		.loc 6 194 13 is_stmt 1 view .LVU715
 2312              	.L38:
 194:WavPlayer.cpp ****         }
 2313              		.loc 6 194 13 is_stmt 0 view .LVU716
 2314              	.LBE684:
 190:WavPlayer.cpp ****         float dev = fabsf(voltages[r] - baselines[r]);
 2315              		.loc 6 190 5 is_stmt 1 view .LVU717
 2316 040e 0133     		adds	r3, r3, #1
 2317              	.LVL138:
 190:WavPlayer.cpp ****         float dev = fabsf(voltages[r] - baselines[r]);
 2318              		.loc 6 190 23 view .LVU718
 2319 0410 082B     		cmp	r3, #8
 2320 0412 E5D1     		bne	.L40
 190:WavPlayer.cpp ****         float dev = fabsf(voltages[r] - baselines[r]);
ARM GAS  /var/folders/th/s5djnwg15xxc0dk87c413f_h0000gn/T//ccXOGyQC.s 			page 76


 2321              		.loc 6 190 23 is_stmt 0 view .LVU719
 2322              	.LBE685:
 198:WavPlayer.cpp ****         return current_pos; // hold at ZERO_ROW when no sensor is active
 2323              		.loc 6 198 5 is_stmt 1 view .LVU720
 2324 0414 DFED867A 		vldr.32	s15, .L73+16
 2325              	.LVL139:
 198:WavPlayer.cpp ****         return current_pos; // hold at ZERO_ROW when no sensor is active
 2326              		.loc 6 198 5 is_stmt 0 view .LVU721
 2327 0418 B4EEE76A 		vcmpe.f32	s12, s15
 2328 041c F1EE10FA 		vmrs	APSR_nzcv, FPSCR
 2329 0420 0DD4     		bmi	.L41
 201:WavPlayer.cpp ****     return (fabsf(new_pos - current_pos) > kPosDead) ? new_pos : current_pos;
 2330              		.loc 6 201 5 is_stmt 1 view .LVU722
 201:WavPlayer.cpp ****     return (fabsf(new_pos - current_pos) > kPosDead) ? new_pos : current_pos;
 2331              		.loc 6 201 17 is_stmt 0 view .LVU723
 2332 0422 85EE867A 		vdiv.f32	s14, s11, s12
 2333              	.LVL140:
 202:WavPlayer.cpp **** }
 2334              		.loc 6 202 5 is_stmt 1 view .LVU724
 202:WavPlayer.cpp **** }
 2335              		.loc 6 202 54 is_stmt 0 view .LVU725
 2336 0426 DFED836A 		vldr.32	s13, .L73+20
 2337              	.LVL141:
 202:WavPlayer.cpp **** }
 2338              		.loc 6 202 27 view .LVU726
 2339 042a 77EE457A 		vsub.f32	s15, s14, s10
 202:WavPlayer.cpp **** }
 2340              		.loc 6 202 18 view .LVU727
 2341 042e F0EEE77A 		vabs.f32	s15, s15
 202:WavPlayer.cpp **** }
 2342              		.loc 6 202 54 view .LVU728
 2343 0432 F4EE667A 		vcmp.f32	s15, s13
 2344 0436 F1EE10FA 		vmrs	APSR_nzcv, FPSCR
 2345 043a 37FE055A 		vselgt.f32	s10, s14, s10
 2346              	.LVL142:
 2347              	.L41:
 202:WavPlayer.cpp **** }
 2348              		.loc 6 202 54 view .LVU729
 2349              	.LBE687:
 2350              	.LBE689:
 486:WavPlayer.cpp ****             col_pos_smooth[c] += kSmooth * (col_pos[c] - col_pos_smooth[c]);
 2351              		.loc 6 486 31 view .LVU730
 2352 043e D4ED007A 		vldr.32	s15, [r4]
 484:WavPlayer.cpp ****             col_pos[c] = UpdatePosition(sensor_v[c], baseline[c], col_pos[c]);
 2353              		.loc 6 484 27 view .LVU731
 2354 0442 2036     		adds	r6, r6, #32
 485:WavPlayer.cpp ****             col_pos_smooth[c] += kSmooth * (col_pos[c] - col_pos_smooth[c]);
 2355              		.loc 6 485 24 view .LVU732
 2356 0444 00ED015A 		vstr.32	s10, [r0, #-4]
 2357              		.loc 6 486 13 is_stmt 1 view .LVU733
 484:WavPlayer.cpp ****             col_pos[c] = UpdatePosition(sensor_v[c], baseline[c], col_pos[c]);
 2358              		.loc 6 484 27 is_stmt 0 view .LVU734
 2359 0448 2035     		adds	r5, r5, #32
 2360              		.loc 6 486 56 view .LVU735
 2361 044a 35EE675A 		vsub.f32	s10, s10, s15
 484:WavPlayer.cpp ****             col_pos[c] = UpdatePosition(sensor_v[c], baseline[c], col_pos[c]);
 2362              		.loc 6 484 27 view .LVU736
ARM GAS  /var/folders/th/s5djnwg15xxc0dk87c413f_h0000gn/T//ccXOGyQC.s 			page 77


 2363 044e 7A4B     		ldr	r3, .L73+24
 2364 0450 8342     		cmp	r3, r0
 2365              		.loc 6 486 31 view .LVU737
 2366 0452 35EE275A 		vadd.f32	s10, s10, s15
 2367 0456 A4EC015A 		vstmia.32	r4!, {s10}
 484:WavPlayer.cpp ****             col_pos[c] = UpdatePosition(sensor_v[c], baseline[c], col_pos[c]);
 2368              		.loc 6 484 9 is_stmt 1 view .LVU738
 484:WavPlayer.cpp ****             col_pos[c] = UpdatePosition(sensor_v[c], baseline[c], col_pos[c]);
 2369              		.loc 6 484 27 view .LVU739
 2370 045a B8D1     		bne	.L42
 2371 045c 12AA     		add	r2, sp, #72
 2372 045e 704B     		ldr	r3, .L73
 2373 0460 0A99     		ldr	r1, [sp, #40]
 2374              	.L43:
 2375              	.LBE680:
 2376              	.LBB690:
 487:WavPlayer.cpp ****         }
 488:WavPlayer.cpp **** 
 489:WavPlayer.cpp ****         // ŌöĆŌöĆ Step 3: build waveform control points ŌöĆŌöĆŌöĆŌöĆŌöĆŌöĆŌöĆŌöĆŌöĆŌöĆŌöĆŌöĆŌöĆŌöĆŌ
 490:WavPlayer.cpp **** 
 491:WavPlayer.cpp ****         float ctrl[CTRL_PTS];
 492:WavPlayer.cpp ****         for (int c = 0; c < NUM_COLS; c++)
 493:WavPlayer.cpp ****             ctrl[c] = PosToAmplitude(col_pos_smooth[c]);
 2377              		.loc 6 493 13 discriminator 2 view .LVU740
 2378              	.LBB691:
 2379              	.LBB692:
 222:WavPlayer.cpp **** }
 2380              		.loc 6 222 15 is_stmt 0 discriminator 2 view .LVU741
 2381 0462 B0EE0C7A 		vmov.f32	s14, #3.5e+0
 2382              	.LBE692:
 2383              	.LBE691:
 2384              		.loc 6 493 37 discriminator 2 view .LVU742
 2385 0466 F3EC017A 		vldmia.32	r3!, {s15}
 2386              	.LVL143:
 2387              	.LBB695:
 2388              	.LBI691:
 220:WavPlayer.cpp **** {
 2389              		.loc 6 220 14 is_stmt 1 discriminator 2 view .LVU743
 2390              	.LBB693:
 222:WavPlayer.cpp **** }
 2391              		.loc 6 222 5 discriminator 2 view .LVU744
 222:WavPlayer.cpp **** }
 2392              		.loc 6 222 5 is_stmt 0 discriminator 2 view .LVU745
 2393              	.LBE693:
 2394              	.LBE695:
 492:WavPlayer.cpp ****             ctrl[c] = PosToAmplitude(col_pos_smooth[c]);
 2395              		.loc 6 492 27 discriminator 2 view .LVU746
 2396 046a 9942     		cmp	r1, r3
 2397              	.LBB696:
 2398              	.LBB694:
 222:WavPlayer.cpp **** }
 2399              		.loc 6 222 15 discriminator 2 view .LVU747
 2400 046c 77EEC77A 		vsub.f32	s15, s15, s14
 222:WavPlayer.cpp **** }
 2401              		.loc 6 222 29 discriminator 2 view .LVU748
 2402 0470 C7EE876A 		vdiv.f32	s13, s15, s14
 2403              	.LBE694:
ARM GAS  /var/folders/th/s5djnwg15xxc0dk87c413f_h0000gn/T//ccXOGyQC.s 			page 78


 2404              	.LBE696:
 2405              		.loc 6 493 21 discriminator 2 view .LVU749
 2406 0474 E2EC016A 		vstmia.32	r2!, {s13}
 492:WavPlayer.cpp ****             ctrl[c] = PosToAmplitude(col_pos_smooth[c]);
 2407              		.loc 6 492 9 is_stmt 1 discriminator 2 view .LVU750
 492:WavPlayer.cpp ****             ctrl[c] = PosToAmplitude(col_pos_smooth[c]);
 2408              		.loc 6 492 27 discriminator 2 view .LVU751
 2409 0478 F3D1     		bne	.L43
 2410              	.LBE690:
 494:WavPlayer.cpp **** 
 495:WavPlayer.cpp ****         // ŌöĆŌöĆ Step 4: fill inactive buffer, signal pending swap ŌöĆŌöĆŌöĆŌöĆŌöĆŌöĆŌöĆŌöĆŌöĆŌöĆŌ
 496:WavPlayer.cpp **** 
 497:WavPlayer.cpp ****         const int next_buf = active_buf ^ 1;
 2411              		.loc 6 497 9 view .LVU752
 2412              	.LBB697:
 2413              	.LBB698:
 251:WavPlayer.cpp ****     m[CTRL_PTS-1] = s * (pts[CTRL_PTS-1] - pts[CTRL_PTS-2]);
 2414              		.loc 6 251 40 is_stmt 0 view .LVU753
 2415 047a 9DED122A 		vldr.32	s4, [sp, #72]
 2416 047e 18A8     		add	r0, sp, #96
 252:WavPlayer.cpp ****     for (int k = 1; k < CTRL_PTS - 1; k++)
 2417              		.loc 6 252 42 view .LVU754
 2418 0480 DDED186A 		vldr.32	s13, [sp, #96]
 251:WavPlayer.cpp ****     m[CTRL_PTS-1] = s * (pts[CTRL_PTS-1] - pts[CTRL_PTS-2]);
 2419              		.loc 6 251 33 view .LVU755
 2420 0484 DDED137A 		vldr.32	s15, [sp, #76]
 252:WavPlayer.cpp ****     for (int k = 1; k < CTRL_PTS - 1; k++)
 2421              		.loc 6 252 42 view .LVU756
 2422 0488 9DED197A 		vldr.32	s14, [sp, #100]
 251:WavPlayer.cpp ****     m[CTRL_PTS-1] = s * (pts[CTRL_PTS-1] - pts[CTRL_PTS-2]);
 2423              		.loc 6 251 33 view .LVU757
 2424 048c 77EEC27A 		vsub.f32	s15, s15, s4
 2425              	.LBE698:
 2426              	.LBE697:
 2427              		.loc 6 497 30 view .LVU758
 2428 0490 6A4B     		ldr	r3, .L73+28
 2429              	.LBB709:
 2430              	.LBB704:
 252:WavPlayer.cpp ****     for (int k = 1; k < CTRL_PTS - 1; k++)
 2431              		.loc 6 252 42 view .LVU759
 2432 0492 37EE667A 		vsub.f32	s14, s14, s13
 251:WavPlayer.cpp ****     m[CTRL_PTS-1] = s * (pts[CTRL_PTS-1] - pts[CTRL_PTS-2]);
 2433              		.loc 6 251 23 view .LVU760
 2434 0496 DFED646A 		vldr.32	s13, .L73+8
 2435              	.LBE704:
 2436              	.LBE709:
 2437              		.loc 6 497 30 view .LVU761
 2438 049a 1968     		ldr	r1, [r3]
 2439              	.LVL144:
 498:WavPlayer.cpp ****         BuildWavetable(wavetable[next_buf], ctrl);
 2440              		.loc 6 498 9 is_stmt 1 view .LVU762
 2441 049c 13AB     		add	r3, sp, #76
 2442              	.LBB710:
 2443              	.LBB705:
 251:WavPlayer.cpp ****     m[CTRL_PTS-1] = s * (pts[CTRL_PTS-1] - pts[CTRL_PTS-2]);
 2444              		.loc 6 251 23 is_stmt 0 view .LVU763
 2445 049e 67EEA62A 		vmul.f32	s5, s15, s13
ARM GAS  /var/folders/th/s5djnwg15xxc0dk87c413f_h0000gn/T//ccXOGyQC.s 			page 79


 2446              	.LBE705:
 2447              	.LBE710:
 2448              		.loc 6 498 42 view .LVU764
 2449 04a2 674A     		ldr	r2, .L73+32
 2450              	.LBB711:
 2451              	.LBB706:
 252:WavPlayer.cpp ****     for (int k = 1; k < CTRL_PTS - 1; k++)
 2452              		.loc 6 252 23 view .LVU765
 2453 04a4 27EE267A 		vmul.f32	s14, s14, s13
 2454              	.LBE706:
 2455              	.LBE711:
 497:WavPlayer.cpp ****         BuildWavetable(wavetable[next_buf], ctrl);
 2456              		.loc 6 497 43 view .LVU766
 2457 04a8 81F00101 		eor	r1, r1, #1
 2458              	.LVL145:
 2459              	.LBB712:
 2460              	.LBB707:
 252:WavPlayer.cpp ****     for (int k = 1; k < CTRL_PTS - 1; k++)
 2461              		.loc 6 252 19 view .LVU767
 2462 04ac F0EE427A 		vmov.f32	s15, s4
 2463              	.LBE707:
 2464              	.LBE712:
 2465              		.loc 6 498 42 view .LVU768
 2466 04b0 02EB4131 		add	r1, r2, r1, lsl #13
 2467              	.LVL146:
 2468              	.LBB713:
 2469              	.LBI697:
 247:WavPlayer.cpp **** {
 2470              		.loc 6 247 13 is_stmt 1 view .LVU769
 2471              	.LBB708:
 249:WavPlayer.cpp ****     float m[CTRL_PTS];
 2472              		.loc 6 249 5 view .LVU770
 250:WavPlayer.cpp ****     m[0]          = s * (pts[1] - pts[0]);
 2473              		.loc 6 250 5 view .LVU771
 251:WavPlayer.cpp ****     m[CTRL_PTS-1] = s * (pts[CTRL_PTS-1] - pts[CTRL_PTS-2]);
 2474              		.loc 6 251 5 view .LVU772
 251:WavPlayer.cpp ****     m[CTRL_PTS-1] = s * (pts[CTRL_PTS-1] - pts[CTRL_PTS-2]);
 2475              		.loc 6 251 19 is_stmt 0 view .LVU773
 2476 04b4 CDED1A2A 		vstr.32	s5, [sp, #104]
 252:WavPlayer.cpp ****     for (int k = 1; k < CTRL_PTS - 1; k++)
 2477              		.loc 6 252 5 is_stmt 1 view .LVU774
 2478 04b8 1BAA     		add	r2, sp, #108
 252:WavPlayer.cpp ****     for (int k = 1; k < CTRL_PTS - 1; k++)
 2479              		.loc 6 252 19 is_stmt 0 view .LVU775
 2480 04ba 8DED217A 		vstr.32	s14, [sp, #132]
 253:WavPlayer.cpp ****         m[k] = s * (pts[k+1] - pts[k-1]) * 0.5f;
 2481              		.loc 6 253 5 is_stmt 1 view .LVU776
 2482              	.LVL147:
 2483              	.LBB699:
 253:WavPlayer.cpp ****         m[k] = s * (pts[k+1] - pts[k-1]) * 0.5f;
 2484              		.loc 6 253 23 view .LVU777
 2485 04be 01E0     		b	.L46
 2486              	.LVL148:
 2487              	.L44:
 254:WavPlayer.cpp **** 
 2488              		.loc 6 254 39 is_stmt 0 view .LVU778
 2489 04c0 F3EC017A 		vldmia.32	r3!, {s15}
ARM GAS  /var/folders/th/s5djnwg15xxc0dk87c413f_h0000gn/T//ccXOGyQC.s 			page 80


 2490              	.L46:
 254:WavPlayer.cpp **** 
 2491              		.loc 6 254 9 is_stmt 1 view .LVU779
 254:WavPlayer.cpp **** 
 2492              		.loc 6 254 30 is_stmt 0 view .LVU780
 2493 04c4 D3ED016A 		vldr.32	s13, [r3, #4]
 254:WavPlayer.cpp **** 
 2494              		.loc 6 254 42 view .LVU781
 2495 04c8 B6EE006A 		vmov.f32	s12, #5.0e-1
 254:WavPlayer.cpp **** 
 2496              		.loc 6 254 18 view .LVU782
 2497 04cc 9FED567A 		vldr.32	s14, .L73+8
 253:WavPlayer.cpp ****         m[k] = s * (pts[k+1] - pts[k-1]) * 0.5f;
 2498              		.loc 6 253 23 view .LVU783
 2499 04d0 8342     		cmp	r3, r0
 254:WavPlayer.cpp **** 
 2500              		.loc 6 254 30 view .LVU784
 2501 04d2 76EEE77A 		vsub.f32	s15, s13, s15
 254:WavPlayer.cpp **** 
 2502              		.loc 6 254 18 view .LVU785
 2503 04d6 67EE877A 		vmul.f32	s15, s15, s14
 254:WavPlayer.cpp **** 
 2504              		.loc 6 254 42 view .LVU786
 2505 04da 67EE867A 		vmul.f32	s15, s15, s12
 254:WavPlayer.cpp **** 
 2506              		.loc 6 254 14 view .LVU787
 2507 04de E2EC017A 		vstmia.32	r2!, {s15}
 253:WavPlayer.cpp ****         m[k] = s * (pts[k+1] - pts[k-1]) * 0.5f;
 2508              		.loc 6 253 5 is_stmt 1 view .LVU788
 253:WavPlayer.cpp ****         m[k] = s * (pts[k+1] - pts[k-1]) * 0.5f;
 2509              		.loc 6 253 23 view .LVU789
 2510 04e2 EDD1     		bne	.L44
 2511 04e4 F0EE477A 		vmov.f32	s15, s14
 2512              	.LBE699:
 2513              	.LBB700:
 256:WavPlayer.cpp ****         const float tau = static_cast<float>(i) / static_cast<float>(WAVETABLE_SIZE);
 2514              		.loc 6 256 14 is_stmt 0 view .LVU790
 2515 04e8 0022     		movs	r2, #0
 2516 04ea 14E0     		b	.L45
 2517              	.LVL149:
 2518              	.L69:
 2519              	.LBB701:
 257:WavPlayer.cpp ****         const float ts  = tau * static_cast<float>(CTRL_PTS - 1);
 2520              		.loc 6 257 27 view .LVU791
 2521 04ec 07EE902A 		vmov	s15, r2	@ int
 2522 04f0 F8EEE77A 		vcvt.f32.s32	s15, s15
 257:WavPlayer.cpp ****         const float ts  = tau * static_cast<float>(CTRL_PTS - 1);
 2523              		.loc 6 257 21 view .LVU792
 2524 04f4 27EE877A 		vmul.f32	s14, s15, s14
 258:WavPlayer.cpp **** 
 2525              		.loc 6 258 21 view .LVU793
 2526 04f8 27EE037A 		vmul.f32	s14, s14, s6
 260:WavPlayer.cpp ****         if (seg >= CTRL_PTS - 1) seg = CTRL_PTS - 2;
 2527              		.loc 6 260 21 view .LVU794
 2528 04fc BDEEC77A 		vcvt.s32.f32	s14, s14
 2529 0500 17EE103A 		vmov	r3, s14	@ int
 2530 0504 062B     		cmp	r3, #6
ARM GAS  /var/folders/th/s5djnwg15xxc0dk87c413f_h0000gn/T//ccXOGyQC.s 			page 81


