ARM GAS  /var/folders/th/s5djnwg15xxc0dk87c413f_h0000gn/T//ccCW3aXI.s 			page 1


   1              		.cpu cortex-m7
   2              		.arch armv7e-m
   3              		.fpu fpv5-d16
   4              		.eabi_attribute 28, 1
   5              		.eabi_attribute 20, 1
   6              		.eabi_attribute 21, 1
   7              		.eabi_attribute 23, 3
   8              		.eabi_attribute 24, 1
   9              		.eabi_attribute 25, 1
  10              		.eabi_attribute 26, 1
  11              		.eabi_attribute 30, 2
  12              		.eabi_attribute 34, 1
  13              		.eabi_attribute 18, 4
  14              		.file	"WavPlayer.cpp"
  15              		.text
  16              	.Ltext0:
  17              		.cfi_sections	.debug_frame
  18              		.section	.text._ZN5daisy9DaisySeedD2Ev,"axG",%progbits,_ZN5daisy9DaisySeedD5Ev,comdat
  19              		.align	1
  20              		.p2align 2,,3
  21              		.weak	_ZN5daisy9DaisySeedD2Ev
  22              		.syntax unified
  23              		.thumb
  24              		.thumb_func
  26              	_ZN5daisy9DaisySeedD2Ev:
  27              	.LVL0:
  28              	.LFB4477:
  29              		.file 1 "../../libDaisy/src/daisy_seed.h"
   1:../../libDaisy/src/daisy_seed.h **** #pragma once
   2:../../libDaisy/src/daisy_seed.h **** #ifndef DSY_SEED_H
   3:../../libDaisy/src/daisy_seed.h **** #define DSY_SEED_H
   4:../../libDaisy/src/daisy_seed.h **** 
   5:../../libDaisy/src/daisy_seed.h **** #include "daisy.h"
   6:../../libDaisy/src/daisy_seed.h **** 
   7:../../libDaisy/src/daisy_seed.h **** //Uncomment this out if you're still using the rev2 hardware
   8:../../libDaisy/src/daisy_seed.h **** //#define SEED_REV2
   9:../../libDaisy/src/daisy_seed.h **** 
  10:../../libDaisy/src/daisy_seed.h **** namespace daisy
  11:../../libDaisy/src/daisy_seed.h **** {
  12:../../libDaisy/src/daisy_seed.h **** /**
  13:../../libDaisy/src/daisy_seed.h ****    @brief This is the higher-level interface for the Daisy board. \n 
  14:../../libDaisy/src/daisy_seed.h ****     All basic peripheral configuration/initialization is setup here. \n
  15:../../libDaisy/src/daisy_seed.h **** 
  16:../../libDaisy/src/daisy_seed.h ****    @ingroup boards
  17:../../libDaisy/src/daisy_seed.h **** */
  18:../../libDaisy/src/daisy_seed.h **** class DaisySeed
  19:../../libDaisy/src/daisy_seed.h **** {
  20:../../libDaisy/src/daisy_seed.h ****   public:
  21:../../libDaisy/src/daisy_seed.h ****     DaisySeed() {}
  22:../../libDaisy/src/daisy_seed.h ****     ~DaisySeed() {}
  30              		.loc 1 22 5 view -0
  31              		.cfi_startproc
  32              		@ args = 0, pretend = 0, frame = 0
  33              		@ frame_needed = 0, uses_anonymous_args = 0
  34              		@ link register save eliminated.
  35              	.LBB289:
  36              	.LBI289:
ARM GAS  /var/folders/th/s5djnwg15xxc0dk87c413f_h0000gn/T//ccCW3aXI.s 			page 2


  37              		.file 2 "../../libDaisy/src/sys/system.h"
   1:../../libDaisy/src/sys/system.h **** #ifndef DSY_SYSTEM_H
   2:../../libDaisy/src/sys/system.h **** #define DSY_SYSTEM_H
   3:../../libDaisy/src/sys/system.h **** 
   4:../../libDaisy/src/sys/system.h **** #ifndef UNIT_TEST // for unit tests, a dummy implementation is provided below
   5:../../libDaisy/src/sys/system.h **** 
   6:../../libDaisy/src/sys/system.h **** #include <cstdint>
   7:../../libDaisy/src/sys/system.h **** #include "per/tim.h"
   8:../../libDaisy/src/sys/system.h **** 
   9:../../libDaisy/src/sys/system.h **** namespace daisy
  10:../../libDaisy/src/sys/system.h **** {
  11:../../libDaisy/src/sys/system.h **** /** A handle for interacting with the Core System.
  12:../../libDaisy/src/sys/system.h ****  ** This includes the Clock tree, MPU, global DMA initialization,
  13:../../libDaisy/src/sys/system.h ****  ** cache handling, and any other necessary global initiailzation
  14:../../libDaisy/src/sys/system.h ****  **
  15:../../libDaisy/src/sys/system.h ****  ** @author shensley
  16:../../libDaisy/src/sys/system.h ****  ** @ingroup system
  17:../../libDaisy/src/sys/system.h ****  */
  18:../../libDaisy/src/sys/system.h **** class System
  19:../../libDaisy/src/sys/system.h **** {
  20:../../libDaisy/src/sys/system.h ****   public:
  21:../../libDaisy/src/sys/system.h ****     /** Contains settings for initializing the System */
  22:../../libDaisy/src/sys/system.h ****     struct Config
  23:../../libDaisy/src/sys/system.h ****     {
  24:../../libDaisy/src/sys/system.h ****         /** Specifies the system clock frequency that feeds APB/AHB clocks, etc. */
  25:../../libDaisy/src/sys/system.h ****         enum class SysClkFreq
  26:../../libDaisy/src/sys/system.h ****         {
  27:../../libDaisy/src/sys/system.h ****             FREQ_400MHZ,
  28:../../libDaisy/src/sys/system.h ****             FREQ_480MHZ,
  29:../../libDaisy/src/sys/system.h ****         };
  30:../../libDaisy/src/sys/system.h **** 
  31:../../libDaisy/src/sys/system.h ****         /** Method to call on the struct to set to defaults
  32:../../libDaisy/src/sys/system.h ****          ** CPU Freq set to 400MHz
  33:../../libDaisy/src/sys/system.h ****          ** Cache Enabled
  34:../../libDaisy/src/sys/system.h ****          ** */
  35:../../libDaisy/src/sys/system.h ****         void Defaults()
  36:../../libDaisy/src/sys/system.h ****         {
  37:../../libDaisy/src/sys/system.h ****             cpu_freq    = SysClkFreq::FREQ_400MHZ;
  38:../../libDaisy/src/sys/system.h ****             use_dcache  = true;
  39:../../libDaisy/src/sys/system.h ****             use_icache  = true;
  40:../../libDaisy/src/sys/system.h ****             skip_clocks = false;
  41:../../libDaisy/src/sys/system.h ****         }
  42:../../libDaisy/src/sys/system.h **** 
  43:../../libDaisy/src/sys/system.h ****         /** Method to call on the struct to set to boost mode:
  44:../../libDaisy/src/sys/system.h ****          ** CPU Freq set to 480MHz
  45:../../libDaisy/src/sys/system.h ****          ** Cache Enabled
  46:../../libDaisy/src/sys/system.h ****          ** */
  47:../../libDaisy/src/sys/system.h ****         void Boost()
  48:../../libDaisy/src/sys/system.h ****         {
  49:../../libDaisy/src/sys/system.h ****             cpu_freq    = SysClkFreq::FREQ_480MHZ;
  50:../../libDaisy/src/sys/system.h ****             use_dcache  = true;
  51:../../libDaisy/src/sys/system.h ****             use_icache  = true;
  52:../../libDaisy/src/sys/system.h ****             skip_clocks = false;
  53:../../libDaisy/src/sys/system.h ****         }
  54:../../libDaisy/src/sys/system.h **** 
  55:../../libDaisy/src/sys/system.h ****         SysClkFreq cpu_freq;
  56:../../libDaisy/src/sys/system.h ****         bool       use_dcache;
ARM GAS  /var/folders/th/s5djnwg15xxc0dk87c413f_h0000gn/T//ccCW3aXI.s 			page 3


  57:../../libDaisy/src/sys/system.h ****         bool       use_icache;
  58:../../libDaisy/src/sys/system.h ****         bool       skip_clocks;
  59:../../libDaisy/src/sys/system.h ****     };
  60:../../libDaisy/src/sys/system.h **** 
  61:../../libDaisy/src/sys/system.h ****     /** Describes the different regions of memory available to the Daisy */
  62:../../libDaisy/src/sys/system.h ****     enum MemoryRegion
  63:../../libDaisy/src/sys/system.h ****     {
  64:../../libDaisy/src/sys/system.h ****         INTERNAL_FLASH = 0,
  65:../../libDaisy/src/sys/system.h ****         ITCMRAM,
  66:../../libDaisy/src/sys/system.h ****         DTCMRAM,
  67:../../libDaisy/src/sys/system.h ****         SRAM_D1,
  68:../../libDaisy/src/sys/system.h ****         SRAM_D2,
  69:../../libDaisy/src/sys/system.h ****         SRAM_D3,
  70:../../libDaisy/src/sys/system.h ****         SDRAM,
  71:../../libDaisy/src/sys/system.h ****         QSPI,
  72:../../libDaisy/src/sys/system.h ****         INVALID_ADDRESS,
  73:../../libDaisy/src/sys/system.h ****     };
  74:../../libDaisy/src/sys/system.h **** 
  75:../../libDaisy/src/sys/system.h ****     /** Bootloader struct for controlling bootloading parameters */
  76:../../libDaisy/src/sys/system.h ****     struct BootInfo
  77:../../libDaisy/src/sys/system.h ****     {
  78:../../libDaisy/src/sys/system.h ****         enum class Type : uint32_t
  79:../../libDaisy/src/sys/system.h ****         {
  80:../../libDaisy/src/sys/system.h ****             INVALID      = 0x00000000,
  81:../../libDaisy/src/sys/system.h ****             JUMP         = 0xDEADBEEF,
  82:../../libDaisy/src/sys/system.h ****             SKIP_TIMEOUT = 0x5AFEB007,
  83:../../libDaisy/src/sys/system.h ****             INF_TIMEOUT  = 0xB0074EFA,
  84:../../libDaisy/src/sys/system.h ****         } status;
  85:../../libDaisy/src/sys/system.h ****         uint32_t data;
  86:../../libDaisy/src/sys/system.h ****         enum class Version : uint32_t
  87:../../libDaisy/src/sys/system.h ****         {
  88:../../libDaisy/src/sys/system.h ****             LT_v6_0 = 0, // Less than v6.0
  89:../../libDaisy/src/sys/system.h ****             NONE,        // No bootloader present
  90:../../libDaisy/src/sys/system.h ****             v6_0,        // v6.0
  91:../../libDaisy/src/sys/system.h ****             v6_1,        // v6.1 or greater
  92:../../libDaisy/src/sys/system.h ****             LAST
  93:../../libDaisy/src/sys/system.h ****         } version;
  94:../../libDaisy/src/sys/system.h ****     };
  95:../../libDaisy/src/sys/system.h **** 
  96:../../libDaisy/src/sys/system.h ****     System() {}
  97:../../libDaisy/src/sys/system.h ****     ~System() {}
  38              		.loc 2 97 5 view .LVU1
  39              		.loc 2 97 5 is_stmt 0 view .LVU2
  40              	.LBE289:
  41              	.LBB290:
  42              	.LBI290:
  43              		.file 3 "../../libDaisy/src/hid/usb.h"
   1:../../libDaisy/src/hid/usb.h **** #pragma once
   2:../../libDaisy/src/hid/usb.h **** #ifndef DSY_HID_USB_H
   3:../../libDaisy/src/hid/usb.h **** #define DSY_HID_USB_H
   4:../../libDaisy/src/hid/usb.h **** #include <stdint.h>
   5:../../libDaisy/src/hid/usb.h **** #include <stdlib.h>
   6:../../libDaisy/src/hid/usb.h **** 
   7:../../libDaisy/src/hid/usb.h **** namespace daisy
   8:../../libDaisy/src/hid/usb.h **** /** @addtogroup human_interface
   9:../../libDaisy/src/hid/usb.h ****     @{
  10:../../libDaisy/src/hid/usb.h **** */
ARM GAS  /var/folders/th/s5djnwg15xxc0dk87c413f_h0000gn/T//ccCW3aXI.s 			page 4


  11:../../libDaisy/src/hid/usb.h **** 
  12:../../libDaisy/src/hid/usb.h **** {
  13:../../libDaisy/src/hid/usb.h **** /** 
  14:../../libDaisy/src/hid/usb.h ****     @brief Interface for initializing and using the USB Peripherals on the daisy
  15:../../libDaisy/src/hid/usb.h ****     @author Stephen Hensley
  16:../../libDaisy/src/hid/usb.h ****     @date December 2019
  17:../../libDaisy/src/hid/usb.h **** */
  18:../../libDaisy/src/hid/usb.h **** class UsbHandle
  19:../../libDaisy/src/hid/usb.h **** {
  20:../../libDaisy/src/hid/usb.h ****   public:
  21:../../libDaisy/src/hid/usb.h ****     /** Return values for USBHandle Functions */
  22:../../libDaisy/src/hid/usb.h ****     enum class Result
  23:../../libDaisy/src/hid/usb.h ****     {
  24:../../libDaisy/src/hid/usb.h ****         OK,
  25:../../libDaisy/src/hid/usb.h ****         ERR,
  26:../../libDaisy/src/hid/usb.h ****     };
  27:../../libDaisy/src/hid/usb.h **** 
  28:../../libDaisy/src/hid/usb.h ****     /** Specified which of the two USB Peripherals to initialize. */
  29:../../libDaisy/src/hid/usb.h ****     enum UsbPeriph
  30:../../libDaisy/src/hid/usb.h ****     {
  31:../../libDaisy/src/hid/usb.h ****         FS_INTERNAL, /**< Internal pin */
  32:../../libDaisy/src/hid/usb.h ****         FS_EXTERNAL, /**< FS External D+ pin is Pin 38 (GPIO32). FS External D- pin is Pin 37 (GPIO
  33:../../libDaisy/src/hid/usb.h ****         FS_BOTH,     /**< Both */
  34:../../libDaisy/src/hid/usb.h ****     };
  35:../../libDaisy/src/hid/usb.h **** 
  36:../../libDaisy/src/hid/usb.h **** 
  37:../../libDaisy/src/hid/usb.h ****     /** Function called upon reception of a buffer */
  38:../../libDaisy/src/hid/usb.h ****     typedef void (*ReceiveCallback)(uint8_t* buff, uint32_t* len);
  39:../../libDaisy/src/hid/usb.h **** 
  40:../../libDaisy/src/hid/usb.h ****     UsbHandle() {}
  41:../../libDaisy/src/hid/usb.h **** 
  42:../../libDaisy/src/hid/usb.h ****     ~UsbHandle() {}
  44              		.loc 3 42 5 is_stmt 1 view .LVU3
  45              		.loc 3 42 5 is_stmt 0 view .LVU4
  46              	.LBE290:
  47              	.LBB291:
  48              	.LBI291:
  49              		.file 4 "../../libDaisy/src/per/adc.h"
   1:../../libDaisy/src/per/adc.h **** #pragma once
   2:../../libDaisy/src/per/adc.h **** #ifndef DSY_ADC_H
   3:../../libDaisy/src/per/adc.h **** #define DSY_ADC_H /**< Macro */
   4:../../libDaisy/src/per/adc.h **** #include <stdint.h>
   5:../../libDaisy/src/per/adc.h **** #include <stdlib.h>
   6:../../libDaisy/src/per/adc.h **** #include "daisy_core.h"
   7:../../libDaisy/src/per/adc.h **** #include "per/gpio.h"
   8:../../libDaisy/src/per/adc.h **** 
   9:../../libDaisy/src/per/adc.h **** #define DSY_ADC_MAX_CHANNELS 16 /**< Maximum number of ADC channels */
  10:../../libDaisy/src/per/adc.h **** 
  11:../../libDaisy/src/per/adc.h **** namespace daisy
  12:../../libDaisy/src/per/adc.h **** {
  13:../../libDaisy/src/per/adc.h **** /** @addtogroup per_analog
  14:../../libDaisy/src/per/adc.h ****     @{
  15:../../libDaisy/src/per/adc.h **** */
  16:../../libDaisy/src/per/adc.h **** 
  17:../../libDaisy/src/per/adc.h **** /* While there may not be many configuration options here,
  18:../../libDaisy/src/per/adc.h **** using a struct like this allows us to add more configuration
  19:../../libDaisy/src/per/adc.h **** later without breaking existing functionality.
ARM GAS  /var/folders/th/s5djnwg15xxc0dk87c413f_h0000gn/T//ccCW3aXI.s 			page 5


  20:../../libDaisy/src/per/adc.h **** */
  21:../../libDaisy/src/per/adc.h **** 
  22:../../libDaisy/src/per/adc.h **** /** @brief   Configuration Structure for an ADC Channel 
  23:../../libDaisy/src/per/adc.h ****  *  @details This can be used to configure a a single input, 
  24:../../libDaisy/src/per/adc.h ****  *           or a multiplexed input, allowing up to 8 inputs on 
  25:../../libDaisy/src/per/adc.h ****  *           one channel.
  26:../../libDaisy/src/per/adc.h ****  *  @note    Sharing data lines to multiple muxes _is_ possible, but
  27:../../libDaisy/src/per/adc.h ****  *           each channel sharing data lines must be set to the maximum
  28:../../libDaisy/src/per/adc.h ****  *           number of channels, even if some multiplexers have fewer
  29:../../libDaisy/src/per/adc.h ****  *           inputs connected.
  30:../../libDaisy/src/per/adc.h **** */
  31:../../libDaisy/src/per/adc.h **** struct AdcChannelConfig
  32:../../libDaisy/src/per/adc.h **** {
  33:../../libDaisy/src/per/adc.h ****     /** Which pin to use for multiplexing */
  34:../../libDaisy/src/per/adc.h ****     enum MuxPin
  35:../../libDaisy/src/per/adc.h ****     {
  36:../../libDaisy/src/per/adc.h ****         MUX_SEL_0,    /**< & */
  37:../../libDaisy/src/per/adc.h ****         MUX_SEL_1,    /**< & */
  38:../../libDaisy/src/per/adc.h ****         MUX_SEL_2,    /**< & */
  39:../../libDaisy/src/per/adc.h ****         MUX_SEL_LAST, /**< & */
  40:../../libDaisy/src/per/adc.h ****     };
  41:../../libDaisy/src/per/adc.h **** 
  42:../../libDaisy/src/per/adc.h ****     /** \brief per channel conversion speed added to fixed time based on bitdepth, etc. */
  43:../../libDaisy/src/per/adc.h ****     enum ConversionSpeed
  44:../../libDaisy/src/per/adc.h ****     {
  45:../../libDaisy/src/per/adc.h ****         SPEED_1CYCLES_5,
  46:../../libDaisy/src/per/adc.h ****         SPEED_2CYCLES_5,
  47:../../libDaisy/src/per/adc.h ****         SPEED_8CYCLES_5,
  48:../../libDaisy/src/per/adc.h ****         SPEED_16CYCLES_5,
  49:../../libDaisy/src/per/adc.h ****         SPEED_32CYCLES_5,
  50:../../libDaisy/src/per/adc.h ****         SPEED_64CYCLES_5,
  51:../../libDaisy/src/per/adc.h ****         SPEED_387CYCLES_5,
  52:../../libDaisy/src/per/adc.h ****         SPEED_810CYCLES_5,
  53:../../libDaisy/src/per/adc.h ****     };
  54:../../libDaisy/src/per/adc.h **** 
  55:../../libDaisy/src/per/adc.h ****     /** Initializes a single ADC pin as an ADC. 
  56:../../libDaisy/src/per/adc.h ****     \param pin Pin to init.
  57:../../libDaisy/src/per/adc.h ****     \param speed conversion speed for this pin defaults to 8.5 cycles
  58:../../libDaisy/src/per/adc.h ****      */
  59:../../libDaisy/src/per/adc.h ****     void InitSingle(dsy_gpio_pin pin, ConversionSpeed speed = SPEED_8CYCLES_5);
  60:../../libDaisy/src/per/adc.h **** 
  61:../../libDaisy/src/per/adc.h ****     /** 
  62:../../libDaisy/src/per/adc.h ****     Initializes a single ADC pin as a Multiplexed ADC.
  63:../../libDaisy/src/per/adc.h ****     Requires a CD405X Multiplexer connected to the pin.
  64:../../libDaisy/src/per/adc.h ****     You only need to supply the mux pins that are required,
  65:../../libDaisy/src/per/adc.h ****     e.g. a 4052 mux would only require mux_0 and mux_1.
  66:../../libDaisy/src/per/adc.h ****     Internal Callbacks handle the pin addressing.
  67:../../libDaisy/src/per/adc.h ****     \param adc_pin &
  68:../../libDaisy/src/per/adc.h ****     \param mux_channels must be 1-8
  69:../../libDaisy/src/per/adc.h ****     \param mux_0 First mux pin
  70:../../libDaisy/src/per/adc.h ****     \param mux_1 Second mux pin
  71:../../libDaisy/src/per/adc.h ****     \param mux_2 Third mux pin
  72:../../libDaisy/src/per/adc.h ****     \param speed conversion speed for this pin defaults to 8.5 cycles
  73:../../libDaisy/src/per/adc.h ****     */
  74:../../libDaisy/src/per/adc.h ****     void InitMux(dsy_gpio_pin    adc_pin,
  75:../../libDaisy/src/per/adc.h ****                  size_t          mux_channels,
  76:../../libDaisy/src/per/adc.h ****                  dsy_gpio_pin    mux_0,
ARM GAS  /var/folders/th/s5djnwg15xxc0dk87c413f_h0000gn/T//ccCW3aXI.s 			page 6


  77:../../libDaisy/src/per/adc.h ****                  dsy_gpio_pin    mux_1 = {DSY_GPIOX, 0},
  78:../../libDaisy/src/per/adc.h ****                  dsy_gpio_pin    mux_2 = {DSY_GPIOX, 0},
  79:../../libDaisy/src/per/adc.h ****                  ConversionSpeed speed = SPEED_8CYCLES_5);
  80:../../libDaisy/src/per/adc.h **** 
  81:../../libDaisy/src/per/adc.h ****     dsy_gpio        pin_;                   /**< & */
  82:../../libDaisy/src/per/adc.h ****     dsy_gpio        mux_pin_[MUX_SEL_LAST]; /**< & */
  83:../../libDaisy/src/per/adc.h ****     uint8_t         mux_channels_;          /**< & */
  84:../../libDaisy/src/per/adc.h ****     ConversionSpeed speed_;
  85:../../libDaisy/src/per/adc.h **** };
  86:../../libDaisy/src/per/adc.h **** 
  87:../../libDaisy/src/per/adc.h **** /**
  88:../../libDaisy/src/per/adc.h ****    @brief Handler for analog to digital conversion
  89:../../libDaisy/src/per/adc.h **** */
  90:../../libDaisy/src/per/adc.h **** class AdcHandle
  91:../../libDaisy/src/per/adc.h **** {
  92:../../libDaisy/src/per/adc.h ****   public:
  93:../../libDaisy/src/per/adc.h ****     /** Supported oversampling amounts */
  94:../../libDaisy/src/per/adc.h ****     enum OverSampling
  95:../../libDaisy/src/per/adc.h ****     {
  96:../../libDaisy/src/per/adc.h ****         OVS_NONE, /**< & */
  97:../../libDaisy/src/per/adc.h ****         OVS_4,    /**< & */
  98:../../libDaisy/src/per/adc.h ****         OVS_8,    /**< & */
  99:../../libDaisy/src/per/adc.h ****         OVS_16,   /**< & */
 100:../../libDaisy/src/per/adc.h ****         OVS_32,   /**< & */
 101:../../libDaisy/src/per/adc.h ****         OVS_64,   /**< & */
 102:../../libDaisy/src/per/adc.h ****         OVS_128,  /**< & */
 103:../../libDaisy/src/per/adc.h ****         OVS_256,  /**< & */
 104:../../libDaisy/src/per/adc.h ****         OVS_512,  /**< & */
 105:../../libDaisy/src/per/adc.h ****         OVS_1024, /**< & */
 106:../../libDaisy/src/per/adc.h ****         OVS_LAST, /**< & */
 107:../../libDaisy/src/per/adc.h ****     };
 108:../../libDaisy/src/per/adc.h **** 
 109:../../libDaisy/src/per/adc.h ****     AdcHandle() {}
 110:../../libDaisy/src/per/adc.h ****     ~AdcHandle() {}
  50              		.loc 4 110 5 is_stmt 1 view .LVU5
  51              		.loc 4 110 5 is_stmt 0 view .LVU6
  52              	.LBE291:
  53              	.LBB292:
  54              	.LBI292:
  55              		.file 5 "../../libDaisy/src/hid/audio.h"
   1:../../libDaisy/src/hid/audio.h **** #ifndef DSY_AUDIO_H
   2:../../libDaisy/src/hid/audio.h **** #define DSY_AUDIO_H /**< & */
   3:../../libDaisy/src/hid/audio.h **** 
   4:../../libDaisy/src/hid/audio.h **** #include "per/sai.h"
   5:../../libDaisy/src/hid/audio.h **** 
   6:../../libDaisy/src/hid/audio.h **** namespace daisy
   7:../../libDaisy/src/hid/audio.h **** {
   8:../../libDaisy/src/hid/audio.h **** /** @brief Audio Engine Handle
   9:../../libDaisy/src/hid/audio.h ****  *  @ingroup audio 
  10:../../libDaisy/src/hid/audio.h ****  *  @details This class allows for higher level access to an audio engine.
  11:../../libDaisy/src/hid/audio.h ****  *           If you're using a SOM like the DaisySeed or DaisyPatchSM (or any 
  12:../../libDaisy/src/hid/audio.h ****  *            board that includes one of those objects) then the intialization
  13:../../libDaisy/src/hid/audio.h ****  *            is already taken  care of.
  14:../../libDaisy/src/hid/audio.h ****  *           If you're setting up your own custom hardware, or need to make changes
  15:../../libDaisy/src/hid/audio.h ****  *           you will have to take the following steps:
  16:../../libDaisy/src/hid/audio.h ****  *             1. Create and Initialize an SaiHandle or two depending on your requirements
  17:../../libDaisy/src/hid/audio.h ****  *             2. Initialize the Audio Handle with the desired settings and the Initialized SaiHand
ARM GAS  /var/folders/th/s5djnwg15xxc0dk87c413f_h0000gn/T//ccCW3aXI.s 			page 7


  18:../../libDaisy/src/hid/audio.h ****  *             3. If the connected codec requires special configuration or initialization, do so
  19:../../libDaisy/src/hid/audio.h ****  *             4. Write a callback method using either the AudioCallback or the InterleavingAudioCa
  20:../../libDaisy/src/hid/audio.h ****  *             5. Start the Audio using one of the StartAudio function
  21:../../libDaisy/src/hid/audio.h ****  */
  22:../../libDaisy/src/hid/audio.h **** class AudioHandle
  23:../../libDaisy/src/hid/audio.h **** {
  24:../../libDaisy/src/hid/audio.h ****   public:
  25:../../libDaisy/src/hid/audio.h ****     /** Manually configurable details about the Audio Engine */
  26:../../libDaisy/src/hid/audio.h ****     /** TODO: Figure out how to get samplerate in here. */
  27:../../libDaisy/src/hid/audio.h ****     struct Config
  28:../../libDaisy/src/hid/audio.h ****     {
  29:../../libDaisy/src/hid/audio.h ****         /** number of samples to process per callback */
  30:../../libDaisy/src/hid/audio.h ****         size_t blocksize;
  31:../../libDaisy/src/hid/audio.h **** 
  32:../../libDaisy/src/hid/audio.h ****         /**< Sample rate of audio */
  33:../../libDaisy/src/hid/audio.h ****         SaiHandle::Config::SampleRate samplerate;
  34:../../libDaisy/src/hid/audio.h **** 
  35:../../libDaisy/src/hid/audio.h ****         /** factor for adjustment before and after callback for hardware that may have extra headro
  36:../../libDaisy/src/hid/audio.h ****         float postgain;
  37:../../libDaisy/src/hid/audio.h **** 
  38:../../libDaisy/src/hid/audio.h ****         /** factor for additional one-sided compensation to audio path for hardware that may
  39:../../libDaisy/src/hid/audio.h ****          *  have unequal input/output ranges
  40:../../libDaisy/src/hid/audio.h ****          */
  41:../../libDaisy/src/hid/audio.h ****         float output_compensation;
  42:../../libDaisy/src/hid/audio.h **** 
  43:../../libDaisy/src/hid/audio.h ****         /** Sets default values for config struct */
  44:../../libDaisy/src/hid/audio.h ****         Config()
  45:../../libDaisy/src/hid/audio.h ****         : blocksize(48),
  46:../../libDaisy/src/hid/audio.h ****           samplerate(SaiHandle::Config::SampleRate::SAI_48KHZ),
  47:../../libDaisy/src/hid/audio.h ****           postgain(1.f),
  48:../../libDaisy/src/hid/audio.h ****           output_compensation(1.f)
  49:../../libDaisy/src/hid/audio.h ****         {
  50:../../libDaisy/src/hid/audio.h ****         }
  51:../../libDaisy/src/hid/audio.h ****     };
  52:../../libDaisy/src/hid/audio.h **** 
  53:../../libDaisy/src/hid/audio.h ****     enum class Result
  54:../../libDaisy/src/hid/audio.h ****     {
  55:../../libDaisy/src/hid/audio.h ****         OK,
  56:../../libDaisy/src/hid/audio.h ****         ERR,
  57:../../libDaisy/src/hid/audio.h ****     };
  58:../../libDaisy/src/hid/audio.h **** 
  59:../../libDaisy/src/hid/audio.h ****     /** Non-Interleaving input buffer
  60:../../libDaisy/src/hid/audio.h ****      * Buffer arranged by float[chn][sample] 
  61:../../libDaisy/src/hid/audio.h ****      * const so that the user can't modify the input
  62:../../libDaisy/src/hid/audio.h ****      */
  63:../../libDaisy/src/hid/audio.h ****     typedef const float* const* InputBuffer;
  64:../../libDaisy/src/hid/audio.h **** 
  65:../../libDaisy/src/hid/audio.h ****     /** Non-Interleaving output buffer
  66:../../libDaisy/src/hid/audio.h ****      * Arranged by float[chn][sample] 
  67:../../libDaisy/src/hid/audio.h ****      */
  68:../../libDaisy/src/hid/audio.h ****     typedef float** OutputBuffer;
  69:../../libDaisy/src/hid/audio.h **** 
  70:../../libDaisy/src/hid/audio.h ****     /** Type for a Non-Interleaving audio callback 
  71:../../libDaisy/src/hid/audio.h ****      * Non-Interleaving audio callbacks in daisy will be of this type
  72:../../libDaisy/src/hid/audio.h ****      */
  73:../../libDaisy/src/hid/audio.h ****     typedef void (*AudioCallback)(InputBuffer  in,
  74:../../libDaisy/src/hid/audio.h ****                                   OutputBuffer out,
ARM GAS  /var/folders/th/s5djnwg15xxc0dk87c413f_h0000gn/T//ccCW3aXI.s 			page 8


  75:../../libDaisy/src/hid/audio.h ****                                   size_t       size);
  76:../../libDaisy/src/hid/audio.h **** 
  77:../../libDaisy/src/hid/audio.h ****     /** Interleaving Input buffer
  78:../../libDaisy/src/hid/audio.h ****      ** audio is prepared as { L0, R0, L1, R1, . . . LN, RN }]
  79:../../libDaisy/src/hid/audio.h ****      ** this is const, as the user shouldn't modify it
  80:../../libDaisy/src/hid/audio.h ****     */
  81:../../libDaisy/src/hid/audio.h ****     typedef const float* InterleavingInputBuffer;
  82:../../libDaisy/src/hid/audio.h **** 
  83:../../libDaisy/src/hid/audio.h ****     /** Interleaving Output buffer 
  84:../../libDaisy/src/hid/audio.h ****      ** audio is prepared as { L0, R0, L1, R1, . . . LN, RN }
  85:../../libDaisy/src/hid/audio.h ****     */
  86:../../libDaisy/src/hid/audio.h ****     typedef float* InterleavingOutputBuffer;
  87:../../libDaisy/src/hid/audio.h **** 
  88:../../libDaisy/src/hid/audio.h ****     /** Interleaving Audio Callback 
  89:../../libDaisy/src/hid/audio.h ****      * Interleaving audio callbacks in daisy must be of this type
  90:../../libDaisy/src/hid/audio.h ****      */
  91:../../libDaisy/src/hid/audio.h ****     typedef void (*InterleavingAudioCallback)(InterleavingInputBuffer  in,
  92:../../libDaisy/src/hid/audio.h ****                                               InterleavingOutputBuffer out,
  93:../../libDaisy/src/hid/audio.h ****                                               size_t                   size);
  94:../../libDaisy/src/hid/audio.h **** 
  95:../../libDaisy/src/hid/audio.h ****     AudioHandle() : pimpl_(nullptr) {}
  96:../../libDaisy/src/hid/audio.h ****     ~AudioHandle() {}
  56              		.loc 5 96 5 is_stmt 1 view .LVU7
  57              		.loc 5 96 5 is_stmt 0 view .LVU8
  58              	.LBE292:
  59              		.loc 1 22 19 view .LVU9
  60 0000 7047     		bx	lr
  61              		.cfi_endproc
  62              	.LFE4477:
  64              		.weak	_ZN5daisy9DaisySeedD1Ev
  65              		.thumb_set _ZN5daisy9DaisySeedD1Ev,_ZN5daisy9DaisySeedD2Ev
  66 0002 00BF     		.section	.text._ZL13AudioCallbackPKPKfPPfj,"ax",%progbits
  67              		.align	1
  68              		.p2align 2,,3
  69              		.syntax unified
  70              		.thumb
  71              		.thumb_func
  73              	_ZL13AudioCallbackPKPKfPPfj:
  74              	.LVL1:
  75              	.LFB4525:
  76              		.file 6 "WavPlayer.cpp"
   1:WavPlayer.cpp **** /**
   2:WavPlayer.cpp ****  * stringtone ŌĆö Hall-Effect Sensor Instrument
   3:WavPlayer.cpp ****  * ŌöĆŌöĆŌöĆŌöĆŌöĆŌöĆŌöĆŌöĆŌöĆŌöĆŌöĆŌöĆŌöĆŌöĆŌöĆŌöĆŌöĆŌöĆŌöĆŌöĆŌöĆŌöĆŌöĆŌöĆŌöĆŌöĆŌöĆŌöĆŌöĆŌöĆŌöĆŌöĆ
   4:WavPlayer.cpp ****  * Target : Daisy Seed (STM32H750) + libDaisy
   5:WavPlayer.cpp ****  * Author : Alex Ikeda
   6:WavPlayer.cpp ****  *
   7:WavPlayer.cpp ****  * ŌöĆŌöĆ Hardware connections ŌöĆŌöĆŌöĆŌöĆŌöĆŌöĆŌöĆŌöĆŌöĆŌöĆŌöĆŌöĆŌöĆŌöĆŌöĆŌöĆŌöĆŌöĆŌöĆŌöĆŌöĆŌöĆŌö
   8:WavPlayer.cpp ****  *
   9:WavPlayer.cpp ****  *  Selector mux  (controls which channel mux is enabled)
  10:WavPlayer.cpp ****  *    S0 ŌåÆ D17 | S1 ŌåÆ D16 | S2 ŌåÆ D15
  11:WavPlayer.cpp ****  *
  12:WavPlayer.cpp ****  *  Channel muxes (8├Ś, all share the same address lines)
  13:WavPlayer.cpp ****  *    S0 ŌåÆ D20 | S1 ŌåÆ D19 | S2 ŌåÆ D18
  14:WavPlayer.cpp ****  *
  15:WavPlayer.cpp ****  *  Analog input  ŌĆö active sensor output ŌåÆ A8
  16:WavPlayer.cpp ****  *  Audio output  ŌĆö waveform ŌåÆ OUT_L (audio out 1)
ARM GAS  /var/folders/th/s5djnwg15xxc0dk87c413f_h0000gn/T//ccCW3aXI.s 			page 9


  17:WavPlayer.cpp ****  *
  18:WavPlayer.cpp ****  * ŌöĆŌöĆ Grid addressing (col 0..7, row 0..7) ŌöĆŌöĆŌöĆŌöĆŌöĆŌöĆŌöĆŌöĆŌöĆŌöĆŌöĆŌöĆŌöĆŌöĆŌöĆŌöĆŌöĆŌ
  19:WavPlayer.cpp ****  *
  20:WavPlayer.cpp ****  *  col_pair     = col / 2
  21:WavPlayer.cpp ****  *  channel_base = (col % 2 == 0) ? 4 : 0      even cols use ch 4ŌĆō7, odd use 0ŌĆō3
  22:WavPlayer.cpp ****  *  selector     = col_pair * 2 + (row >= 4)    top half ŌåÆ even sel, bottom ŌåÆ odd
  23:WavPlayer.cpp ****  *  ch_address   = channel_base + (row % 4)
  24:WavPlayer.cpp ****  *
  25:WavPlayer.cpp ****  *  Example:  col=0 row=0 ŌåÆ sel=0 ch=4  (top of col 1, sensor a4, selector a0)
  26:WavPlayer.cpp ****  *            col=0 row=6 ŌåÆ sel=1 ch=6  (bottom of col 1, sensor a6, selector a1)
  27:WavPlayer.cpp ****  *            col=1 row=0 ŌåÆ sel=0 ch=0  (top of col 2, sensor a0, selector a0)
  28:WavPlayer.cpp ****  *
  29:WavPlayer.cpp ****  * ŌöĆŌöĆ Waveform semantics ŌöĆŌöĆŌöĆŌöĆŌöĆŌöĆŌöĆŌöĆŌöĆŌöĆŌöĆŌöĆŌöĆŌöĆŌöĆŌöĆŌöĆŌöĆŌöĆŌöĆŌöĆŌöĆŌöĆŌ
  30:WavPlayer.cpp ****  *
  31:WavPlayer.cpp ****  *  Per-column positions feed 8 control points: amp0..amp7
  32:WavPlayer.cpp ****  *  ZERO_ROW (3.5) is the zero-amplitude reference ŌĆö the midpoint between rows 3
  33:WavPlayer.cpp ****  *  and 4.  The mapping is symmetric: p=0 ŌåÆ ŌłÆ1.0, p=3.5 ŌåÆ 0.0, p=7 ŌåÆ +1.0.
  34:WavPlayer.cpp ****  *  At idle (no magnet), UpdatePosition holds each column at ZERO_ROW, so all
  35:WavPlayer.cpp ****  *  control points remain at 0 and the output is silence.
  36:WavPlayer.cpp ****  *  Interpolated via Catmull-Rom cubic Hermite ŌåÆ smooth but saw/triangle capable.
  37:WavPlayer.cpp ****  *  Wavetable swaps use a short linear crossfade (CROSSFADE_LEN samples) so
  38:WavPlayer.cpp ****  *  clicks are eliminated regardless of waveform shape at the swap point.
  39:WavPlayer.cpp ****  *
  40:WavPlayer.cpp ****  * ŌöĆŌöĆ Noise filtering ŌöĆŌöĆŌöĆŌöĆŌöĆŌöĆŌöĆŌöĆŌöĆŌöĆŌöĆŌöĆŌöĆŌöĆŌöĆŌöĆŌöĆŌöĆŌöĆŌöĆŌöĆŌöĆŌöĆŌöĆŌ
  41:WavPlayer.cpp ****  *
  42:WavPlayer.cpp ****  *  1. Deviation threshold (kNoiseFloor):       sensor differences (compared to baseline) 
  43:WavPlayer.cpp ****  *                                              below this are ignored.
  44:WavPlayer.cpp ****  *  2. Centroid weighting:                      position is the deviation-weighted
  45:WavPlayer.cpp ****  *                                              centroid of all active sensors,
  46:WavPlayer.cpp ****  *                                              giving sub-sensor precision for free.
  47:WavPlayer.cpp ****  *  3. Hysteresis dead-zone (kPosDead):         new centroid must differ from current
  48:WavPlayer.cpp ****  *                                              position by > kPosDead to register.
  49:WavPlayer.cpp ****  *  4. Smoothing (kSmooth):                     moving average on position
  50:WavPlayer.cpp ****  *                                              eliminates residual scan-to-scan jitter.
  51:WavPlayer.cpp ****  */
  52:WavPlayer.cpp **** 
  53:WavPlayer.cpp **** 
  54:WavPlayer.cpp **** // Install libDaisy here: https://daisy.audio/tutorials/cpp-dev-env/
  55:WavPlayer.cpp **** #include <daisy_seed.h>
  56:WavPlayer.cpp **** #include <dev/oled_ssd130x.h>
  57:WavPlayer.cpp **** #include <per/i2c.h>
  58:WavPlayer.cpp **** 
  59:WavPlayer.cpp **** #include <algorithm>   // std::clamp
  60:WavPlayer.cpp **** #include <cmath>       // std::abs, std::fabsf
  61:WavPlayer.cpp **** #include <cstring>     // std::memset
  62:WavPlayer.cpp **** 
  63:WavPlayer.cpp **** using namespace daisy;
  64:WavPlayer.cpp **** 
  65:WavPlayer.cpp **** // ŌĢÉŌĢÉŌĢÉŌĢÉŌĢÉŌĢÉŌĢÉŌĢÉŌĢÉŌĢÉŌĢÉŌĢÉŌĢÉŌĢÉŌĢÉŌĢÉŌĢÉŌĢÉŌĢÉŌĢÉŌĢÉŌĢÉŌĢÉŌĢÉŌĢÉŌĢÉŌĢÉŌĢÉŌĢÉŌĢÉŌĢÉŌĢÉ
  66:WavPlayer.cpp **** //  Constants  (do not change at runtime)
  67:WavPlayer.cpp **** // ŌĢÉŌĢÉŌĢÉŌĢÉŌĢÉŌĢÉŌĢÉŌĢÉŌĢÉŌĢÉŌĢÉŌĢÉŌĢÉŌĢÉŌĢÉŌĢÉŌĢÉŌĢÉŌĢÉŌĢÉŌĢÉŌĢÉŌĢÉŌĢÉŌĢÉŌĢÉŌĢÉŌĢÉŌĢÉŌĢÉŌĢÉŌĢÉ
  68:WavPlayer.cpp **** 
  69:WavPlayer.cpp **** static constexpr int   STARTUP_DELAY_MS = 1000;
  70:WavPlayer.cpp **** static constexpr int   BASELINE_FACTOR = 5; // Delay multiplier for baseline reads, to ensure the s
  71:WavPlayer.cpp **** static constexpr int   NUM_COLS       = 8;
  72:WavPlayer.cpp **** static constexpr int   NUM_ROWS       = 8;
  73:WavPlayer.cpp **** static constexpr int   WAVETABLE_SIZE = 2048;   // samples per waveform period, linear interpolatio
ARM GAS  /var/folders/th/s5djnwg15xxc0dk87c413f_h0000gn/T//ccCW3aXI.s 			page 10


  74:WavPlayer.cpp ****                                                 // samples depending on sample rate
  75:WavPlayer.cpp **** static constexpr int   CTRL_PTS       = 8;      // one control point per column, for Catmull-Rom in
  76:WavPlayer.cpp **** static constexpr float ZERO_ROW       = 3.5f;   // midpoint between rows 3 and 4 ŌåÆ 0.0 amplitude
  77:WavPlayer.cpp ****                                                 // p=0 ŌåÆ ŌłÆ1.0, p=3.5 ŌåÆ 0.0, p=7.0 ŌåÆ +1.0
  78:WavPlayer.cpp **** static constexpr float SUPPLY_VOLTS   = 3.3f;   // ADC reference voltage
  79:WavPlayer.cpp **** 
  80:WavPlayer.cpp **** // Crossfade length in samples.  At 48 kHz this is Ōēł 2.7 ms ŌĆö long enough to
  81:WavPlayer.cpp **** // suppress any discontinuity click, short enough to be imperceptible as lag.
  82:WavPlayer.cpp **** // Must be shorter than one full scan cycle (Ōēł 9.6 ms at kScanDelayUs = 150).
  83:WavPlayer.cpp **** static constexpr int   CROSSFADE_LEN  = 500;
  84:WavPlayer.cpp **** 
  85:WavPlayer.cpp **** // ŌĢÉŌĢÉŌĢÉŌĢÉŌĢÉŌĢÉŌĢÉŌĢÉŌĢÉŌĢÉŌĢÉŌĢÉŌĢÉŌĢÉŌĢÉŌĢÉŌĢÉŌĢÉŌĢÉŌĢÉŌĢÉŌĢÉŌĢÉŌĢÉŌĢÉŌĢÉŌĢÉŌĢÉŌĢÉŌĢÉŌĢÉŌĢÉ
  86:WavPlayer.cpp **** //  User-adjustable parameters
  87:WavPlayer.cpp **** // ŌĢÉŌĢÉŌĢÉŌĢÉŌĢÉŌĢÉŌĢÉŌĢÉŌĢÉŌĢÉŌĢÉŌĢÉŌĢÉŌĢÉŌĢÉŌĢÉŌĢÉŌĢÉŌĢÉŌĢÉŌĢÉŌĢÉŌĢÉŌĢÉŌĢÉŌĢÉŌĢÉŌĢÉŌĢÉŌĢÉŌĢÉŌĢÉ
  88:WavPlayer.cpp **** 
  89:WavPlayer.cpp **** static float baseline[NUM_COLS][NUM_ROWS];
  90:WavPlayer.cpp **** 
  91:WavPlayer.cpp **** static float    kNoiseFloor     = 0.040f;   // |deviation| below which a sensor is ignored (V)
  92:WavPlayer.cpp **** static float    kPosDead        = 0.01f;    // Dead-zone for centroid hysteresis (row units)
  93:WavPlayer.cpp **** static float    kSmooth         = 1.0f;     // Smoothing coefficient  [0=frozen, 1=instant]
  94:WavPlayer.cpp **** static float    kSplineTension  = 0.0f;     // Tensiopn parameter for Catmull-Rom spline (0 = stand
  95:WavPlayer.cpp **** 
  96:WavPlayer.cpp **** static uint32_t kScanDelayUs = 100;    // ┬Ąs to wait after changing MUX address
  97:WavPlayer.cpp **** 
  98:WavPlayer.cpp **** static bool     kDebugStep      = false;
  99:WavPlayer.cpp **** static bool     kDebugDisplay   = true;
 100:WavPlayer.cpp **** static bool     kDebugParams    = false;
 101:WavPlayer.cpp **** static uint32_t kDebugDelayMs   = 100;
 102:WavPlayer.cpp **** 
 103:WavPlayer.cpp **** static float    kPlayFrequency  = 80.0f; // Hz ŌĆö A3 by default
 104:WavPlayer.cpp **** 
 105:WavPlayer.cpp **** // ŌĢÉŌĢÉŌĢÉŌĢÉŌĢÉŌĢÉŌĢÉŌĢÉŌĢÉŌĢÉŌĢÉŌĢÉŌĢÉŌĢÉŌĢÉŌĢÉŌĢÉŌĢÉŌĢÉŌĢÉŌĢÉŌĢÉŌĢÉŌĢÉŌĢÉŌĢÉŌĢÉŌĢÉŌĢÉŌĢÉŌĢÉŌĢÉ
 106:WavPlayer.cpp **** //  Hardware objects
 107:WavPlayer.cpp **** // ŌĢÉŌĢÉŌĢÉŌĢÉŌĢÉŌĢÉŌĢÉŌĢÉŌĢÉŌĢÉŌĢÉŌĢÉŌĢÉŌĢÉŌĢÉŌĢÉŌĢÉŌĢÉŌĢÉŌĢÉŌĢÉŌĢÉŌĢÉŌĢÉŌĢÉŌĢÉŌĢÉŌĢÉŌĢÉŌĢÉŌĢÉŌĢÉ
 108:WavPlayer.cpp **** 
 109:WavPlayer.cpp **** static DaisySeed hw;
 110:WavPlayer.cpp **** 
 111:WavPlayer.cpp **** static SSD130xDriver<128, 64, SSD130xI2CTransport>         display;
 112:WavPlayer.cpp **** static SSD130xDriver<128, 64, SSD130xI2CTransport>::Config display_config;
 113:WavPlayer.cpp **** 
 114:WavPlayer.cpp **** static GPIO sel_gpio[3];   // Selector mux: S0ŌåÆD17, S1ŌåÆD16, S2ŌåÆD15
 115:WavPlayer.cpp **** static GPIO ch_gpio[3];    // Channel muxes: S0ŌåÆD20, S1ŌåÆD19, S2ŌåÆD18
 116:WavPlayer.cpp **** 
 117:WavPlayer.cpp **** static GPIO noise_floor_gpio;
 118:WavPlayer.cpp **** static GPIO pos_dead_gpio;
 119:WavPlayer.cpp **** static GPIO smooth_gpio;
 120:WavPlayer.cpp **** static GPIO scan_delay_gpio;
 121:WavPlayer.cpp **** 
 122:WavPlayer.cpp **** // ŌĢÉŌĢÉŌĢÉŌĢÉŌĢÉŌĢÉŌĢÉŌĢÉŌĢÉŌĢÉŌĢÉŌĢÉŌĢÉŌĢÉŌĢÉŌĢÉŌĢÉŌĢÉŌĢÉŌĢÉŌĢÉŌĢÉŌĢÉŌĢÉŌĢÉŌĢÉŌĢÉŌĢÉŌĢÉŌĢÉŌĢÉŌĢÉ
 123:WavPlayer.cpp **** //  Sensor & position state
 124:WavPlayer.cpp **** // ŌĢÉŌĢÉŌĢÉŌĢÉŌĢÉŌĢÉŌĢÉŌĢÉŌĢÉŌĢÉŌĢÉŌĢÉŌĢÉŌĢÉŌĢÉŌĢÉŌĢÉŌĢÉŌĢÉŌĢÉŌĢÉŌĢÉŌĢÉŌĢÉŌĢÉŌĢÉŌĢÉŌĢÉŌĢÉŌĢÉŌĢÉŌĢÉ
 125:WavPlayer.cpp **** 
 126:WavPlayer.cpp **** static float sensor_v[NUM_COLS][NUM_ROWS]; // ADC readings in volts, updated each scan
 127:WavPlayer.cpp **** static float col_pos[NUM_COLS];            // hysteresis-gated centroid positions (0..7)
 128:WavPlayer.cpp **** static float col_pos_smooth[NUM_COLS];     // IIR-smoothed positions fed to waveform
 129:WavPlayer.cpp **** 
 130:WavPlayer.cpp **** // ŌĢÉŌĢÉŌĢÉŌĢÉŌĢÉŌĢÉŌĢÉŌĢÉŌĢÉŌĢÉŌĢÉŌĢÉŌĢÉŌĢÉŌĢÉŌĢÉŌĢÉŌĢÉŌĢÉŌĢÉŌĢÉŌĢÉŌĢÉŌĢÉŌĢÉŌĢÉŌĢÉŌĢÉŌĢÉŌĢÉŌĢÉŌĢÉ
ARM GAS  /var/folders/th/s5djnwg15xxc0dk87c413f_h0000gn/T//ccCW3aXI.s 			page 11


 131:WavPlayer.cpp **** //  Wavetable ŌĆö double-buffered for click-free updates
 132:WavPlayer.cpp **** // ŌĢÉŌĢÉŌĢÉŌĢÉŌĢÉŌĢÉŌĢÉŌĢÉŌĢÉŌĢÉŌĢÉŌĢÉŌĢÉŌĢÉŌĢÉŌĢÉŌĢÉŌĢÉŌĢÉŌĢÉŌĢÉŌĢÉŌĢÉŌĢÉŌĢÉŌĢÉŌĢÉŌĢÉŌĢÉŌĢÉŌĢÉŌĢÉ
 133:WavPlayer.cpp **** 
 134:WavPlayer.cpp **** static float            wavetable[2][WAVETABLE_SIZE];
 135:WavPlayer.cpp **** static volatile int     active_buf  = 0;
 136:WavPlayer.cpp **** static volatile bool    buf_pending = false;
 137:WavPlayer.cpp **** 
 138:WavPlayer.cpp **** static float phase = 0.0f; // normalised playback phase [0, 1)
 139:WavPlayer.cpp **** 
 140:WavPlayer.cpp **** // ŌĢÉŌĢÉŌĢÉŌĢÉŌĢÉŌĢÉŌĢÉŌĢÉŌĢÉŌĢÉŌĢÉŌĢÉŌĢÉŌĢÉŌĢÉŌĢÉŌĢÉŌĢÉŌĢÉŌĢÉŌĢÉŌĢÉŌĢÉŌĢÉŌĢÉŌĢÉŌĢÉŌĢÉŌĢÉŌĢÉŌĢÉŌĢÉ
 141:WavPlayer.cpp **** //  MUX addressing helpers
 142:WavPlayer.cpp **** // ŌĢÉŌĢÉŌĢÉŌĢÉŌĢÉŌĢÉŌĢÉŌĢÉŌĢÉŌĢÉŌĢÉŌĢÉŌĢÉŌĢÉŌĢÉŌĢÉŌĢÉŌĢÉŌĢÉŌĢÉŌĢÉŌĢÉŌĢÉŌĢÉŌĢÉŌĢÉŌĢÉŌĢÉŌĢÉŌĢÉŌĢÉŌĢÉ
 143:WavPlayer.cpp **** 
 144:WavPlayer.cpp **** static inline void SetSelectorAddr(uint8_t addr)
 145:WavPlayer.cpp **** {
 146:WavPlayer.cpp ****     sel_gpio[0].Write((addr >> 0) & 1u);
 147:WavPlayer.cpp ****     sel_gpio[1].Write((addr >> 1) & 1u);
 148:WavPlayer.cpp ****     sel_gpio[2].Write((addr >> 2) & 1u);
 149:WavPlayer.cpp **** }
 150:WavPlayer.cpp **** 
 151:WavPlayer.cpp **** static inline void SetChannelAddr(uint8_t addr)
 152:WavPlayer.cpp **** {
 153:WavPlayer.cpp ****     ch_gpio[0].Write((addr >> 0) & 1u);
 154:WavPlayer.cpp ****     ch_gpio[1].Write((addr >> 1) & 1u);
 155:WavPlayer.cpp ****     ch_gpio[2].Write((addr >> 2) & 1u);
 156:WavPlayer.cpp **** }
 157:WavPlayer.cpp **** 
 158:WavPlayer.cpp **** static void GetMuxAddrs(int col, int row, uint8_t &sel, uint8_t &ch)
 159:WavPlayer.cpp **** {
 160:WavPlayer.cpp ****     const int col_pair = col / 2;
 161:WavPlayer.cpp ****     const int ch_base  = (col % 2 == 0) ? 4 : 0;
 162:WavPlayer.cpp ****     sel = static_cast<uint8_t>(col_pair * 2 + (row >= 4 ? 1 : 0));
 163:WavPlayer.cpp ****     ch  = static_cast<uint8_t>(ch_base  + (row % 4));
 164:WavPlayer.cpp **** }
 165:WavPlayer.cpp **** 
 166:WavPlayer.cpp **** // ŌĢÉŌĢÉŌĢÉŌĢÉŌĢÉŌĢÉŌĢÉŌĢÉŌĢÉŌĢÉŌĢÉŌĢÉŌĢÉŌĢÉŌĢÉŌĢÉŌĢÉŌĢÉŌĢÉŌĢÉŌĢÉŌĢÉŌĢÉŌĢÉŌĢÉŌĢÉŌĢÉŌĢÉŌĢÉŌĢÉŌĢÉŌĢÉ
 167:WavPlayer.cpp **** //  Position estimation
 168:WavPlayer.cpp **** // ŌĢÉŌĢÉŌĢÉŌĢÉŌĢÉŌĢÉŌĢÉŌĢÉŌĢÉŌĢÉŌĢÉŌĢÉŌĢÉŌĢÉŌĢÉŌĢÉŌĢÉŌĢÉŌĢÉŌĢÉŌĢÉŌĢÉŌĢÉŌĢÉŌĢÉŌĢÉŌĢÉŌĢÉŌĢÉŌĢÉŌĢÉŌĢÉ
 169:WavPlayer.cpp **** 
 170:WavPlayer.cpp **** /**
 171:WavPlayer.cpp ****  * Compute a deviation-weighted centroid position for one column's sensor array.
 172:WavPlayer.cpp ****  *
 173:WavPlayer.cpp ****  * At idle (no magnet, all sensors near baseline), w_total < 1e-9 and
 174:WavPlayer.cpp ****  * current_pos is returned unchanged.  Because current_pos is initialised to
 175:WavPlayer.cpp ****  * ZERO_ROW (3.5), PosToAmplitude returns 0.0 ŌåÆ silence with no input.
 176:WavPlayer.cpp ****  *
 177:WavPlayer.cpp ****  * When a magnet is present the centroid naturally interpolates between adjacent
 178:WavPlayer.cpp ****  * sensors, giving sub-sensor resolution for free.  Dead-zone hysteresis
 179:WavPlayer.cpp ****  * prevents small noise perturbations from registering as position changes.
 180:WavPlayer.cpp ****  *
 181:WavPlayer.cpp ****  * @param voltages     NUM_ROWS sensor voltages for this column (volts).
 182:WavPlayer.cpp ****  * @param baselines    NUM_ROWS per-sensor calibration baselines (volts).
 183:WavPlayer.cpp ****  * @param current_pos  Previous position estimate [0.0, 7.0].
 184:WavPlayer.cpp ****  * @return             Updated (or held) position in [0.0, 7.0].
 185:WavPlayer.cpp ****  */
 186:WavPlayer.cpp **** static float UpdatePosition(const float *voltages, const float *baselines, float current_pos)
 187:WavPlayer.cpp **** {
ARM GAS  /var/folders/th/s5djnwg15xxc0dk87c413f_h0000gn/T//ccCW3aXI.s 			page 12


 188:WavPlayer.cpp ****     float w_sum   = 0.0f;
 189:WavPlayer.cpp ****     float w_total = 0.0f;
 190:WavPlayer.cpp **** 
 191:WavPlayer.cpp ****     for (int r = 0; r < NUM_ROWS; r++) {
 192:WavPlayer.cpp ****         float dev = fabsf(voltages[r] - baselines[r]);
 193:WavPlayer.cpp ****         if (dev > kNoiseFloor) {
 194:WavPlayer.cpp ****             w_sum   += static_cast<float>(r) * dev;
 195:WavPlayer.cpp ****             w_total += dev;
 196:WavPlayer.cpp ****         }
 197:WavPlayer.cpp ****     }
 198:WavPlayer.cpp **** 
 199:WavPlayer.cpp ****     if (w_total < 1e-9f)
 200:WavPlayer.cpp ****         return current_pos; // hold at ZERO_ROW when no sensor is active
 201:WavPlayer.cpp **** 
 202:WavPlayer.cpp ****     const float new_pos = w_sum / w_total;
 203:WavPlayer.cpp ****     return (fabsf(new_pos - current_pos) > kPosDead) ? new_pos : current_pos;
 204:WavPlayer.cpp **** }
 205:WavPlayer.cpp **** 
 206:WavPlayer.cpp **** /**
 207:WavPlayer.cpp ****  * Map a continuous row position to audio amplitude.
 208:WavPlayer.cpp ****  *
 209:WavPlayer.cpp ****  * The mapping is a single symmetric linear expression:
 210:WavPlayer.cpp ****  *
 211:WavPlayer.cpp ****  *   A(p) = (p ŌłÆ ZERO_ROW) / ZERO_ROW
 212:WavPlayer.cpp ****  *
 213:WavPlayer.cpp ****  * With ZERO_ROW = 3.5 and p Ōłł [0, 7]:
 214:WavPlayer.cpp ****  *   p = 0.0  ŌåÆ A = ŌłÆ1.0
 215:WavPlayer.cpp ****  *   p = 3.5  ŌåÆ A =  0.0   ŌåÉ idle / neutral
 216:WavPlayer.cpp ****  *   p = 7.0  ŌåÆ A = +1.0
 217:WavPlayer.cpp ****  *
 218:WavPlayer.cpp ****  * Because UpdatePosition initialises and holds at ZERO_ROW, all control
 219:WavPlayer.cpp ****  * points evaluate to exactly 0.0 when no magnet is present.
 220:WavPlayer.cpp ****  */
 221:WavPlayer.cpp **** static float PosToAmplitude(float p)
 222:WavPlayer.cpp **** {
 223:WavPlayer.cpp ****     return (p - ZERO_ROW) / ZERO_ROW;
 224:WavPlayer.cpp **** }
 225:WavPlayer.cpp **** 
 226:WavPlayer.cpp **** // ŌĢÉŌĢÉŌĢÉŌĢÉŌĢÉŌĢÉŌĢÉŌĢÉŌĢÉŌĢÉŌĢÉŌĢÉŌĢÉŌĢÉŌĢÉŌĢÉŌĢÉŌĢÉŌĢÉŌĢÉŌĢÉŌĢÉŌĢÉŌĢÉŌĢÉŌĢÉŌĢÉŌĢÉŌĢÉŌĢÉŌĢÉŌĢÉ
 227:WavPlayer.cpp **** //  Wavetable builder ŌĆö Catmull-Rom cubic Hermite interpolation
 228:WavPlayer.cpp **** // ŌĢÉŌĢÉŌĢÉŌĢÉŌĢÉŌĢÉŌĢÉŌĢÉŌĢÉŌĢÉŌĢÉŌĢÉŌĢÉŌĢÉŌĢÉŌĢÉŌĢÉŌĢÉŌĢÉŌĢÉŌĢÉŌĢÉŌĢÉŌĢÉŌĢÉŌĢÉŌĢÉŌĢÉŌĢÉŌĢÉŌĢÉŌĢÉ
 229:WavPlayer.cpp **** 
 230:WavPlayer.cpp **** /**
 231:WavPlayer.cpp ****  * Fill `table` (WAVETABLE_SIZE samples) by Catmull-Rom cubic Hermite
 232:WavPlayer.cpp ****  * interpolation over CTRL_PTS uniformly-spaced control points.
 233:WavPlayer.cpp ****  *
 234:WavPlayer.cpp ****  * Tangents (local parameter space, one unit per segment):
 235:WavPlayer.cpp ****  *   m[0]       = pts[1] ŌłÆ pts[0]                 forward difference
 236:WavPlayer.cpp ****  *   m[k]       = (pts[k+1] ŌłÆ pts[k-1]) / 2       central difference (interior)
 237:WavPlayer.cpp ****  *   m[CTRL-1]  = pts[CTRL-1] ŌłÆ pts[CTRL-2]       backward difference
 238:WavPlayer.cpp ****  *
 239:WavPlayer.cpp ****  * Cubic Hermite basis on segment [k, k+1], t Ōłł [0,1]:
 240:WavPlayer.cpp ****  *   p(t) = h00┬ĘpŌéĆ + h10┬ĘmŌéĆ + h01┬ĘpŌéü + h11┬ĘmŌéü
 241:WavPlayer.cpp ****  *   h00 =  2t┬│ ŌłÆ 3t┬▓ + 1
 242:WavPlayer.cpp ****  *   h10 =   t┬│ ŌłÆ 2t┬▓ + t
 243:WavPlayer.cpp ****  *   h01 = ŌłÆ2t┬│ + 3t┬▓
 244:WavPlayer.cpp ****  *   h11 =   t┬│ ŌłÆ  t┬▓
ARM GAS  /var/folders/th/s5djnwg15xxc0dk87c413f_h0000gn/T//ccCW3aXI.s 			page 13


 245:WavPlayer.cpp ****  *
 246:WavPlayer.cpp ****  * Output is clamped to [ŌłÆ1, 1] to guard against minor interpolation overshoot.
 247:WavPlayer.cpp ****  */
 248:WavPlayer.cpp **** static void BuildWavetable(float *table, const float *pts)
 249:WavPlayer.cpp **** {
 250:WavPlayer.cpp ****     const float s = (1.0f - kSplineTension);
 251:WavPlayer.cpp ****     float m[CTRL_PTS];
 252:WavPlayer.cpp ****     m[0]          = s * (pts[1] - pts[0]);
 253:WavPlayer.cpp ****     m[CTRL_PTS-1] = s * (pts[CTRL_PTS-1] - pts[CTRL_PTS-2]);
 254:WavPlayer.cpp ****     for (int k = 1; k < CTRL_PTS - 1; k++)
 255:WavPlayer.cpp ****         m[k] = s * (pts[k+1] - pts[k-1]) * 0.5f;
 256:WavPlayer.cpp **** 
 257:WavPlayer.cpp ****     for (int i = 0; i < WAVETABLE_SIZE; i++) {
 258:WavPlayer.cpp ****         const float tau = static_cast<float>(i) / static_cast<float>(WAVETABLE_SIZE);
 259:WavPlayer.cpp ****         const float ts  = tau * static_cast<float>(CTRL_PTS - 1);
 260:WavPlayer.cpp **** 
 261:WavPlayer.cpp ****         int         seg = static_cast<int>(ts);
 262:WavPlayer.cpp ****         if (seg >= CTRL_PTS - 1) seg = CTRL_PTS - 2;
 263:WavPlayer.cpp ****         const float t   = ts - static_cast<float>(seg);
 264:WavPlayer.cpp ****         const float t2  = t * t;
 265:WavPlayer.cpp ****         const float t3  = t2 * t;
 266:WavPlayer.cpp **** 
 267:WavPlayer.cpp ****         const float h00 =  2.f*t3 - 3.f*t2 + 1.f;
 268:WavPlayer.cpp ****         const float h10 =      t3 - 2.f*t2 + t;
 269:WavPlayer.cpp ****         const float h01 = -2.f*t3 + 3.f*t2;
 270:WavPlayer.cpp ****         const float h11 =      t3 -     t2;
 271:WavPlayer.cpp **** 
 272:WavPlayer.cpp ****         float v = h00 * pts[seg]
 273:WavPlayer.cpp ****                 + h10 * m[seg]
 274:WavPlayer.cpp ****                 + h01 * pts[seg + 1]
 275:WavPlayer.cpp ****                 + h11 * m[seg + 1];
 276:WavPlayer.cpp **** 
 277:WavPlayer.cpp ****         table[i] = fmaxf(-1.0f, fminf(v, 1.0f));
 278:WavPlayer.cpp ****     }
 279:WavPlayer.cpp **** }
 280:WavPlayer.cpp **** 
 281:WavPlayer.cpp **** // ŌĢÉŌĢÉŌĢÉŌĢÉŌĢÉŌĢÉŌĢÉŌĢÉŌĢÉŌĢÉŌĢÉŌĢÉŌĢÉŌĢÉŌĢÉŌĢÉŌĢÉŌĢÉŌĢÉŌĢÉŌĢÉŌĢÉŌĢÉŌĢÉŌĢÉŌĢÉŌĢÉŌĢÉŌĢÉŌĢÉŌĢÉŌĢÉ
 282:WavPlayer.cpp **** //  Audio callback  (runs in interrupt context at audio sample rate)
 283:WavPlayer.cpp **** // ŌĢÉŌĢÉŌĢÉŌĢÉŌĢÉŌĢÉŌĢÉŌĢÉŌĢÉŌĢÉŌĢÉŌĢÉŌĢÉŌĢÉŌĢÉŌĢÉŌĢÉŌĢÉŌĢÉŌĢÉŌĢÉŌĢÉŌĢÉŌĢÉŌĢÉŌĢÉŌĢÉŌĢÉŌĢÉŌĢÉŌĢÉŌĢÉ
 284:WavPlayer.cpp **** 
 285:WavPlayer.cpp **** static void AudioCallback(AudioHandle::InputBuffer  /*in*/,
 286:WavPlayer.cpp ****                           AudioHandle::OutputBuffer out,
 287:WavPlayer.cpp ****                           size_t                    size)
 288:WavPlayer.cpp **** {
  77              		.loc 6 288 1 is_stmt 1 view -0
  78              		.cfi_startproc
  79              		@ args = 0, pretend = 0, frame = 0
  80              		@ frame_needed = 0, uses_anonymous_args = 0
 289:WavPlayer.cpp ****     const float p_inc = kPlayFrequency / hw.AudioSampleRate();
  81              		.loc 6 289 5 view .LVU11
 288:WavPlayer.cpp ****     const float p_inc = kPlayFrequency / hw.AudioSampleRate();
  82              		.loc 6 288 1 is_stmt 0 view .LVU12
  83 0000 2DE9F84F 		push	{r3, r4, r5, r6, r7, r8, r9, r10, fp, lr}
  84              		.cfi_def_cfa_offset 40
  85              		.cfi_offset 3, -40
  86              		.cfi_offset 4, -36
  87              		.cfi_offset 5, -32
ARM GAS  /var/folders/th/s5djnwg15xxc0dk87c413f_h0000gn/T//ccCW3aXI.s 			page 14


  88              		.cfi_offset 6, -28
  89              		.cfi_offset 7, -24
  90              		.cfi_offset 8, -20
  91              		.cfi_offset 9, -16
  92              		.cfi_offset 10, -12
  93              		.cfi_offset 11, -8
  94              		.cfi_offset 14, -4
  95              		.loc 6 289 60 view .LVU13
  96 0004 5248     		ldr	r0, .L18
 288:WavPlayer.cpp ****     const float p_inc = kPlayFrequency / hw.AudioSampleRate();
  97              		.loc 6 288 1 view .LVU14
  98 0006 0C46     		mov	r4, r1
  99 0008 1746     		mov	r7, r2
 100              		.loc 6 289 60 view .LVU15
 101 000a FFF7FEFF 		bl	_ZN5daisy9DaisySeed15AudioSampleRateEv
 102              	.LVL2:
 103              		.loc 6 289 61 view .LVU16
 104 000e DFED517A 		vldr.32	s15, .L18+4
 105 0012 C7EE803A 		vdiv.f32	s7, s15, s0
 106              	.LVL3:
 290:WavPlayer.cpp **** 
 291:WavPlayer.cpp ****     static int xfade_ctr = 0; // Preserve the crossfade across buffer fills
 107              		.loc 6 291 5 is_stmt 1 view .LVU17
 292:WavPlayer.cpp ****     static int fade_from = 0;
 108              		.loc 6 292 5 view .LVU18
 293:WavPlayer.cpp **** 
 294:WavPlayer.cpp ****     for (size_t i = 0; i < size; i++) {
 109              		.loc 6 294 5 view .LVU19
 110              	.LBB306:
 111              		.loc 6 294 26 view .LVU20
 112 0016 002F     		cmp	r7, #0
 113 0018 00F09780 		beq	.L3
 114 001c 4E4D     		ldr	r5, .L18+8
 115 001e 4F4E     		ldr	r6, .L18+12
 116 0020 DFF848E1 		ldr	lr, .L18+28
 117 0024 D4E90004 		ldrd	r0, r4, [r4]
 118              	.LVL4:
 119              		.loc 6 294 26 is_stmt 0 view .LVU21
 120 0028 00EB870C 		add	ip, r0, r7, lsl #2
 121 002c 4C4F     		ldr	r7, .L18+16
 122              	.LVL5:
 123              		.loc 6 294 26 view .LVU22
 124 002e 42E0     		b	.L10
 125              	.LVL6:
 126              	.L17:
 127              	.LBB307:
 128              	.LBB308:
 129              	.LBB309:
 295:WavPlayer.cpp ****         const float  f_idx = phase * static_cast<float>(WAVETABLE_SIZE);
 296:WavPlayer.cpp ****         const int    i_idx = static_cast<int>(f_idx);
 297:WavPlayer.cpp ****         const int    i_nxt = (i_idx + 1) % WAVETABLE_SIZE;
 298:WavPlayer.cpp ****         const float  frac  = f_idx - static_cast<float>(i_idx);
 299:WavPlayer.cpp **** 
 300:WavPlayer.cpp ****         auto lerp_buf = [&](int buf) -> float {
 301:WavPlayer.cpp ****             const float *tbl = wavetable[buf];
 302:WavPlayer.cpp ****             return tbl[i_idx] + frac * (tbl[i_nxt] - tbl[i_idx]);
 303:WavPlayer.cpp ****         };
ARM GAS  /var/folders/th/s5djnwg15xxc0dk87c413f_h0000gn/T//ccCW3aXI.s 			page 15


 304:WavPlayer.cpp **** 
 305:WavPlayer.cpp ****         float sample;
 306:WavPlayer.cpp **** 
 307:WavPlayer.cpp ****         if (xfade_ctr > 0) {
 308:WavPlayer.cpp ****             const float alpha = static_cast<float>(xfade_ctr)
 130              		.loc 6 308 33 view .LVU23
 131 0030 06EE901A 		vmov	s13, r1	@ int
 132              	.LBB310:
 133              	.LBB311:
 134              	.LBB312:
 301:WavPlayer.cpp ****             return tbl[i_idx] + frac * (tbl[i_nxt] - tbl[i_idx]);
 135              		.loc 6 301 26 view .LVU24
 136 0034 DAF80080 		ldr	r8, [r10]
 137              	.LBE312:
 138              	.LBE311:
 139              	.LBE310:
 309:WavPlayer.cpp ****                               / static_cast<float>(CROSSFADE_LEN);
 310:WavPlayer.cpp ****             sample = alpha * lerp_buf(fade_from)
 311:WavPlayer.cpp ****                    + (1.0f - alpha) * lerp_buf(active_buf);
 140              		.loc 6 311 47 view .LVU25
 141 0038 3968     		ldr	r1, [r7]
 308:WavPlayer.cpp ****                               / static_cast<float>(CROSSFADE_LEN);
 142              		.loc 6 308 33 view .LVU26
 143 003a F8EEE66A 		vcvt.f32.s32	s13, s13
 144              	.LBB327:
 145              	.LBB320:
 146              	.LBB313:
 301:WavPlayer.cpp ****             return tbl[i_idx] + frac * (tbl[i_nxt] - tbl[i_idx]);
 147              		.loc 6 301 26 view .LVU27
 148 003e 0EEB4838 		add	r8, lr, r8, lsl #13
 149              	.LBE313:
 150              	.LBE320:
 151              	.LBE327:
 152              	.LBB328:
 153              	.LBB329:
 154              	.LBB330:
 155 0042 0EEB4131 		add	r1, lr, r1, lsl #13
 156              	.LBE330:
 157              	.LBE329:
 158              	.LBE328:
 312:WavPlayer.cpp ****             --xfade_ctr;
 159              		.loc 6 312 13 view .LVU28
 160 0046 C6F800B0 		str	fp, [r6]
 161              	.LBB341:
 162              	.LBB321:
 163              	.LBB314:
 302:WavPlayer.cpp ****         };
 164              		.loc 6 302 29 view .LVU29
 165 004a 08EB8209 		add	r9, r8, r2, lsl #2
 166              	.LBE314:
 167              	.LBE321:
 168              	.LBE341:
 308:WavPlayer.cpp ****                               / static_cast<float>(CROSSFADE_LEN);
 169              		.loc 6 308 25 view .LVU30
 170 004e 86EEA54A 		vdiv.f32	s8, s13, s11
 171              	.LVL7:
 310:WavPlayer.cpp ****                    + (1.0f - alpha) * lerp_buf(active_buf);
ARM GAS  /var/folders/th/s5djnwg15xxc0dk87c413f_h0000gn/T//ccCW3aXI.s 			page 16


 172              		.loc 6 310 13 is_stmt 1 view .LVU31
 173              	.LBB342:
 174              	.LBI310:
 300:WavPlayer.cpp ****             const float *tbl = wavetable[buf];
 175              		.loc 6 300 25 view .LVU32
 176              	.LBB322:
 177              	.LBB315:
 301:WavPlayer.cpp ****             return tbl[i_idx] + frac * (tbl[i_nxt] - tbl[i_idx]);
 178              		.loc 6 301 13 view .LVU33
 302:WavPlayer.cpp ****         };
 179              		.loc 6 302 13 view .LVU34
 302:WavPlayer.cpp ****         };
 180              		.loc 6 302 50 is_stmt 0 view .LVU35
 181 0052 08EB8308 		add	r8, r8, r3, lsl #2
 182              	.LVL8:
 302:WavPlayer.cpp ****         };
 183              		.loc 6 302 50 view .LVU36
 184              	.LBE315:
 185              	.LBE322:
 186              	.LBE342:
 187              	.LBB343:
 188              	.LBB336:
 189              	.LBB331:
 302:WavPlayer.cpp ****         };
 190              		.loc 6 302 29 view .LVU37
 191 0056 01EB8202 		add	r2, r1, r2, lsl #2
 192              	.LVL9:
 302:WavPlayer.cpp ****         };
 193              		.loc 6 302 29 view .LVU38
 194              	.LBE331:
 195              	.LBE336:
 196              	.LBE343:
 197              	.LBB344:
 198              	.LBB323:
 199              	.LBB316:
 200 005a D9ED005A 		vldr.32	s11, [r9]
 201              	.LBE316:
 202              	.LBE323:
 203              	.LBE344:
 204              	.LBB345:
 205              	.LBB337:
 206              	.LBB332:
 302:WavPlayer.cpp ****         };
 207              		.loc 6 302 50 view .LVU39
 208 005e 01EB8303 		add	r3, r1, r3, lsl #2
 209              	.LVL10:
 302:WavPlayer.cpp ****         };
 210              		.loc 6 302 50 view .LVU40
 211              	.LBE332:
 212              	.LBE337:
 213              	.LBE345:
 214              	.LBB346:
 215              	.LBB324:
 216              	.LBB317:
 302:WavPlayer.cpp ****         };
 217              		.loc 6 302 52 view .LVU41
 218 0062 98ED005A 		vldr.32	s10, [r8]
ARM GAS  /var/folders/th/s5djnwg15xxc0dk87c413f_h0000gn/T//ccCW3aXI.s 			page 17


 219              	.LBE317:
 220              	.LBE324:
 221              	.LBE346:
 222              	.LBB347:
 223              	.LBB338:
 224              	.LBB333:
 302:WavPlayer.cpp ****         };
 225              		.loc 6 302 29 view .LVU42
 226 0066 D2ED006A 		vldr.32	s13, [r2]
 302:WavPlayer.cpp ****         };
 227              		.loc 6 302 52 view .LVU43
 228 006a D3ED004A 		vldr.32	s9, [r3]
 229              	.LBE333:
 230              	.LBE338:
 231              	.LBE347:
 232              	.LBB348:
 233              	.LBB325:
 234              	.LBB318:
 235 006e 35EE655A 		vsub.f32	s10, s10, s11
 236              	.LBE318:
 237              	.LBE325:
 238              	.LBE348:
 239              	.LBB349:
 240              	.LBB339:
 241              	.LBB334:
 242 0072 74EEE64A 		vsub.f32	s9, s9, s13
 243              	.LBE334:
 244              	.LBE339:
 245              	.LBE349:
 246              	.LBB350:
 247              	.LBB326:
 248              	.LBB319:
 302:WavPlayer.cpp ****         };
 249              		.loc 6 302 64 view .LVU44
 250 0076 E7EE855A 		vfma.f32	s11, s15, s10
 251              	.LVL11:
 302:WavPlayer.cpp ****         };
 252              		.loc 6 302 64 view .LVU45
 253              	.LBE319:
 254              	.LBE326:
 255              	.LBE350:
 256              	.LBB351:
 257              	.LBI328:
 300:WavPlayer.cpp ****             const float *tbl = wavetable[buf];
 258              		.loc 6 300 25 is_stmt 1 view .LVU46
 259              	.LBB340:
 260              	.LBB335:
 301:WavPlayer.cpp ****             return tbl[i_idx] + frac * (tbl[i_nxt] - tbl[i_idx]);
 261              		.loc 6 301 13 view .LVU47
 302:WavPlayer.cpp ****         };
 262              		.loc 6 302 13 view .LVU48
 302:WavPlayer.cpp ****         };
 263              		.loc 6 302 64 is_stmt 0 view .LVU49
 264 007a E7EEA46A 		vfma.f32	s13, s15, s9
 265 007e B0EE665A 		vmov.f32	s10, s13
 266              	.LVL12:
 302:WavPlayer.cpp ****         };
ARM GAS  /var/folders/th/s5djnwg15xxc0dk87c413f_h0000gn/T//ccCW3aXI.s 			page 18


 267              		.loc 6 302 64 view .LVU50
 268              	.LBE335:
 269              	.LBE340:
 270              	.LBE351:
 311:WavPlayer.cpp ****             --xfade_ctr;
 271              		.loc 6 311 28 view .LVU51
 272 0082 76EE446A 		vsub.f32	s13, s12, s8
 311:WavPlayer.cpp ****             --xfade_ctr;
 273              		.loc 6 311 37 view .LVU52
 274 0086 66EE856A 		vmul.f32	s13, s13, s10
 310:WavPlayer.cpp ****                    + (1.0f - alpha) * lerp_buf(active_buf);
 275              		.loc 6 310 20 view .LVU53
 276 008a E4EE256A 		vfma.f32	s13, s8, s11
 277              	.LVL13:
 278              		.loc 6 312 13 is_stmt 1 view .LVU54
 279              	.L6:
 280              		.loc 6 312 13 is_stmt 0 view .LVU55
 281              	.LBE309:
 282              	.LBE308:
 313:WavPlayer.cpp ****         } else {
 314:WavPlayer.cpp ****             sample = lerp_buf(active_buf);
 315:WavPlayer.cpp **** 
 316:WavPlayer.cpp ****             if (buf_pending) {
 317:WavPlayer.cpp ****                 fade_from   = active_buf;
 318:WavPlayer.cpp ****                 active_buf ^= 1;
 319:WavPlayer.cpp ****                 xfade_ctr   = CROSSFADE_LEN;
 320:WavPlayer.cpp ****                 buf_pending = false;
 321:WavPlayer.cpp ****             }
 322:WavPlayer.cpp ****         }
 323:WavPlayer.cpp **** 
 324:WavPlayer.cpp ****         out[0][i] = sample;
 283              		.loc 6 324 9 is_stmt 1 view .LVU56
 325:WavPlayer.cpp ****         out[1][i] = 0.0f;
 326:WavPlayer.cpp **** 
 327:WavPlayer.cpp ****         phase += p_inc;
 328:WavPlayer.cpp ****         if (phase >= 1.0f)
 329:WavPlayer.cpp ****             phase -= 1.0f;
 284              		.loc 6 329 13 view .LVU57
 327:WavPlayer.cpp ****         if (phase >= 1.0f)
 285              		.loc 6 327 15 is_stmt 0 view .LVU58
 286 008e 37EE237A 		vadd.f32	s14, s14, s7
 287              	.LVL14:
 324:WavPlayer.cpp ****         out[1][i] = 0.0f;
 288              		.loc 6 324 19 view .LVU59
 289 0092 E0EC016A 		vstmia.32	r0!, {s13}
 325:WavPlayer.cpp ****         out[1][i] = 0.0f;
 290              		.loc 6 325 9 is_stmt 1 view .LVU60
 328:WavPlayer.cpp ****             phase -= 1.0f;
 291              		.loc 6 328 9 is_stmt 0 view .LVU61
 292 0096 F7EE007A 		vmov.f32	s15, #1.0e+0
 293              	.LVL15:
 325:WavPlayer.cpp **** 
 294              		.loc 6 325 19 view .LVU62
 295 009a 0023     		movs	r3, #0
 296 009c 44F8043B 		str	r3, [r4], #4	@ float
 327:WavPlayer.cpp ****         if (phase >= 1.0f)
 297              		.loc 6 327 9 is_stmt 1 view .LVU63
ARM GAS  /var/folders/th/s5djnwg15xxc0dk87c413f_h0000gn/T//ccCW3aXI.s 			page 19


 328:WavPlayer.cpp ****             phase -= 1.0f;
 298              		.loc 6 328 9 view .LVU64
 299 00a0 B4EEE77A 		vcmpe.f32	s14, s15
 300 00a4 F1EE10FA 		vmrs	APSR_nzcv, FPSCR
 301              		.loc 6 329 19 is_stmt 0 view .LVU65
 302 00a8 A8BF     		it	ge
 303 00aa 37EE677A 		vsubge.f32	s14, s14, s15
 304              	.LBE307:
 294:WavPlayer.cpp ****         const float  f_idx = phase * static_cast<float>(WAVETABLE_SIZE);
 305              		.loc 6 294 26 view .LVU66
 306 00ae 8445     		cmp	ip, r0
 307              	.LBB369:
 308              		.loc 6 329 19 view .LVU67
 309 00b0 85ED007A 		vstr.32	s14, [r5]
 310              	.LVL16:
 311              		.loc 6 329 19 view .LVU68
 312              	.LBE369:
 294:WavPlayer.cpp ****         const float  f_idx = phase * static_cast<float>(WAVETABLE_SIZE);
 313              		.loc 6 294 5 is_stmt 1 view .LVU69
 294:WavPlayer.cpp ****         const float  f_idx = phase * static_cast<float>(WAVETABLE_SIZE);
 314              		.loc 6 294 26 view .LVU70
 315 00b4 49D0     		beq	.L3
 316              	.LVL17:
 317              	.L10:
 318              	.LBB370:
 295:WavPlayer.cpp ****         const int    i_idx = static_cast<int>(f_idx);
 319              		.loc 6 295 9 view .LVU71
 320              	.LBB364:
 321              	.LBB352:
 308:WavPlayer.cpp ****                               / static_cast<float>(CROSSFADE_LEN);
 322              		.loc 6 308 13 view .LVU72
 323              	.LBE352:
 314:WavPlayer.cpp **** 
 324              		.loc 6 314 13 view .LVU73
 325              	.LBE364:
 295:WavPlayer.cpp ****         const int    i_idx = static_cast<int>(f_idx);
 326              		.loc 6 295 36 is_stmt 0 view .LVU74
 327 00b6 95ED007A 		vldr.32	s14, [r5]
 328              	.LBB365:
 329              	.LBB353:
 311:WavPlayer.cpp ****             --xfade_ctr;
 330              		.loc 6 311 28 view .LVU75
 331 00ba B7EE006A 		vmov.f32	s12, #1.0e+0
 332              	.LBE353:
 333              	.LBE365:
 295:WavPlayer.cpp ****         const int    i_idx = static_cast<int>(f_idx);
 334              		.loc 6 295 22 view .LVU76
 335 00be DFED297A 		vldr.32	s15, .L18+20
 336              	.LBB366:
 307:WavPlayer.cpp ****             const float alpha = static_cast<float>(xfade_ctr)
 337              		.loc 6 307 23 view .LVU77
 338 00c2 3168     		ldr	r1, [r6]
 339              	.LBE366:
 295:WavPlayer.cpp ****         const int    i_idx = static_cast<int>(f_idx);
 340              		.loc 6 295 22 view .LVU78
 341 00c4 67EE277A 		vmul.f32	s15, s14, s15
 342              	.LVL18:
ARM GAS  /var/folders/th/s5djnwg15xxc0dk87c413f_h0000gn/T//ccCW3aXI.s 			page 20


 296:WavPlayer.cpp ****         const int    i_nxt = (i_idx + 1) % WAVETABLE_SIZE;
 343              		.loc 6 296 9 is_stmt 1 view .LVU79
 344              	.LBB367:
 345              	.LBB354:
 308:WavPlayer.cpp ****                               / static_cast<float>(CROSSFADE_LEN);
 346              		.loc 6 308 25 is_stmt 0 view .LVU80
 347 00c8 DFED275A 		vldr.32	s11, .L18+24
 310:WavPlayer.cpp ****                    + (1.0f - alpha) * lerp_buf(active_buf);
 348              		.loc 6 310 38 view .LVU81
 349 00cc DFF8A0A0 		ldr	r10, .L18+32
 312:WavPlayer.cpp ****         } else {
 350              		.loc 6 312 13 view .LVU82
 351 00d0 01F1FF3B 		add	fp, r1, #-1
 352              	.LBE354:
 316:WavPlayer.cpp ****                 fade_from   = active_buf;
 353              		.loc 6 316 17 view .LVU83
 354 00d4 DFF89C80 		ldr	r8, .L18+36
 355              	.LBE367:
 296:WavPlayer.cpp ****         const int    i_nxt = (i_idx + 1) % WAVETABLE_SIZE;
 356              		.loc 6 296 30 view .LVU84
 357 00d8 FDEEE76A 		vcvt.s32.f32	s13, s15
 358 00dc 16EE902A 		vmov	r2, s13	@ int
 359              	.LVL19:
 297:WavPlayer.cpp ****         const float  frac  = f_idx - static_cast<float>(i_idx);
 360              		.loc 6 297 9 is_stmt 1 view .LVU85
 298:WavPlayer.cpp **** 
 361              		.loc 6 298 38 is_stmt 0 view .LVU86
 362 00e0 F8EEE66A 		vcvt.f32.s32	s13, s13
 297:WavPlayer.cpp ****         const float  frac  = f_idx - static_cast<float>(i_idx);
 363              		.loc 6 297 37 view .LVU87
 364 00e4 531C     		adds	r3, r2, #1
 298:WavPlayer.cpp **** 
 365              		.loc 6 298 36 view .LVU88
 366 00e6 77EEE67A 		vsub.f32	s15, s15, s13
 367              	.LVL20:
 297:WavPlayer.cpp ****         const float  frac  = f_idx - static_cast<float>(i_idx);
 368              		.loc 6 297 42 view .LVU89
 369 00ea D3F10009 		rsbs	r9, r3, #0
 370 00ee C3F30A03 		ubfx	r3, r3, #0, #11
 371 00f2 C9F30A09 		ubfx	r9, r9, #0, #11
 372 00f6 58BF     		it	pl
 373 00f8 C9F10003 		rsbpl	r3, r9, #0
 374              	.LVL21:
 298:WavPlayer.cpp **** 
 375              		.loc 6 298 9 is_stmt 1 view .LVU90
 300:WavPlayer.cpp ****             const float *tbl = wavetable[buf];
 376              		.loc 6 300 9 view .LVU91
 305:WavPlayer.cpp **** 
 377              		.loc 6 305 9 view .LVU92
 307:WavPlayer.cpp ****             const float alpha = static_cast<float>(xfade_ctr)
 378              		.loc 6 307 9 view .LVU93
 379              	.LBB368:
 380 00fc 0029     		cmp	r1, #0
 381 00fe 97DC     		bgt	.L17
 317:WavPlayer.cpp ****                 active_buf ^= 1;
 382              		.loc 6 317 17 view .LVU94
 314:WavPlayer.cpp **** 
ARM GAS  /var/folders/th/s5djnwg15xxc0dk87c413f_h0000gn/T//ccCW3aXI.s 			page 21


 383              		.loc 6 314 30 is_stmt 0 view .LVU95
 384 0100 3968     		ldr	r1, [r7]
 385              	.LVL22:
 386              	.LBB355:
 387              	.LBI355:
 300:WavPlayer.cpp ****             const float *tbl = wavetable[buf];
 388              		.loc 6 300 25 is_stmt 1 view .LVU96
 389              	.LBB356:
 390              	.LBB357:
 301:WavPlayer.cpp ****             return tbl[i_idx] + frac * (tbl[i_nxt] - tbl[i_idx]);
 391              		.loc 6 301 13 view .LVU97
 392              	.LBE357:
 393              	.LBE356:
 394              	.LBE355:
 319:WavPlayer.cpp ****                 buf_pending = false;
 395              		.loc 6 319 29 is_stmt 0 view .LVU98
 396 0102 4FF4FA7B 		mov	fp, #500
 316:WavPlayer.cpp ****                 fade_from   = active_buf;
 397              		.loc 6 316 17 view .LVU99
 398 0106 98F80090 		ldrb	r9, [r8]	@ zero_extendqisi2
 399              	.LBB362:
 400              	.LBB360:
 401              	.LBB358:
 301:WavPlayer.cpp ****             return tbl[i_idx] + frac * (tbl[i_nxt] - tbl[i_idx]);
 402              		.loc 6 301 26 view .LVU100
 403 010a 0EEB4131 		add	r1, lr, r1, lsl #13
 404              	.LVL23:
 302:WavPlayer.cpp ****         };
 405              		.loc 6 302 13 is_stmt 1 view .LVU101
 406              	.LBE358:
 407              	.LBE360:
 408              	.LBE362:
 317:WavPlayer.cpp ****                 active_buf ^= 1;
 409              		.loc 6 317 29 is_stmt 0 view .LVU102
 410 010e DFF860A0 		ldr	r10, .L18+32
 411              	.LBB363:
 412              	.LBB361:
 413              	.LBB359:
 302:WavPlayer.cpp ****         };
 414              		.loc 6 302 29 view .LVU103
 415 0112 01EB8202 		add	r2, r1, r2, lsl #2
 416              	.LVL24:
 302:WavPlayer.cpp ****         };
 417              		.loc 6 302 50 view .LVU104
 418 0116 01EB8303 		add	r3, r1, r3, lsl #2
 419              	.LVL25:
 302:WavPlayer.cpp ****         };
 420              		.loc 6 302 29 view .LVU105
 421 011a D2ED006A 		vldr.32	s13, [r2]
 302:WavPlayer.cpp ****         };
 422              		.loc 6 302 52 view .LVU106
 423 011e 93ED006A 		vldr.32	s12, [r3]
 424 0122 36EE666A 		vsub.f32	s12, s12, s13
 302:WavPlayer.cpp ****         };
 425              		.loc 6 302 64 view .LVU107
 426 0126 E7EE866A 		vfma.f32	s13, s15, s12
 427              	.LVL26:
ARM GAS  /var/folders/th/s5djnwg15xxc0dk87c413f_h0000gn/T//ccCW3aXI.s 			page 22


 302:WavPlayer.cpp ****         };
 428              		.loc 6 302 64 view .LVU108
 429              	.LBE359:
 430              	.LBE361:
 431              	.LBE363:
 316:WavPlayer.cpp ****                 fade_from   = active_buf;
 432              		.loc 6 316 13 is_stmt 1 view .LVU109
 433 012a B9F1000F 		cmp	r9, #0
 434 012e AED0     		beq	.L6
 317:WavPlayer.cpp ****                 active_buf ^= 1;
 435              		.loc 6 317 29 is_stmt 0 view .LVU110
 436 0130 3B68     		ldr	r3, [r7]
 320:WavPlayer.cpp ****             }
 437              		.loc 6 320 29 view .LVU111
 438 0132 0022     		movs	r2, #0
 319:WavPlayer.cpp ****                 buf_pending = false;
 439              		.loc 6 319 29 view .LVU112
 440 0134 C6F800B0 		str	fp, [r6]
 317:WavPlayer.cpp ****                 active_buf ^= 1;
 441              		.loc 6 317 29 view .LVU113
 442 0138 CAF80030 		str	r3, [r10]
 318:WavPlayer.cpp ****                 xfade_ctr   = CROSSFADE_LEN;
 443              		.loc 6 318 17 is_stmt 1 view .LVU114
 318:WavPlayer.cpp ****                 xfade_ctr   = CROSSFADE_LEN;
 444              		.loc 6 318 28 is_stmt 0 view .LVU115
 445 013c 3B68     		ldr	r3, [r7]
 446 013e 83F00103 		eor	r3, r3, #1
 447 0142 3B60     		str	r3, [r7]
 319:WavPlayer.cpp ****                 buf_pending = false;
 448              		.loc 6 319 17 is_stmt 1 view .LVU116
 320:WavPlayer.cpp ****             }
 449              		.loc 6 320 17 view .LVU117
 320:WavPlayer.cpp ****             }
 450              		.loc 6 320 29 is_stmt 0 view .LVU118
 451 0144 88F80020 		strb	r2, [r8]
 452 0148 A1E7     		b	.L6
 453              	.LVL27:
 454              	.L3:
 320:WavPlayer.cpp ****             }
 455              		.loc 6 320 29 view .LVU119
 456              	.LBE368:
 457              	.LBE370:
 458              	.LBE306:
 330:WavPlayer.cpp ****     }
 331:WavPlayer.cpp **** }
 459              		.loc 6 331 1 view .LVU120
 460 014a BDE8F88F 		pop	{r3, r4, r5, r6, r7, r8, r9, r10, fp, pc}
 461              	.L19:
 462 014e 00BF     		.align	2
 463              	.L18:
 464 0150 00000000 		.word	.LANCHOR0
 465 0154 0000A042 		.word	1117782016
 466 0158 00000000 		.word	.LANCHOR1
 467 015c 00000000 		.word	.LANCHOR2
 468 0160 00000000 		.word	.LANCHOR4
 469 0164 00000045 		.word	1157627904
 470 0168 0000FA43 		.word	1140457472
ARM GAS  /var/folders/th/s5djnwg15xxc0dk87c413f_h0000gn/T//ccCW3aXI.s 			page 23


 471 016c 00000000 		.word	_ZL9wavetable
 472 0170 00000000 		.word	.LANCHOR3
 473 0174 00000000 		.word	.LANCHOR5
 474              		.cfi_endproc
 475              	.LFE4525:
 477              		.section	.text._ZN5daisy13SSD130xDriverILj128ELj64ENS_19SSD130xI2CTransportEE4InitENS2_6ConfigE,"a
 478              		.align	1
 479              		.p2align 2,,3
 480              		.weak	_ZN5daisy13SSD130xDriverILj128ELj64ENS_19SSD130xI2CTransportEE4InitENS2_6ConfigE
 481              		.syntax unified
 482              		.thumb
 483              		.thumb_func
 485              	_ZN5daisy13SSD130xDriverILj128ELj64ENS_19SSD130xI2CTransportEE4InitENS2_6ConfigE:
 486              	.LVL28:
 487              	.LFB4613:
 488              		.file 7 "../../libDaisy/src/dev/oled_ssd130x.h"
   1:../../libDaisy/src/dev/oled_ssd130x.h **** #pragma once
   2:../../libDaisy/src/dev/oled_ssd130x.h **** #ifndef SA_OLED_SSD130X_H
   3:../../libDaisy/src/dev/oled_ssd130x.h **** #define SA_OLED_SSD130X_H /**< & */
   4:../../libDaisy/src/dev/oled_ssd130x.h **** 
   5:../../libDaisy/src/dev/oled_ssd130x.h **** #include "per/i2c.h"
   6:../../libDaisy/src/dev/oled_ssd130x.h **** #include "per/spi.h"
   7:../../libDaisy/src/dev/oled_ssd130x.h **** #include "per/gpio.h"
   8:../../libDaisy/src/dev/oled_ssd130x.h **** #include "sys/system.h"
   9:../../libDaisy/src/dev/oled_ssd130x.h **** 
  10:../../libDaisy/src/dev/oled_ssd130x.h **** namespace daisy
  11:../../libDaisy/src/dev/oled_ssd130x.h **** {
  12:../../libDaisy/src/dev/oled_ssd130x.h **** /**
  13:../../libDaisy/src/dev/oled_ssd130x.h ****  * I2C Transport for SSD1306 / SSD1309 OLED display devices
  14:../../libDaisy/src/dev/oled_ssd130x.h ****  */
  15:../../libDaisy/src/dev/oled_ssd130x.h **** class SSD130xI2CTransport
  16:../../libDaisy/src/dev/oled_ssd130x.h **** {
  17:../../libDaisy/src/dev/oled_ssd130x.h ****   public:
  18:../../libDaisy/src/dev/oled_ssd130x.h ****     struct Config
  19:../../libDaisy/src/dev/oled_ssd130x.h ****     {
  20:../../libDaisy/src/dev/oled_ssd130x.h ****         Config()
  21:../../libDaisy/src/dev/oled_ssd130x.h ****         {
  22:../../libDaisy/src/dev/oled_ssd130x.h ****             // Intialize using defaults
  23:../../libDaisy/src/dev/oled_ssd130x.h ****             Defaults();
  24:../../libDaisy/src/dev/oled_ssd130x.h ****         }
  25:../../libDaisy/src/dev/oled_ssd130x.h ****         I2CHandle::Config i2c_config;
  26:../../libDaisy/src/dev/oled_ssd130x.h ****         uint8_t           i2c_address;
  27:../../libDaisy/src/dev/oled_ssd130x.h ****         void              Defaults()
  28:../../libDaisy/src/dev/oled_ssd130x.h ****         {
  29:../../libDaisy/src/dev/oled_ssd130x.h ****             i2c_config.periph         = I2CHandle::Config::Peripheral::I2C_1;
  30:../../libDaisy/src/dev/oled_ssd130x.h ****             i2c_config.speed          = I2CHandle::Config::Speed::I2C_1MHZ;
  31:../../libDaisy/src/dev/oled_ssd130x.h ****             i2c_config.mode           = I2CHandle::Config::Mode::I2C_MASTER;
  32:../../libDaisy/src/dev/oled_ssd130x.h ****             i2c_config.pin_config.scl = {DSY_GPIOB, 8};
  33:../../libDaisy/src/dev/oled_ssd130x.h ****             i2c_config.pin_config.sda = {DSY_GPIOB, 9};
  34:../../libDaisy/src/dev/oled_ssd130x.h ****             i2c_address               = 0x3C;
  35:../../libDaisy/src/dev/oled_ssd130x.h ****         }
  36:../../libDaisy/src/dev/oled_ssd130x.h ****     };
  37:../../libDaisy/src/dev/oled_ssd130x.h ****     void Init(const Config& config)
  38:../../libDaisy/src/dev/oled_ssd130x.h ****     {
  39:../../libDaisy/src/dev/oled_ssd130x.h ****         i2c_address_ = config.i2c_address;
  40:../../libDaisy/src/dev/oled_ssd130x.h ****         i2c_.Init(config.i2c_config);
  41:../../libDaisy/src/dev/oled_ssd130x.h ****     };
ARM GAS  /var/folders/th/s5djnwg15xxc0dk87c413f_h0000gn/T//ccCW3aXI.s 			page 24


  42:../../libDaisy/src/dev/oled_ssd130x.h ****     void SendCommand(uint8_t cmd)
  43:../../libDaisy/src/dev/oled_ssd130x.h ****     {
  44:../../libDaisy/src/dev/oled_ssd130x.h ****         uint8_t buf[2] = {0X00, cmd};
  45:../../libDaisy/src/dev/oled_ssd130x.h ****         i2c_.TransmitBlocking(i2c_address_, buf, 2, 1000);
  46:../../libDaisy/src/dev/oled_ssd130x.h ****     };
  47:../../libDaisy/src/dev/oled_ssd130x.h **** 
  48:../../libDaisy/src/dev/oled_ssd130x.h ****     void SendData(uint8_t* buff, size_t size)
  49:../../libDaisy/src/dev/oled_ssd130x.h ****     {
  50:../../libDaisy/src/dev/oled_ssd130x.h ****         for(size_t i = 0; i < size; i++)
  51:../../libDaisy/src/dev/oled_ssd130x.h ****         {
  52:../../libDaisy/src/dev/oled_ssd130x.h ****             uint8_t buf[2] = {0X40, buff[i]};
  53:../../libDaisy/src/dev/oled_ssd130x.h ****             i2c_.TransmitBlocking(i2c_address_, buf, 2, 1000);
  54:../../libDaisy/src/dev/oled_ssd130x.h ****         }
  55:../../libDaisy/src/dev/oled_ssd130x.h ****     };
  56:../../libDaisy/src/dev/oled_ssd130x.h **** 
  57:../../libDaisy/src/dev/oled_ssd130x.h ****   private:
  58:../../libDaisy/src/dev/oled_ssd130x.h ****     daisy::I2CHandle i2c_;
  59:../../libDaisy/src/dev/oled_ssd130x.h ****     uint8_t          i2c_address_;
  60:../../libDaisy/src/dev/oled_ssd130x.h **** };
  61:../../libDaisy/src/dev/oled_ssd130x.h **** 
  62:../../libDaisy/src/dev/oled_ssd130x.h **** /**
  63:../../libDaisy/src/dev/oled_ssd130x.h ****  * 4 Wire SPI Transport for SSD1306 / SSD1309 OLED display devices
  64:../../libDaisy/src/dev/oled_ssd130x.h ****  */
  65:../../libDaisy/src/dev/oled_ssd130x.h **** class SSD130x4WireSpiTransport
  66:../../libDaisy/src/dev/oled_ssd130x.h **** {
  67:../../libDaisy/src/dev/oled_ssd130x.h ****   public:
  68:../../libDaisy/src/dev/oled_ssd130x.h ****     struct Config
  69:../../libDaisy/src/dev/oled_ssd130x.h ****     {
  70:../../libDaisy/src/dev/oled_ssd130x.h ****         Config()
  71:../../libDaisy/src/dev/oled_ssd130x.h ****         {
  72:../../libDaisy/src/dev/oled_ssd130x.h ****             // Initialize using defaults
  73:../../libDaisy/src/dev/oled_ssd130x.h ****             Defaults();
  74:../../libDaisy/src/dev/oled_ssd130x.h ****         }
  75:../../libDaisy/src/dev/oled_ssd130x.h ****         SpiHandle::Config spi_config;
  76:../../libDaisy/src/dev/oled_ssd130x.h ****         struct
  77:../../libDaisy/src/dev/oled_ssd130x.h ****         {
  78:../../libDaisy/src/dev/oled_ssd130x.h ****             dsy_gpio_pin dc;    /**< & */
  79:../../libDaisy/src/dev/oled_ssd130x.h ****             dsy_gpio_pin reset; /**< & */
  80:../../libDaisy/src/dev/oled_ssd130x.h ****         } pin_config;
  81:../../libDaisy/src/dev/oled_ssd130x.h ****         void Defaults()
  82:../../libDaisy/src/dev/oled_ssd130x.h ****         {
  83:../../libDaisy/src/dev/oled_ssd130x.h ****             // SPI peripheral config
  84:../../libDaisy/src/dev/oled_ssd130x.h ****             spi_config.periph = SpiHandle::Config::Peripheral::SPI_1;
  85:../../libDaisy/src/dev/oled_ssd130x.h ****             spi_config.mode   = SpiHandle::Config::Mode::MASTER;
  86:../../libDaisy/src/dev/oled_ssd130x.h ****             spi_config.direction
  87:../../libDaisy/src/dev/oled_ssd130x.h ****                 = SpiHandle::Config::Direction::TWO_LINES_TX_ONLY;
  88:../../libDaisy/src/dev/oled_ssd130x.h ****             spi_config.datasize       = 8;
  89:../../libDaisy/src/dev/oled_ssd130x.h ****             spi_config.clock_polarity = SpiHandle::Config::ClockPolarity::LOW;
  90:../../libDaisy/src/dev/oled_ssd130x.h ****             spi_config.clock_phase    = SpiHandle::Config::ClockPhase::ONE_EDGE;
  91:../../libDaisy/src/dev/oled_ssd130x.h ****             spi_config.nss            = SpiHandle::Config::NSS::HARD_OUTPUT;
  92:../../libDaisy/src/dev/oled_ssd130x.h ****             spi_config.baud_prescaler = SpiHandle::Config::BaudPrescaler::PS_8;
  93:../../libDaisy/src/dev/oled_ssd130x.h ****             // SPI pin config
  94:../../libDaisy/src/dev/oled_ssd130x.h ****             spi_config.pin_config.sclk = {DSY_GPIOG, 11};
  95:../../libDaisy/src/dev/oled_ssd130x.h ****             spi_config.pin_config.miso = {DSY_GPIOX, 0};
  96:../../libDaisy/src/dev/oled_ssd130x.h ****             spi_config.pin_config.mosi = {DSY_GPIOB, 5};
  97:../../libDaisy/src/dev/oled_ssd130x.h ****             spi_config.pin_config.nss  = {DSY_GPIOG, 10};
  98:../../libDaisy/src/dev/oled_ssd130x.h ****             // SSD130x control pin config
ARM GAS  /var/folders/th/s5djnwg15xxc0dk87c413f_h0000gn/T//ccCW3aXI.s 			page 25


  99:../../libDaisy/src/dev/oled_ssd130x.h ****             pin_config.dc    = {DSY_GPIOB, 4};
 100:../../libDaisy/src/dev/oled_ssd130x.h ****             pin_config.reset = {DSY_GPIOB, 15};
 101:../../libDaisy/src/dev/oled_ssd130x.h ****         }
 102:../../libDaisy/src/dev/oled_ssd130x.h ****     };
 103:../../libDaisy/src/dev/oled_ssd130x.h ****     void Init(const Config& config)
 104:../../libDaisy/src/dev/oled_ssd130x.h ****     {
 105:../../libDaisy/src/dev/oled_ssd130x.h ****         // Initialize both GPIO
 106:../../libDaisy/src/dev/oled_ssd130x.h ****         pin_dc_.mode = DSY_GPIO_MODE_OUTPUT_PP;
 107:../../libDaisy/src/dev/oled_ssd130x.h ****         pin_dc_.pin  = config.pin_config.dc;
 108:../../libDaisy/src/dev/oled_ssd130x.h ****         dsy_gpio_init(&pin_dc_);
 109:../../libDaisy/src/dev/oled_ssd130x.h ****         pin_reset_.mode = DSY_GPIO_MODE_OUTPUT_PP;
 110:../../libDaisy/src/dev/oled_ssd130x.h ****         pin_reset_.pin  = config.pin_config.reset;
 111:../../libDaisy/src/dev/oled_ssd130x.h ****         dsy_gpio_init(&pin_reset_);
 112:../../libDaisy/src/dev/oled_ssd130x.h **** 
 113:../../libDaisy/src/dev/oled_ssd130x.h ****         // Initialize SPI
 114:../../libDaisy/src/dev/oled_ssd130x.h ****         spi_.Init(config.spi_config);
 115:../../libDaisy/src/dev/oled_ssd130x.h **** 
 116:../../libDaisy/src/dev/oled_ssd130x.h ****         // Reset and Configure OLED.
 117:../../libDaisy/src/dev/oled_ssd130x.h ****         dsy_gpio_write(&pin_reset_, 0);
 118:../../libDaisy/src/dev/oled_ssd130x.h ****         System::Delay(10);
 119:../../libDaisy/src/dev/oled_ssd130x.h ****         dsy_gpio_write(&pin_reset_, 1);
 120:../../libDaisy/src/dev/oled_ssd130x.h ****         System::Delay(10);
 121:../../libDaisy/src/dev/oled_ssd130x.h ****     };
 122:../../libDaisy/src/dev/oled_ssd130x.h ****     void SendCommand(uint8_t cmd)
 123:../../libDaisy/src/dev/oled_ssd130x.h ****     {
 124:../../libDaisy/src/dev/oled_ssd130x.h ****         dsy_gpio_write(&pin_dc_, 0);
 125:../../libDaisy/src/dev/oled_ssd130x.h ****         spi_.BlockingTransmit(&cmd, 1);
 126:../../libDaisy/src/dev/oled_ssd130x.h ****     };
 127:../../libDaisy/src/dev/oled_ssd130x.h **** 
 128:../../libDaisy/src/dev/oled_ssd130x.h ****     void SendData(uint8_t* buff, size_t size)
 129:../../libDaisy/src/dev/oled_ssd130x.h ****     {
 130:../../libDaisy/src/dev/oled_ssd130x.h ****         dsy_gpio_write(&pin_dc_, 1);
 131:../../libDaisy/src/dev/oled_ssd130x.h ****         spi_.BlockingTransmit(buff, size);
 132:../../libDaisy/src/dev/oled_ssd130x.h ****     };
 133:../../libDaisy/src/dev/oled_ssd130x.h **** 
 134:../../libDaisy/src/dev/oled_ssd130x.h ****   private:
 135:../../libDaisy/src/dev/oled_ssd130x.h ****     SpiHandle spi_;
 136:../../libDaisy/src/dev/oled_ssd130x.h ****     dsy_gpio  pin_reset_;
 137:../../libDaisy/src/dev/oled_ssd130x.h ****     dsy_gpio  pin_dc_;
 138:../../libDaisy/src/dev/oled_ssd130x.h **** };
 139:../../libDaisy/src/dev/oled_ssd130x.h **** 
 140:../../libDaisy/src/dev/oled_ssd130x.h **** /**
 141:../../libDaisy/src/dev/oled_ssd130x.h ****  * Soft SPI Transport for SSD1306 / SSD1309 OLED display devices
 142:../../libDaisy/src/dev/oled_ssd130x.h ****  */
 143:../../libDaisy/src/dev/oled_ssd130x.h **** class SSD130x4WireSoftSpiTransport
 144:../../libDaisy/src/dev/oled_ssd130x.h **** {
 145:../../libDaisy/src/dev/oled_ssd130x.h ****   public:
 146:../../libDaisy/src/dev/oled_ssd130x.h ****     struct Config
 147:../../libDaisy/src/dev/oled_ssd130x.h ****     {
 148:../../libDaisy/src/dev/oled_ssd130x.h ****         Config()
 149:../../libDaisy/src/dev/oled_ssd130x.h ****         {
 150:../../libDaisy/src/dev/oled_ssd130x.h ****             // Initialize using defaults
 151:../../libDaisy/src/dev/oled_ssd130x.h ****             Defaults();
 152:../../libDaisy/src/dev/oled_ssd130x.h ****         }
 153:../../libDaisy/src/dev/oled_ssd130x.h ****         struct
 154:../../libDaisy/src/dev/oled_ssd130x.h ****         {
 155:../../libDaisy/src/dev/oled_ssd130x.h ****             uint32_t     sclk_delay;
ARM GAS  /var/folders/th/s5djnwg15xxc0dk87c413f_h0000gn/T//ccCW3aXI.s 			page 26


 156:../../libDaisy/src/dev/oled_ssd130x.h ****             dsy_gpio_pin sclk;
 157:../../libDaisy/src/dev/oled_ssd130x.h ****             dsy_gpio_pin mosi;
 158:../../libDaisy/src/dev/oled_ssd130x.h ****             dsy_gpio_pin dc;
 159:../../libDaisy/src/dev/oled_ssd130x.h ****             dsy_gpio_pin reset;
 160:../../libDaisy/src/dev/oled_ssd130x.h ****         } pin_config;
 161:../../libDaisy/src/dev/oled_ssd130x.h ****         void Defaults()
 162:../../libDaisy/src/dev/oled_ssd130x.h ****         {
 163:../../libDaisy/src/dev/oled_ssd130x.h ****             pin_config.sclk_delay = 0; // fast as possible?!
 164:../../libDaisy/src/dev/oled_ssd130x.h ****             // SPI peripheral config
 165:../../libDaisy/src/dev/oled_ssd130x.h ****             pin_config.sclk = {DSY_GPIOD, 3}; /**< D10 - SPI2 SCK  */
 166:../../libDaisy/src/dev/oled_ssd130x.h ****             pin_config.mosi = {DSY_GPIOC, 3}; /**< D9  - SPI2 MOSI */
 167:../../libDaisy/src/dev/oled_ssd130x.h ****             // SSD130x control pin config
 168:../../libDaisy/src/dev/oled_ssd130x.h ****             pin_config.dc    = {DSY_GPIOC, 11}; //D2
 169:../../libDaisy/src/dev/oled_ssd130x.h ****             pin_config.reset = {DSY_GPIOC, 10}; //D3
 170:../../libDaisy/src/dev/oled_ssd130x.h ****         }
 171:../../libDaisy/src/dev/oled_ssd130x.h ****     };
 172:../../libDaisy/src/dev/oled_ssd130x.h ****     void Init(const Config& config)
 173:../../libDaisy/src/dev/oled_ssd130x.h ****     {
 174:../../libDaisy/src/dev/oled_ssd130x.h ****         // Initialize both GPIO
 175:../../libDaisy/src/dev/oled_ssd130x.h ****         pin_sclk_.mode = DSY_GPIO_MODE_OUTPUT_PP;
 176:../../libDaisy/src/dev/oled_ssd130x.h ****         pin_sclk_.pin  = config.pin_config.sclk;
 177:../../libDaisy/src/dev/oled_ssd130x.h ****         dsy_gpio_init(&pin_sclk_);
 178:../../libDaisy/src/dev/oled_ssd130x.h ****         dsy_gpio_write(&pin_sclk_, 1); //ClockPolarity::LOW
 179:../../libDaisy/src/dev/oled_ssd130x.h ****         clk_delay      = config.pin_config.sclk_delay;
 180:../../libDaisy/src/dev/oled_ssd130x.h ****         pin_mosi_.mode = DSY_GPIO_MODE_OUTPUT_PP;
 181:../../libDaisy/src/dev/oled_ssd130x.h ****         pin_mosi_.pin  = config.pin_config.mosi;
 182:../../libDaisy/src/dev/oled_ssd130x.h ****         dsy_gpio_init(&pin_mosi_);
 183:../../libDaisy/src/dev/oled_ssd130x.h ****         dsy_gpio_write(&pin_mosi_, 0);
 184:../../libDaisy/src/dev/oled_ssd130x.h **** 
 185:../../libDaisy/src/dev/oled_ssd130x.h ****         pin_dc_.mode = DSY_GPIO_MODE_OUTPUT_PP;
 186:../../libDaisy/src/dev/oled_ssd130x.h ****         pin_dc_.pin  = config.pin_config.dc;
 187:../../libDaisy/src/dev/oled_ssd130x.h ****         dsy_gpio_init(&pin_dc_);
 188:../../libDaisy/src/dev/oled_ssd130x.h ****         pin_reset_.mode = DSY_GPIO_MODE_OUTPUT_PP;
 189:../../libDaisy/src/dev/oled_ssd130x.h ****         pin_reset_.pin  = config.pin_config.reset;
 190:../../libDaisy/src/dev/oled_ssd130x.h ****         dsy_gpio_init(&pin_reset_);
 191:../../libDaisy/src/dev/oled_ssd130x.h **** 
 192:../../libDaisy/src/dev/oled_ssd130x.h ****         // Reset and Configure OLED.
 193:../../libDaisy/src/dev/oled_ssd130x.h ****         dsy_gpio_write(&pin_reset_, 0);
 194:../../libDaisy/src/dev/oled_ssd130x.h ****         System::Delay(10);
 195:../../libDaisy/src/dev/oled_ssd130x.h ****         dsy_gpio_write(&pin_reset_, 1);
 196:../../libDaisy/src/dev/oled_ssd130x.h ****         System::Delay(10);
 197:../../libDaisy/src/dev/oled_ssd130x.h ****     };
 198:../../libDaisy/src/dev/oled_ssd130x.h ****     void SendCommand(uint8_t cmd)
 199:../../libDaisy/src/dev/oled_ssd130x.h ****     {
 200:../../libDaisy/src/dev/oled_ssd130x.h ****         dsy_gpio_write(&pin_dc_, 0);
 201:../../libDaisy/src/dev/oled_ssd130x.h ****         SoftSpiTransmit(cmd);
 202:../../libDaisy/src/dev/oled_ssd130x.h ****     };
 203:../../libDaisy/src/dev/oled_ssd130x.h **** 
 204:../../libDaisy/src/dev/oled_ssd130x.h ****     void SendData(uint8_t* buff, size_t size)
 205:../../libDaisy/src/dev/oled_ssd130x.h ****     {
 206:../../libDaisy/src/dev/oled_ssd130x.h ****         dsy_gpio_write(&pin_dc_, 1);
 207:../../libDaisy/src/dev/oled_ssd130x.h ****         for(size_t i = 0; i < size; i++)
 208:../../libDaisy/src/dev/oled_ssd130x.h ****             SoftSpiTransmit(buff[i]);
 209:../../libDaisy/src/dev/oled_ssd130x.h ****     };
 210:../../libDaisy/src/dev/oled_ssd130x.h **** 
 211:../../libDaisy/src/dev/oled_ssd130x.h ****   private:
 212:../../libDaisy/src/dev/oled_ssd130x.h ****     void SoftSpiTransmit(uint8_t val)
ARM GAS  /var/folders/th/s5djnwg15xxc0dk87c413f_h0000gn/T//ccCW3aXI.s 			page 27


 213:../../libDaisy/src/dev/oled_ssd130x.h ****     {
 214:../../libDaisy/src/dev/oled_ssd130x.h ****         // bit flip
 215:../../libDaisy/src/dev/oled_ssd130x.h ****         val = ((val & 0x01) << 7) | ((val & 0x02) << 5) | ((val & 0x04) << 3)
 216:../../libDaisy/src/dev/oled_ssd130x.h ****               | ((val & 0x08) << 1) | ((val & 0x10) >> 1) | ((val & 0x20) >> 3)
 217:../../libDaisy/src/dev/oled_ssd130x.h ****               | ((val & 0x40) >> 5) | ((val & 0x80) >> 7);
 218:../../libDaisy/src/dev/oled_ssd130x.h **** 
 219:../../libDaisy/src/dev/oled_ssd130x.h ****         for(uint8_t bit = 0u; bit < 8u; bit++)
 220:../../libDaisy/src/dev/oled_ssd130x.h ****         {
 221:../../libDaisy/src/dev/oled_ssd130x.h ****             dsy_gpio_write(&pin_mosi_, ((val & (1 << bit)) ? 1 : 0));
 222:../../libDaisy/src/dev/oled_ssd130x.h **** 
 223:../../libDaisy/src/dev/oled_ssd130x.h ****             System::DelayTicks(clk_delay);
 224:../../libDaisy/src/dev/oled_ssd130x.h **** 
 225:../../libDaisy/src/dev/oled_ssd130x.h ****             dsy_gpio_toggle(&pin_sclk_);
 226:../../libDaisy/src/dev/oled_ssd130x.h **** 
 227:../../libDaisy/src/dev/oled_ssd130x.h ****             System::DelayTicks(clk_delay);
 228:../../libDaisy/src/dev/oled_ssd130x.h **** 
 229:../../libDaisy/src/dev/oled_ssd130x.h ****             dsy_gpio_toggle(&pin_sclk_);
 230:../../libDaisy/src/dev/oled_ssd130x.h ****         }
 231:../../libDaisy/src/dev/oled_ssd130x.h ****     }
 232:../../libDaisy/src/dev/oled_ssd130x.h **** 
 233:../../libDaisy/src/dev/oled_ssd130x.h ****     uint32_t clk_delay;
 234:../../libDaisy/src/dev/oled_ssd130x.h ****     dsy_gpio pin_sclk_;
 235:../../libDaisy/src/dev/oled_ssd130x.h ****     dsy_gpio pin_mosi_;
 236:../../libDaisy/src/dev/oled_ssd130x.h ****     dsy_gpio pin_reset_;
 237:../../libDaisy/src/dev/oled_ssd130x.h ****     dsy_gpio pin_dc_;
 238:../../libDaisy/src/dev/oled_ssd130x.h **** };
 239:../../libDaisy/src/dev/oled_ssd130x.h **** 
 240:../../libDaisy/src/dev/oled_ssd130x.h **** 
 241:../../libDaisy/src/dev/oled_ssd130x.h **** /**
 242:../../libDaisy/src/dev/oled_ssd130x.h ****  * A driver implementation for the SSD1306/SSD1309
 243:../../libDaisy/src/dev/oled_ssd130x.h ****  */
 244:../../libDaisy/src/dev/oled_ssd130x.h **** template <size_t width, size_t height, typename Transport>
 245:../../libDaisy/src/dev/oled_ssd130x.h **** class SSD130xDriver
 246:../../libDaisy/src/dev/oled_ssd130x.h **** {
 247:../../libDaisy/src/dev/oled_ssd130x.h ****   public:
 248:../../libDaisy/src/dev/oled_ssd130x.h ****     struct Config
 249:../../libDaisy/src/dev/oled_ssd130x.h ****     {
 250:../../libDaisy/src/dev/oled_ssd130x.h ****         typename Transport::Config transport_config;
 251:../../libDaisy/src/dev/oled_ssd130x.h ****     };
 252:../../libDaisy/src/dev/oled_ssd130x.h **** 
 253:../../libDaisy/src/dev/oled_ssd130x.h ****     void Init(Config config)
 489              		.loc 7 253 10 is_stmt 1 view -0
 490              		.cfi_startproc
 491              		@ args = 28, pretend = 16, frame = 8
 492              		@ frame_needed = 0, uses_anonymous_args = 0
 493              		.loc 7 253 10 is_stmt 0 view .LVU122
 494 0000 84B0     		sub	sp, sp, #16
 495              		.cfi_def_cfa_offset 16
 496 0002 70B5     		push	{r4, r5, r6, lr}
 497              		.cfi_def_cfa_offset 32
 498              		.cfi_offset 4, -32
 499              		.cfi_offset 5, -28
 500              		.cfi_offset 6, -24
 501              		.cfi_offset 14, -20
 502 0004 84B0     		sub	sp, sp, #16
 503              		.cfi_def_cfa_offset 48
 504              		.loc 7 253 10 view .LVU123
ARM GAS  /var/folders/th/s5djnwg15xxc0dk87c413f_h0000gn/T//ccCW3aXI.s 			page 28


 505 0006 0446     		mov	r4, r0
 506              	.LVL29:
 507              	.LBB419:
 508              	.LBI419:
  37:../../libDaisy/src/dev/oled_ssd130x.h ****     {
 509              		.loc 7 37 10 is_stmt 1 view .LVU124
 510              	.LBB420:
  39:../../libDaisy/src/dev/oled_ssd130x.h ****         i2c_.Init(config.i2c_config);
 511              		.loc 7 39 9 view .LVU125
 512              	.LBE420:
 513              	.LBE419:
 514              	.LBB423:
 515              	.LBB424:
  45:../../libDaisy/src/dev/oled_ssd130x.h ****     };
 516              		.loc 7 45 30 is_stmt 0 view .LVU126
 517 0008 4FF47A76 		mov	r6, #1000
 518              	.LBE424:
 519              	.LBE423:
 520              		.loc 7 253 10 view .LVU127
 521 000c 09AD     		add	r5, sp, #36
 522 000e 85E80E00 		stm	r5, {r1, r2, r3}
 523              	.LBB427:
 524              	.LBB421:
  39:../../libDaisy/src/dev/oled_ssd130x.h ****         i2c_.Init(config.i2c_config);
 525              		.loc 7 39 22 view .LVU128
 526 0012 9DF83830 		ldrb	r3, [sp, #56]	@ zero_extendqisi2
  40:../../libDaisy/src/dev/oled_ssd130x.h ****     };
 527              		.loc 7 40 18 view .LVU129
 528 0016 2946     		mov	r1, r5
 529              	.LBE421:
 530              	.LBE427:
 531              	.LBB428:
 532              	.LBB425:
  44:../../libDaisy/src/dev/oled_ssd130x.h ****         i2c_.TransmitBlocking(i2c_address_, buf, 2, 1000);
 533              		.loc 7 44 17 view .LVU130
 534 0018 0025     		movs	r5, #0
 535              	.LBE425:
 536              	.LBE428:
 537              	.LBB429:
 538              	.LBB422:
  39:../../libDaisy/src/dev/oled_ssd130x.h ****         i2c_.Init(config.i2c_config);
 539              		.loc 7 39 22 view .LVU131
 540 001a 0371     		strb	r3, [r0, #4]
  40:../../libDaisy/src/dev/oled_ssd130x.h ****     };
 541              		.loc 7 40 9 is_stmt 1 view .LVU132
  40:../../libDaisy/src/dev/oled_ssd130x.h ****     };
 542              		.loc 7 40 18 is_stmt 0 view .LVU133
 543 001c FFF7FEFF 		bl	_ZN5daisy9I2CHandle4InitERKNS0_6ConfigE
 544              	.LVL30:
  40:../../libDaisy/src/dev/oled_ssd130x.h ****     };
 545              		.loc 7 40 18 view .LVU134
 546              	.LBE422:
 547              	.LBE429:
 548              	.LBB430:
 549              	.LBI423:
  42:../../libDaisy/src/dev/oled_ssd130x.h ****     {
 550              		.loc 7 42 10 is_stmt 1 view .LVU135
ARM GAS  /var/folders/th/s5djnwg15xxc0dk87c413f_h0000gn/T//ccCW3aXI.s 			page 29


 551              	.LBB426:
  44:../../libDaisy/src/dev/oled_ssd130x.h ****         i2c_.TransmitBlocking(i2c_address_, buf, 2, 1000);
 552              		.loc 7 44 9 view .LVU136
  44:../../libDaisy/src/dev/oled_ssd130x.h ****         i2c_.TransmitBlocking(i2c_address_, buf, 2, 1000);
 553              		.loc 7 44 36 is_stmt 0 view .LVU137
 554 0020 AE23     		movs	r3, #174
  45:../../libDaisy/src/dev/oled_ssd130x.h ****     };
 555              		.loc 7 45 30 view .LVU138
 556 0022 03AA     		add	r2, sp, #12
 557 0024 0096     		str	r6, [sp]
  44:../../libDaisy/src/dev/oled_ssd130x.h ****         i2c_.TransmitBlocking(i2c_address_, buf, 2, 1000);
 558              		.loc 7 44 36 view .LVU139
 559 0026 8DF80D30 		strb	r3, [sp, #13]
  45:../../libDaisy/src/dev/oled_ssd130x.h ****     };
 560              		.loc 7 45 9 is_stmt 1 view .LVU140
  45:../../libDaisy/src/dev/oled_ssd130x.h ****     };
 561              		.loc 7 45 30 is_stmt 0 view .LVU141
 562 002a 2046     		mov	r0, r4
 563 002c 2179     		ldrb	r1, [r4, #4]	@ zero_extendqisi2
 564 002e 0223     		movs	r3, #2
  44:../../libDaisy/src/dev/oled_ssd130x.h ****         i2c_.TransmitBlocking(i2c_address_, buf, 2, 1000);
 565              		.loc 7 44 17 view .LVU142
 566 0030 8DF80C50 		strb	r5, [sp, #12]
  45:../../libDaisy/src/dev/oled_ssd130x.h ****     };
 567              		.loc 7 45 30 view .LVU143
 568 0034 FFF7FEFF 		bl	_ZN5daisy9I2CHandle16TransmitBlockingEtPhtm
 569              	.LVL31:
  45:../../libDaisy/src/dev/oled_ssd130x.h ****     };
 570              		.loc 7 45 30 view .LVU144
 571              	.LBE426:
 572              	.LBE430:
 573              	.LBB431:
 574              	.LBI431:
  42:../../libDaisy/src/dev/oled_ssd130x.h ****     {
 575              		.loc 7 42 10 is_stmt 1 view .LVU145
 576              	.LBB432:
  44:../../libDaisy/src/dev/oled_ssd130x.h ****         i2c_.TransmitBlocking(i2c_address_, buf, 2, 1000);
 577              		.loc 7 44 9 view .LVU146
  44:../../libDaisy/src/dev/oled_ssd130x.h ****         i2c_.TransmitBlocking(i2c_address_, buf, 2, 1000);
 578              		.loc 7 44 36 is_stmt 0 view .LVU147
 579 0038 D523     		movs	r3, #213
  45:../../libDaisy/src/dev/oled_ssd130x.h ****     };
 580              		.loc 7 45 30 view .LVU148
 581 003a 03AA     		add	r2, sp, #12
 582 003c 0096     		str	r6, [sp]
 583 003e 2046     		mov	r0, r4
 584 0040 2179     		ldrb	r1, [r4, #4]	@ zero_extendqisi2
  44:../../libDaisy/src/dev/oled_ssd130x.h ****         i2c_.TransmitBlocking(i2c_address_, buf, 2, 1000);
 585              		.loc 7 44 36 view .LVU149
 586 0042 8DF80D30 		strb	r3, [sp, #13]
  45:../../libDaisy/src/dev/oled_ssd130x.h ****     };
 587              		.loc 7 45 9 is_stmt 1 view .LVU150
  45:../../libDaisy/src/dev/oled_ssd130x.h ****     };
 588              		.loc 7 45 30 is_stmt 0 view .LVU151
 589 0046 0223     		movs	r3, #2
  44:../../libDaisy/src/dev/oled_ssd130x.h ****         i2c_.TransmitBlocking(i2c_address_, buf, 2, 1000);
 590              		.loc 7 44 17 view .LVU152
ARM GAS  /var/folders/th/s5djnwg15xxc0dk87c413f_h0000gn/T//ccCW3aXI.s 			page 30


 591 0048 8DF80C50 		strb	r5, [sp, #12]
  45:../../libDaisy/src/dev/oled_ssd130x.h ****     };
 592              		.loc 7 45 30 view .LVU153
 593 004c FFF7FEFF 		bl	_ZN5daisy9I2CHandle16TransmitBlockingEtPhtm
 594              	.LVL32:
  45:../../libDaisy/src/dev/oled_ssd130x.h ****     };
 595              		.loc 7 45 30 view .LVU154
 596              	.LBE432:
 597              	.LBE431:
 598              	.LBB433:
 599              	.LBI433:
  42:../../libDaisy/src/dev/oled_ssd130x.h ****     {
 600              		.loc 7 42 10 is_stmt 1 view .LVU155
 601              	.LBB434:
  44:../../libDaisy/src/dev/oled_ssd130x.h ****         i2c_.TransmitBlocking(i2c_address_, buf, 2, 1000);
 602              		.loc 7 44 9 view .LVU156
  44:../../libDaisy/src/dev/oled_ssd130x.h ****         i2c_.TransmitBlocking(i2c_address_, buf, 2, 1000);
 603              		.loc 7 44 36 is_stmt 0 view .LVU157
 604 0050 8023     		movs	r3, #128
  45:../../libDaisy/src/dev/oled_ssd130x.h ****     };
 605              		.loc 7 45 30 view .LVU158
 606 0052 03AA     		add	r2, sp, #12
 607 0054 0096     		str	r6, [sp]
 608 0056 2046     		mov	r0, r4
 609 0058 2179     		ldrb	r1, [r4, #4]	@ zero_extendqisi2
  44:../../libDaisy/src/dev/oled_ssd130x.h ****         i2c_.TransmitBlocking(i2c_address_, buf, 2, 1000);
 610              		.loc 7 44 36 view .LVU159
 611 005a 8DF80D30 		strb	r3, [sp, #13]
  45:../../libDaisy/src/dev/oled_ssd130x.h ****     };
 612              		.loc 7 45 9 is_stmt 1 view .LVU160
  45:../../libDaisy/src/dev/oled_ssd130x.h ****     };
 613              		.loc 7 45 30 is_stmt 0 view .LVU161
 614 005e 0223     		movs	r3, #2
  44:../../libDaisy/src/dev/oled_ssd130x.h ****         i2c_.TransmitBlocking(i2c_address_, buf, 2, 1000);
 615              		.loc 7 44 17 view .LVU162
 616 0060 8DF80C50 		strb	r5, [sp, #12]
  45:../../libDaisy/src/dev/oled_ssd130x.h ****     };
 617              		.loc 7 45 30 view .LVU163
 618 0064 FFF7FEFF 		bl	_ZN5daisy9I2CHandle16TransmitBlockingEtPhtm
 619              	.LVL33:
  45:../../libDaisy/src/dev/oled_ssd130x.h ****     };
 620              		.loc 7 45 30 view .LVU164
 621              	.LBE434:
 622              	.LBE433:
 623              	.LBB435:
 624              	.LBI435:
  42:../../libDaisy/src/dev/oled_ssd130x.h ****     {
 625              		.loc 7 42 10 is_stmt 1 view .LVU165
 626              	.LBB436:
  44:../../libDaisy/src/dev/oled_ssd130x.h ****         i2c_.TransmitBlocking(i2c_address_, buf, 2, 1000);
 627              		.loc 7 44 9 view .LVU166
  44:../../libDaisy/src/dev/oled_ssd130x.h ****         i2c_.TransmitBlocking(i2c_address_, buf, 2, 1000);
 628              		.loc 7 44 36 is_stmt 0 view .LVU167
 629 0068 A823     		movs	r3, #168
  45:../../libDaisy/src/dev/oled_ssd130x.h ****     };
 630              		.loc 7 45 30 view .LVU168
 631 006a 03AA     		add	r2, sp, #12
ARM GAS  /var/folders/th/s5djnwg15xxc0dk87c413f_h0000gn/T//ccCW3aXI.s 			page 31


 632 006c 0096     		str	r6, [sp]
 633 006e 2046     		mov	r0, r4
 634 0070 2179     		ldrb	r1, [r4, #4]	@ zero_extendqisi2
  44:../../libDaisy/src/dev/oled_ssd130x.h ****         i2c_.TransmitBlocking(i2c_address_, buf, 2, 1000);
 635              		.loc 7 44 36 view .LVU169
 636 0072 8DF80D30 		strb	r3, [sp, #13]
  45:../../libDaisy/src/dev/oled_ssd130x.h ****     };
 637              		.loc 7 45 9 is_stmt 1 view .LVU170
  45:../../libDaisy/src/dev/oled_ssd130x.h ****     };
 638              		.loc 7 45 30 is_stmt 0 view .LVU171
 639 0076 0223     		movs	r3, #2
  44:../../libDaisy/src/dev/oled_ssd130x.h ****         i2c_.TransmitBlocking(i2c_address_, buf, 2, 1000);
 640              		.loc 7 44 17 view .LVU172
 641 0078 8DF80C50 		strb	r5, [sp, #12]
  45:../../libDaisy/src/dev/oled_ssd130x.h ****     };
 642              		.loc 7 45 30 view .LVU173
 643 007c FFF7FEFF 		bl	_ZN5daisy9I2CHandle16TransmitBlockingEtPhtm
 644              	.LVL34:
  45:../../libDaisy/src/dev/oled_ssd130x.h ****     };
 645              		.loc 7 45 30 view .LVU174
 646              	.LBE436:
 647              	.LBE435:
 648              	.LBB437:
 649              	.LBI437:
  42:../../libDaisy/src/dev/oled_ssd130x.h ****     {
 650              		.loc 7 42 10 is_stmt 1 view .LVU175
 651              	.LBB438:
  44:../../libDaisy/src/dev/oled_ssd130x.h ****         i2c_.TransmitBlocking(i2c_address_, buf, 2, 1000);
 652              		.loc 7 44 9 view .LVU176
  44:../../libDaisy/src/dev/oled_ssd130x.h ****         i2c_.TransmitBlocking(i2c_address_, buf, 2, 1000);
 653              		.loc 7 44 36 is_stmt 0 view .LVU177
 654 0080 3F23     		movs	r3, #63
  45:../../libDaisy/src/dev/oled_ssd130x.h ****     };
 655              		.loc 7 45 30 view .LVU178
 656 0082 03AA     		add	r2, sp, #12
 657 0084 0096     		str	r6, [sp]
 658 0086 2046     		mov	r0, r4
 659 0088 2179     		ldrb	r1, [r4, #4]	@ zero_extendqisi2
  44:../../libDaisy/src/dev/oled_ssd130x.h ****         i2c_.TransmitBlocking(i2c_address_, buf, 2, 1000);
 660              		.loc 7 44 36 view .LVU179
 661 008a 8DF80D30 		strb	r3, [sp, #13]
  45:../../libDaisy/src/dev/oled_ssd130x.h ****     };
 662              		.loc 7 45 9 is_stmt 1 view .LVU180
  45:../../libDaisy/src/dev/oled_ssd130x.h ****     };
 663              		.loc 7 45 30 is_stmt 0 view .LVU181
 664 008e 0223     		movs	r3, #2
  44:../../libDaisy/src/dev/oled_ssd130x.h ****         i2c_.TransmitBlocking(i2c_address_, buf, 2, 1000);
 665              		.loc 7 44 17 view .LVU182
 666 0090 8DF80C50 		strb	r5, [sp, #12]
  45:../../libDaisy/src/dev/oled_ssd130x.h ****     };
 667              		.loc 7 45 30 view .LVU183
 668 0094 FFF7FEFF 		bl	_ZN5daisy9I2CHandle16TransmitBlockingEtPhtm
 669              	.LVL35:
  45:../../libDaisy/src/dev/oled_ssd130x.h ****     };
 670              		.loc 7 45 30 view .LVU184
 671              	.LBE438:
 672              	.LBE437:
ARM GAS  /var/folders/th/s5djnwg15xxc0dk87c413f_h0000gn/T//ccCW3aXI.s 			page 32


 673              	.LBB439:
 674              	.LBI439:
  42:../../libDaisy/src/dev/oled_ssd130x.h ****     {
 675              		.loc 7 42 10 is_stmt 1 view .LVU185
 676              	.LBB440:
  44:../../libDaisy/src/dev/oled_ssd130x.h ****         i2c_.TransmitBlocking(i2c_address_, buf, 2, 1000);
 677              		.loc 7 44 9 view .LVU186
  44:../../libDaisy/src/dev/oled_ssd130x.h ****         i2c_.TransmitBlocking(i2c_address_, buf, 2, 1000);
 678              		.loc 7 44 36 is_stmt 0 view .LVU187
 679 0098 DA23     		movs	r3, #218
  45:../../libDaisy/src/dev/oled_ssd130x.h ****     };
 680              		.loc 7 45 30 view .LVU188
 681 009a 03AA     		add	r2, sp, #12
 682 009c 0096     		str	r6, [sp]
 683 009e 2046     		mov	r0, r4
 684 00a0 2179     		ldrb	r1, [r4, #4]	@ zero_extendqisi2
  44:../../libDaisy/src/dev/oled_ssd130x.h ****         i2c_.TransmitBlocking(i2c_address_, buf, 2, 1000);
 685              		.loc 7 44 36 view .LVU189
 686 00a2 8DF80D30 		strb	r3, [sp, #13]
  45:../../libDaisy/src/dev/oled_ssd130x.h ****     };
 687              		.loc 7 45 9 is_stmt 1 view .LVU190
  45:../../libDaisy/src/dev/oled_ssd130x.h ****     };
 688              		.loc 7 45 30 is_stmt 0 view .LVU191
 689 00a6 0223     		movs	r3, #2
  44:../../libDaisy/src/dev/oled_ssd130x.h ****         i2c_.TransmitBlocking(i2c_address_, buf, 2, 1000);
 690              		.loc 7 44 17 view .LVU192
 691 00a8 8DF80C50 		strb	r5, [sp, #12]
  45:../../libDaisy/src/dev/oled_ssd130x.h ****     };
 692              		.loc 7 45 30 view .LVU193
 693 00ac FFF7FEFF 		bl	_ZN5daisy9I2CHandle16TransmitBlockingEtPhtm
 694              	.LVL36:
  45:../../libDaisy/src/dev/oled_ssd130x.h ****     };
 695              		.loc 7 45 30 view .LVU194
 696              	.LBE440:
 697              	.LBE439:
 698              	.LBB441:
 699              	.LBI441:
  42:../../libDaisy/src/dev/oled_ssd130x.h ****     {
 700              		.loc 7 42 10 is_stmt 1 view .LVU195
 701              	.LBB442:
  44:../../libDaisy/src/dev/oled_ssd130x.h ****         i2c_.TransmitBlocking(i2c_address_, buf, 2, 1000);
 702              		.loc 7 44 9 view .LVU196
  44:../../libDaisy/src/dev/oled_ssd130x.h ****         i2c_.TransmitBlocking(i2c_address_, buf, 2, 1000);
 703              		.loc 7 44 36 is_stmt 0 view .LVU197
 704 00b0 1223     		movs	r3, #18
  45:../../libDaisy/src/dev/oled_ssd130x.h ****     };
 705              		.loc 7 45 30 view .LVU198
 706 00b2 03AA     		add	r2, sp, #12
 707 00b4 0096     		str	r6, [sp]
 708 00b6 2046     		mov	r0, r4
 709 00b8 2179     		ldrb	r1, [r4, #4]	@ zero_extendqisi2
  44:../../libDaisy/src/dev/oled_ssd130x.h ****         i2c_.TransmitBlocking(i2c_address_, buf, 2, 1000);
 710              		.loc 7 44 36 view .LVU199
 711 00ba 8DF80D30 		strb	r3, [sp, #13]
  45:../../libDaisy/src/dev/oled_ssd130x.h ****     };
 712              		.loc 7 45 9 is_stmt 1 view .LVU200
  45:../../libDaisy/src/dev/oled_ssd130x.h ****     };
ARM GAS  /var/folders/th/s5djnwg15xxc0dk87c413f_h0000gn/T//ccCW3aXI.s 			page 33


 713              		.loc 7 45 30 is_stmt 0 view .LVU201
 714 00be 0223     		movs	r3, #2
  44:../../libDaisy/src/dev/oled_ssd130x.h ****         i2c_.TransmitBlocking(i2c_address_, buf, 2, 1000);
 715              		.loc 7 44 17 view .LVU202
 716 00c0 8DF80C50 		strb	r5, [sp, #12]
  45:../../libDaisy/src/dev/oled_ssd130x.h ****     };
 717              		.loc 7 45 30 view .LVU203
 718 00c4 FFF7FEFF 		bl	_ZN5daisy9I2CHandle16TransmitBlockingEtPhtm
 719              	.LVL37:
  45:../../libDaisy/src/dev/oled_ssd130x.h ****     };
 720              		.loc 7 45 30 view .LVU204
 721              	.LBE442:
 722              	.LBE441:
 723              	.LBB443:
 724              	.LBI443:
  42:../../libDaisy/src/dev/oled_ssd130x.h ****     {
 725              		.loc 7 42 10 is_stmt 1 view .LVU205
 726              	.LBB444:
  44:../../libDaisy/src/dev/oled_ssd130x.h ****         i2c_.TransmitBlocking(i2c_address_, buf, 2, 1000);
 727              		.loc 7 44 9 view .LVU206
  44:../../libDaisy/src/dev/oled_ssd130x.h ****         i2c_.TransmitBlocking(i2c_address_, buf, 2, 1000);
 728              		.loc 7 44 36 is_stmt 0 view .LVU207
 729 00c8 D323     		movs	r3, #211
  45:../../libDaisy/src/dev/oled_ssd130x.h ****     };
 730              		.loc 7 45 30 view .LVU208
 731 00ca 03AA     		add	r2, sp, #12
 732 00cc 0096     		str	r6, [sp]
 733 00ce 2046     		mov	r0, r4
 734 00d0 2179     		ldrb	r1, [r4, #4]	@ zero_extendqisi2
  44:../../libDaisy/src/dev/oled_ssd130x.h ****         i2c_.TransmitBlocking(i2c_address_, buf, 2, 1000);
 735              		.loc 7 44 36 view .LVU209
 736 00d2 8DF80D30 		strb	r3, [sp, #13]
  45:../../libDaisy/src/dev/oled_ssd130x.h ****     };
 737              		.loc 7 45 9 is_stmt 1 view .LVU210
  45:../../libDaisy/src/dev/oled_ssd130x.h ****     };
 738              		.loc 7 45 30 is_stmt 0 view .LVU211
 739 00d6 0223     		movs	r3, #2
  44:../../libDaisy/src/dev/oled_ssd130x.h ****         i2c_.TransmitBlocking(i2c_address_, buf, 2, 1000);
 740              		.loc 7 44 17 view .LVU212
 741 00d8 8DF80C50 		strb	r5, [sp, #12]
  45:../../libDaisy/src/dev/oled_ssd130x.h ****     };
 742              		.loc 7 45 30 view .LVU213
 743 00dc FFF7FEFF 		bl	_ZN5daisy9I2CHandle16TransmitBlockingEtPhtm
 744              	.LVL38:
  45:../../libDaisy/src/dev/oled_ssd130x.h ****     };
 745              		.loc 7 45 30 view .LVU214
 746              	.LBE444:
 747              	.LBE443:
 748              	.LBB445:
 749              	.LBI445:
  42:../../libDaisy/src/dev/oled_ssd130x.h ****     {
 750              		.loc 7 42 10 is_stmt 1 view .LVU215
 751              	.LBB446:
  44:../../libDaisy/src/dev/oled_ssd130x.h ****         i2c_.TransmitBlocking(i2c_address_, buf, 2, 1000);
 752              		.loc 7 44 9 view .LVU216
  45:../../libDaisy/src/dev/oled_ssd130x.h ****     };
 753              		.loc 7 45 30 is_stmt 0 view .LVU217
ARM GAS  /var/folders/th/s5djnwg15xxc0dk87c413f_h0000gn/T//ccCW3aXI.s 			page 34


 754 00e0 03AA     		add	r2, sp, #12
 755 00e2 0096     		str	r6, [sp]
 756 00e4 0223     		movs	r3, #2
 757 00e6 2179     		ldrb	r1, [r4, #4]	@ zero_extendqisi2
 758 00e8 2046     		mov	r0, r4
  44:../../libDaisy/src/dev/oled_ssd130x.h ****         i2c_.TransmitBlocking(i2c_address_, buf, 2, 1000);
 759              		.loc 7 44 17 view .LVU218
 760 00ea 8DF80C50 		strb	r5, [sp, #12]
  44:../../libDaisy/src/dev/oled_ssd130x.h ****         i2c_.TransmitBlocking(i2c_address_, buf, 2, 1000);
 761              		.loc 7 44 36 view .LVU219
 762 00ee 8DF80D50 		strb	r5, [sp, #13]
  45:../../libDaisy/src/dev/oled_ssd130x.h ****     };
 763              		.loc 7 45 9 is_stmt 1 view .LVU220
  45:../../libDaisy/src/dev/oled_ssd130x.h ****     };
 764              		.loc 7 45 30 is_stmt 0 view .LVU221
 765 00f2 FFF7FEFF 		bl	_ZN5daisy9I2CHandle16TransmitBlockingEtPhtm
 766              	.LVL39:
  45:../../libDaisy/src/dev/oled_ssd130x.h ****     };
 767              		.loc 7 45 30 view .LVU222
 768              	.LBE446:
 769              	.LBE445:
 770              	.LBB447:
 771              	.LBI447:
  42:../../libDaisy/src/dev/oled_ssd130x.h ****     {
 772              		.loc 7 42 10 is_stmt 1 view .LVU223
 773              	.LBB448:
  44:../../libDaisy/src/dev/oled_ssd130x.h ****         i2c_.TransmitBlocking(i2c_address_, buf, 2, 1000);
 774              		.loc 7 44 9 view .LVU224
  44:../../libDaisy/src/dev/oled_ssd130x.h ****         i2c_.TransmitBlocking(i2c_address_, buf, 2, 1000);
 775              		.loc 7 44 36 is_stmt 0 view .LVU225
 776 00f6 4023     		movs	r3, #64
  45:../../libDaisy/src/dev/oled_ssd130x.h ****     };
 777              		.loc 7 45 30 view .LVU226
 778 00f8 03AA     		add	r2, sp, #12
 779 00fa 0096     		str	r6, [sp]
 780 00fc 2046     		mov	r0, r4
 781 00fe 2179     		ldrb	r1, [r4, #4]	@ zero_extendqisi2
  44:../../libDaisy/src/dev/oled_ssd130x.h ****         i2c_.TransmitBlocking(i2c_address_, buf, 2, 1000);
 782              		.loc 7 44 36 view .LVU227
 783 0100 8DF80D30 		strb	r3, [sp, #13]
  45:../../libDaisy/src/dev/oled_ssd130x.h ****     };
 784              		.loc 7 45 9 is_stmt 1 view .LVU228
  45:../../libDaisy/src/dev/oled_ssd130x.h ****     };
 785              		.loc 7 45 30 is_stmt 0 view .LVU229
 786 0104 0223     		movs	r3, #2
  44:../../libDaisy/src/dev/oled_ssd130x.h ****         i2c_.TransmitBlocking(i2c_address_, buf, 2, 1000);
 787              		.loc 7 44 17 view .LVU230
 788 0106 8DF80C50 		strb	r5, [sp, #12]
  45:../../libDaisy/src/dev/oled_ssd130x.h ****     };
 789              		.loc 7 45 30 view .LVU231
 790 010a FFF7FEFF 		bl	_ZN5daisy9I2CHandle16TransmitBlockingEtPhtm
 791              	.LVL40:
  45:../../libDaisy/src/dev/oled_ssd130x.h ****     };
 792              		.loc 7 45 30 view .LVU232
 793              	.LBE448:
 794              	.LBE447:
 795              	.LBB449:
ARM GAS  /var/folders/th/s5djnwg15xxc0dk87c413f_h0000gn/T//ccCW3aXI.s 			page 35


 796              	.LBI449:
  42:../../libDaisy/src/dev/oled_ssd130x.h ****     {
 797              		.loc 7 42 10 is_stmt 1 view .LVU233
 798              	.LBB450:
  44:../../libDaisy/src/dev/oled_ssd130x.h ****         i2c_.TransmitBlocking(i2c_address_, buf, 2, 1000);
 799              		.loc 7 44 9 view .LVU234
  44:../../libDaisy/src/dev/oled_ssd130x.h ****         i2c_.TransmitBlocking(i2c_address_, buf, 2, 1000);
 800              		.loc 7 44 36 is_stmt 0 view .LVU235
 801 010e A623     		movs	r3, #166
  45:../../libDaisy/src/dev/oled_ssd130x.h ****     };
 802              		.loc 7 45 30 view .LVU236
 803 0110 03AA     		add	r2, sp, #12
 804 0112 0096     		str	r6, [sp]
 805 0114 2046     		mov	r0, r4
 806 0116 2179     		ldrb	r1, [r4, #4]	@ zero_extendqisi2
  44:../../libDaisy/src/dev/oled_ssd130x.h ****         i2c_.TransmitBlocking(i2c_address_, buf, 2, 1000);
 807              		.loc 7 44 36 view .LVU237
 808 0118 8DF80D30 		strb	r3, [sp, #13]
  45:../../libDaisy/src/dev/oled_ssd130x.h ****     };
 809              		.loc 7 45 9 is_stmt 1 view .LVU238
  45:../../libDaisy/src/dev/oled_ssd130x.h ****     };
 810              		.loc 7 45 30 is_stmt 0 view .LVU239
 811 011c 0223     		movs	r3, #2
  44:../../libDaisy/src/dev/oled_ssd130x.h ****         i2c_.TransmitBlocking(i2c_address_, buf, 2, 1000);
 812              		.loc 7 44 17 view .LVU240
 813 011e 8DF80C50 		strb	r5, [sp, #12]
  45:../../libDaisy/src/dev/oled_ssd130x.h ****     };
 814              		.loc 7 45 30 view .LVU241
 815 0122 FFF7FEFF 		bl	_ZN5daisy9I2CHandle16TransmitBlockingEtPhtm
 816              	.LVL41:
  45:../../libDaisy/src/dev/oled_ssd130x.h ****     };
 817              		.loc 7 45 30 view .LVU242
 818              	.LBE450:
 819              	.LBE449:
 820              	.LBB451:
 821              	.LBI451:
  42:../../libDaisy/src/dev/oled_ssd130x.h ****     {
 822              		.loc 7 42 10 is_stmt 1 view .LVU243
 823              	.LBB452:
  44:../../libDaisy/src/dev/oled_ssd130x.h ****         i2c_.TransmitBlocking(i2c_address_, buf, 2, 1000);
 824              		.loc 7 44 9 view .LVU244
  44:../../libDaisy/src/dev/oled_ssd130x.h ****         i2c_.TransmitBlocking(i2c_address_, buf, 2, 1000);
 825              		.loc 7 44 36 is_stmt 0 view .LVU245
 826 0126 A423     		movs	r3, #164
  45:../../libDaisy/src/dev/oled_ssd130x.h ****     };
 827              		.loc 7 45 30 view .LVU246
 828 0128 03AA     		add	r2, sp, #12
 829 012a 0096     		str	r6, [sp]
 830 012c 2046     		mov	r0, r4
 831 012e 2179     		ldrb	r1, [r4, #4]	@ zero_extendqisi2
  44:../../libDaisy/src/dev/oled_ssd130x.h ****         i2c_.TransmitBlocking(i2c_address_, buf, 2, 1000);
 832              		.loc 7 44 36 view .LVU247
 833 0130 8DF80D30 		strb	r3, [sp, #13]
  45:../../libDaisy/src/dev/oled_ssd130x.h ****     };
 834              		.loc 7 45 9 is_stmt 1 view .LVU248
  45:../../libDaisy/src/dev/oled_ssd130x.h ****     };
 835              		.loc 7 45 30 is_stmt 0 view .LVU249
ARM GAS  /var/folders/th/s5djnwg15xxc0dk87c413f_h0000gn/T//ccCW3aXI.s 			page 36


 836 0134 0223     		movs	r3, #2
  44:../../libDaisy/src/dev/oled_ssd130x.h ****         i2c_.TransmitBlocking(i2c_address_, buf, 2, 1000);
 837              		.loc 7 44 17 view .LVU250
 838 0136 8DF80C50 		strb	r5, [sp, #12]
  45:../../libDaisy/src/dev/oled_ssd130x.h ****     };
 839              		.loc 7 45 30 view .LVU251
 840 013a FFF7FEFF 		bl	_ZN5daisy9I2CHandle16TransmitBlockingEtPhtm
 841              	.LVL42:
  45:../../libDaisy/src/dev/oled_ssd130x.h ****     };
 842              		.loc 7 45 30 view .LVU252
 843              	.LBE452:
 844              	.LBE451:
 845              	.LBB453:
 846              	.LBI453:
  42:../../libDaisy/src/dev/oled_ssd130x.h ****     {
 847              		.loc 7 42 10 is_stmt 1 view .LVU253
 848              	.LBB454:
  44:../../libDaisy/src/dev/oled_ssd130x.h ****         i2c_.TransmitBlocking(i2c_address_, buf, 2, 1000);
 849              		.loc 7 44 9 view .LVU254
  44:../../libDaisy/src/dev/oled_ssd130x.h ****         i2c_.TransmitBlocking(i2c_address_, buf, 2, 1000);
 850              		.loc 7 44 36 is_stmt 0 view .LVU255
 851 013e 8D23     		movs	r3, #141
  45:../../libDaisy/src/dev/oled_ssd130x.h ****     };
 852              		.loc 7 45 30 view .LVU256
 853 0140 03AA     		add	r2, sp, #12
 854 0142 0096     		str	r6, [sp]
 855 0144 2046     		mov	r0, r4
 856 0146 2179     		ldrb	r1, [r4, #4]	@ zero_extendqisi2
  44:../../libDaisy/src/dev/oled_ssd130x.h ****         i2c_.TransmitBlocking(i2c_address_, buf, 2, 1000);
 857              		.loc 7 44 36 view .LVU257
 858 0148 8DF80D30 		strb	r3, [sp, #13]
  45:../../libDaisy/src/dev/oled_ssd130x.h ****     };
 859              		.loc 7 45 9 is_stmt 1 view .LVU258
  45:../../libDaisy/src/dev/oled_ssd130x.h ****     };
 860              		.loc 7 45 30 is_stmt 0 view .LVU259
 861 014c 0223     		movs	r3, #2
  44:../../libDaisy/src/dev/oled_ssd130x.h ****         i2c_.TransmitBlocking(i2c_address_, buf, 2, 1000);
 862              		.loc 7 44 17 view .LVU260
 863 014e 8DF80C50 		strb	r5, [sp, #12]
  45:../../libDaisy/src/dev/oled_ssd130x.h ****     };
 864              		.loc 7 45 30 view .LVU261
 865 0152 FFF7FEFF 		bl	_ZN5daisy9I2CHandle16TransmitBlockingEtPhtm
 866              	.LVL43:
  45:../../libDaisy/src/dev/oled_ssd130x.h ****     };
 867              		.loc 7 45 30 view .LVU262
 868              	.LBE454:
 869              	.LBE453:
 870              	.LBB455:
 871              	.LBI455:
  42:../../libDaisy/src/dev/oled_ssd130x.h ****     {
 872              		.loc 7 42 10 is_stmt 1 view .LVU263
 873              	.LBB456:
  44:../../libDaisy/src/dev/oled_ssd130x.h ****         i2c_.TransmitBlocking(i2c_address_, buf, 2, 1000);
 874              		.loc 7 44 9 view .LVU264
  44:../../libDaisy/src/dev/oled_ssd130x.h ****         i2c_.TransmitBlocking(i2c_address_, buf, 2, 1000);
 875              		.loc 7 44 36 is_stmt 0 view .LVU265
 876 0156 1423     		movs	r3, #20
ARM GAS  /var/folders/th/s5djnwg15xxc0dk87c413f_h0000gn/T//ccCW3aXI.s 			page 37


  45:../../libDaisy/src/dev/oled_ssd130x.h ****     };
 877              		.loc 7 45 30 view .LVU266
 878 0158 03AA     		add	r2, sp, #12
 879 015a 0096     		str	r6, [sp]
 880 015c 2046     		mov	r0, r4
 881 015e 2179     		ldrb	r1, [r4, #4]	@ zero_extendqisi2
  44:../../libDaisy/src/dev/oled_ssd130x.h ****         i2c_.TransmitBlocking(i2c_address_, buf, 2, 1000);
 882              		.loc 7 44 36 view .LVU267
 883 0160 8DF80D30 		strb	r3, [sp, #13]
  45:../../libDaisy/src/dev/oled_ssd130x.h ****     };
 884              		.loc 7 45 9 is_stmt 1 view .LVU268
  45:../../libDaisy/src/dev/oled_ssd130x.h ****     };
 885              		.loc 7 45 30 is_stmt 0 view .LVU269
 886 0164 0223     		movs	r3, #2
  44:../../libDaisy/src/dev/oled_ssd130x.h ****         i2c_.TransmitBlocking(i2c_address_, buf, 2, 1000);
 887              		.loc 7 44 17 view .LVU270
 888 0166 8DF80C50 		strb	r5, [sp, #12]
  45:../../libDaisy/src/dev/oled_ssd130x.h ****     };
 889              		.loc 7 45 30 view .LVU271
 890 016a FFF7FEFF 		bl	_ZN5daisy9I2CHandle16TransmitBlockingEtPhtm
 891              	.LVL44:
  45:../../libDaisy/src/dev/oled_ssd130x.h ****     };
 892              		.loc 7 45 30 view .LVU272
 893              	.LBE456:
 894              	.LBE455:
 895              	.LBB457:
 896              	.LBI457:
  42:../../libDaisy/src/dev/oled_ssd130x.h ****     {
 897              		.loc 7 42 10 is_stmt 1 view .LVU273
 898              	.LBB458:
  44:../../libDaisy/src/dev/oled_ssd130x.h ****         i2c_.TransmitBlocking(i2c_address_, buf, 2, 1000);
 899              		.loc 7 44 9 view .LVU274
  44:../../libDaisy/src/dev/oled_ssd130x.h ****         i2c_.TransmitBlocking(i2c_address_, buf, 2, 1000);
 900              		.loc 7 44 36 is_stmt 0 view .LVU275
 901 016e A123     		movs	r3, #161
  45:../../libDaisy/src/dev/oled_ssd130x.h ****     };
 902              		.loc 7 45 30 view .LVU276
 903 0170 03AA     		add	r2, sp, #12
 904 0172 0096     		str	r6, [sp]
 905 0174 2046     		mov	r0, r4
 906 0176 2179     		ldrb	r1, [r4, #4]	@ zero_extendqisi2
  44:../../libDaisy/src/dev/oled_ssd130x.h ****         i2c_.TransmitBlocking(i2c_address_, buf, 2, 1000);
 907              		.loc 7 44 36 view .LVU277
 908 0178 8DF80D30 		strb	r3, [sp, #13]
  45:../../libDaisy/src/dev/oled_ssd130x.h ****     };
 909              		.loc 7 45 9 is_stmt 1 view .LVU278
  45:../../libDaisy/src/dev/oled_ssd130x.h ****     };
 910              		.loc 7 45 30 is_stmt 0 view .LVU279
 911 017c 0223     		movs	r3, #2
  44:../../libDaisy/src/dev/oled_ssd130x.h ****         i2c_.TransmitBlocking(i2c_address_, buf, 2, 1000);
 912              		.loc 7 44 17 view .LVU280
 913 017e 8DF80C50 		strb	r5, [sp, #12]
  45:../../libDaisy/src/dev/oled_ssd130x.h ****     };
 914              		.loc 7 45 30 view .LVU281
 915 0182 FFF7FEFF 		bl	_ZN5daisy9I2CHandle16TransmitBlockingEtPhtm
 916              	.LVL45:
  45:../../libDaisy/src/dev/oled_ssd130x.h ****     };
ARM GAS  /var/folders/th/s5djnwg15xxc0dk87c413f_h0000gn/T//ccCW3aXI.s 			page 38


 917              		.loc 7 45 30 view .LVU282
 918              	.LBE458:
 919              	.LBE457:
 920              	.LBB459:
 921              	.LBI459:
  42:../../libDaisy/src/dev/oled_ssd130x.h ****     {
 922              		.loc 7 42 10 is_stmt 1 view .LVU283
 923              	.LBB460:
  44:../../libDaisy/src/dev/oled_ssd130x.h ****         i2c_.TransmitBlocking(i2c_address_, buf, 2, 1000);
 924              		.loc 7 44 9 view .LVU284
  44:../../libDaisy/src/dev/oled_ssd130x.h ****         i2c_.TransmitBlocking(i2c_address_, buf, 2, 1000);
 925              		.loc 7 44 36 is_stmt 0 view .LVU285
 926 0186 C823     		movs	r3, #200
  45:../../libDaisy/src/dev/oled_ssd130x.h ****     };
 927              		.loc 7 45 30 view .LVU286
 928 0188 03AA     		add	r2, sp, #12
 929 018a 0096     		str	r6, [sp]
 930 018c 2046     		mov	r0, r4
 931 018e 2179     		ldrb	r1, [r4, #4]	@ zero_extendqisi2
  44:../../libDaisy/src/dev/oled_ssd130x.h ****         i2c_.TransmitBlocking(i2c_address_, buf, 2, 1000);
 932              		.loc 7 44 36 view .LVU287
 933 0190 8DF80D30 		strb	r3, [sp, #13]
  45:../../libDaisy/src/dev/oled_ssd130x.h ****     };
 934              		.loc 7 45 9 is_stmt 1 view .LVU288
  45:../../libDaisy/src/dev/oled_ssd130x.h ****     };
 935              		.loc 7 45 30 is_stmt 0 view .LVU289
 936 0194 0223     		movs	r3, #2
  44:../../libDaisy/src/dev/oled_ssd130x.h ****         i2c_.TransmitBlocking(i2c_address_, buf, 2, 1000);
 937              		.loc 7 44 17 view .LVU290
 938 0196 8DF80C50 		strb	r5, [sp, #12]
  45:../../libDaisy/src/dev/oled_ssd130x.h ****     };
 939              		.loc 7 45 30 view .LVU291
 940 019a FFF7FEFF 		bl	_ZN5daisy9I2CHandle16TransmitBlockingEtPhtm
 941              	.LVL46:
  45:../../libDaisy/src/dev/oled_ssd130x.h ****     };
 942              		.loc 7 45 30 view .LVU292
 943              	.LBE460:
 944              	.LBE459:
 945              	.LBB461:
 946              	.LBI461:
  42:../../libDaisy/src/dev/oled_ssd130x.h ****     {
 947              		.loc 7 42 10 is_stmt 1 view .LVU293
 948              	.LBB462:
  44:../../libDaisy/src/dev/oled_ssd130x.h ****         i2c_.TransmitBlocking(i2c_address_, buf, 2, 1000);
 949              		.loc 7 44 9 view .LVU294
  44:../../libDaisy/src/dev/oled_ssd130x.h ****         i2c_.TransmitBlocking(i2c_address_, buf, 2, 1000);
 950              		.loc 7 44 36 is_stmt 0 view .LVU295
 951 019e 8123     		movs	r3, #129
  45:../../libDaisy/src/dev/oled_ssd130x.h ****     };
 952              		.loc 7 45 30 view .LVU296
 953 01a0 03AA     		add	r2, sp, #12
 954 01a2 0096     		str	r6, [sp]
 955 01a4 2046     		mov	r0, r4
 956 01a6 2179     		ldrb	r1, [r4, #4]	@ zero_extendqisi2
  44:../../libDaisy/src/dev/oled_ssd130x.h ****         i2c_.TransmitBlocking(i2c_address_, buf, 2, 1000);
 957              		.loc 7 44 36 view .LVU297
 958 01a8 8DF80D30 		strb	r3, [sp, #13]
ARM GAS  /var/folders/th/s5djnwg15xxc0dk87c413f_h0000gn/T//ccCW3aXI.s 			page 39


  45:../../libDaisy/src/dev/oled_ssd130x.h ****     };
 959              		.loc 7 45 9 is_stmt 1 view .LVU298
  45:../../libDaisy/src/dev/oled_ssd130x.h ****     };
 960              		.loc 7 45 30 is_stmt 0 view .LVU299
 961 01ac 0223     		movs	r3, #2
  44:../../libDaisy/src/dev/oled_ssd130x.h ****         i2c_.TransmitBlocking(i2c_address_, buf, 2, 1000);
 962              		.loc 7 44 17 view .LVU300
 963 01ae 8DF80C50 		strb	r5, [sp, #12]
  45:../../libDaisy/src/dev/oled_ssd130x.h ****     };
 964              		.loc 7 45 30 view .LVU301
 965 01b2 FFF7FEFF 		bl	_ZN5daisy9I2CHandle16TransmitBlockingEtPhtm
 966              	.LVL47:
  45:../../libDaisy/src/dev/oled_ssd130x.h ****     };
 967              		.loc 7 45 30 view .LVU302
 968              	.LBE462:
 969              	.LBE461:
 970              	.LBB463:
 971              	.LBI463:
  42:../../libDaisy/src/dev/oled_ssd130x.h ****     {
 972              		.loc 7 42 10 is_stmt 1 view .LVU303
 973              	.LBB464:
  44:../../libDaisy/src/dev/oled_ssd130x.h ****         i2c_.TransmitBlocking(i2c_address_, buf, 2, 1000);
 974              		.loc 7 44 9 view .LVU304
  44:../../libDaisy/src/dev/oled_ssd130x.h ****         i2c_.TransmitBlocking(i2c_address_, buf, 2, 1000);
 975              		.loc 7 44 36 is_stmt 0 view .LVU305
 976 01b6 8F23     		movs	r3, #143
  45:../../libDaisy/src/dev/oled_ssd130x.h ****     };
 977              		.loc 7 45 30 view .LVU306
 978 01b8 03AA     		add	r2, sp, #12
 979 01ba 0096     		str	r6, [sp]
 980 01bc 2046     		mov	r0, r4
 981 01be 2179     		ldrb	r1, [r4, #4]	@ zero_extendqisi2
  44:../../libDaisy/src/dev/oled_ssd130x.h ****         i2c_.TransmitBlocking(i2c_address_, buf, 2, 1000);
 982              		.loc 7 44 36 view .LVU307
 983 01c0 8DF80D30 		strb	r3, [sp, #13]
  45:../../libDaisy/src/dev/oled_ssd130x.h ****     };
 984              		.loc 7 45 9 is_stmt 1 view .LVU308
  45:../../libDaisy/src/dev/oled_ssd130x.h ****     };
 985              		.loc 7 45 30 is_stmt 0 view .LVU309
 986 01c4 0223     		movs	r3, #2
  44:../../libDaisy/src/dev/oled_ssd130x.h ****         i2c_.TransmitBlocking(i2c_address_, buf, 2, 1000);
 987              		.loc 7 44 17 view .LVU310
 988 01c6 8DF80C50 		strb	r5, [sp, #12]
  45:../../libDaisy/src/dev/oled_ssd130x.h ****     };
 989              		.loc 7 45 30 view .LVU311
 990 01ca FFF7FEFF 		bl	_ZN5daisy9I2CHandle16TransmitBlockingEtPhtm
 991              	.LVL48:
  45:../../libDaisy/src/dev/oled_ssd130x.h ****     };
 992              		.loc 7 45 30 view .LVU312
 993              	.LBE464:
 994              	.LBE463:
 995              	.LBB465:
 996              	.LBI465:
  42:../../libDaisy/src/dev/oled_ssd130x.h ****     {
 997              		.loc 7 42 10 is_stmt 1 view .LVU313
 998              	.LBB466:
  44:../../libDaisy/src/dev/oled_ssd130x.h ****         i2c_.TransmitBlocking(i2c_address_, buf, 2, 1000);
ARM GAS  /var/folders/th/s5djnwg15xxc0dk87c413f_h0000gn/T//ccCW3aXI.s 			page 40


 999              		.loc 7 44 9 view .LVU314
  44:../../libDaisy/src/dev/oled_ssd130x.h ****         i2c_.TransmitBlocking(i2c_address_, buf, 2, 1000);
 1000              		.loc 7 44 36 is_stmt 0 view .LVU315
 1001 01ce D923     		movs	r3, #217
  45:../../libDaisy/src/dev/oled_ssd130x.h ****     };
 1002              		.loc 7 45 30 view .LVU316
 1003 01d0 03AA     		add	r2, sp, #12
 1004 01d2 0096     		str	r6, [sp]
 1005 01d4 2046     		mov	r0, r4
 1006 01d6 2179     		ldrb	r1, [r4, #4]	@ zero_extendqisi2
  44:../../libDaisy/src/dev/oled_ssd130x.h ****         i2c_.TransmitBlocking(i2c_address_, buf, 2, 1000);
 1007              		.loc 7 44 36 view .LVU317
 1008 01d8 8DF80D30 		strb	r3, [sp, #13]
  45:../../libDaisy/src/dev/oled_ssd130x.h ****     };
 1009              		.loc 7 45 9 is_stmt 1 view .LVU318
  45:../../libDaisy/src/dev/oled_ssd130x.h ****     };
 1010              		.loc 7 45 30 is_stmt 0 view .LVU319
 1011 01dc 0223     		movs	r3, #2
  44:../../libDaisy/src/dev/oled_ssd130x.h ****         i2c_.TransmitBlocking(i2c_address_, buf, 2, 1000);
 1012              		.loc 7 44 17 view .LVU320
 1013 01de 8DF80C50 		strb	r5, [sp, #12]
  45:../../libDaisy/src/dev/oled_ssd130x.h ****     };
 1014              		.loc 7 45 30 view .LVU321
 1015 01e2 FFF7FEFF 		bl	_ZN5daisy9I2CHandle16TransmitBlockingEtPhtm
 1016              	.LVL49:
  45:../../libDaisy/src/dev/oled_ssd130x.h ****     };
 1017              		.loc 7 45 30 view .LVU322
 1018              	.LBE466:
 1019              	.LBE465:
 1020              	.LBB467:
 1021              	.LBI467:
  42:../../libDaisy/src/dev/oled_ssd130x.h ****     {
 1022              		.loc 7 42 10 is_stmt 1 view .LVU323
 1023              	.LBB468:
  44:../../libDaisy/src/dev/oled_ssd130x.h ****         i2c_.TransmitBlocking(i2c_address_, buf, 2, 1000);
 1024              		.loc 7 44 9 view .LVU324
  44:../../libDaisy/src/dev/oled_ssd130x.h ****         i2c_.TransmitBlocking(i2c_address_, buf, 2, 1000);
 1025              		.loc 7 44 36 is_stmt 0 view .LVU325
 1026 01e6 2523     		movs	r3, #37
  45:../../libDaisy/src/dev/oled_ssd130x.h ****     };
 1027              		.loc 7 45 30 view .LVU326
 1028 01e8 03AA     		add	r2, sp, #12
 1029 01ea 0096     		str	r6, [sp]
 1030 01ec 2046     		mov	r0, r4
 1031 01ee 2179     		ldrb	r1, [r4, #4]	@ zero_extendqisi2
  44:../../libDaisy/src/dev/oled_ssd130x.h ****         i2c_.TransmitBlocking(i2c_address_, buf, 2, 1000);
 1032              		.loc 7 44 36 view .LVU327
 1033 01f0 8DF80D30 		strb	r3, [sp, #13]
  45:../../libDaisy/src/dev/oled_ssd130x.h ****     };
 1034              		.loc 7 45 9 is_stmt 1 view .LVU328
  45:../../libDaisy/src/dev/oled_ssd130x.h ****     };
 1035              		.loc 7 45 30 is_stmt 0 view .LVU329
 1036 01f4 0223     		movs	r3, #2
  44:../../libDaisy/src/dev/oled_ssd130x.h ****         i2c_.TransmitBlocking(i2c_address_, buf, 2, 1000);
 1037              		.loc 7 44 17 view .LVU330
 1038 01f6 8DF80C50 		strb	r5, [sp, #12]
  45:../../libDaisy/src/dev/oled_ssd130x.h ****     };
ARM GAS  /var/folders/th/s5djnwg15xxc0dk87c413f_h0000gn/T//ccCW3aXI.s 			page 41


 1039              		.loc 7 45 30 view .LVU331
 1040 01fa FFF7FEFF 		bl	_ZN5daisy9I2CHandle16TransmitBlockingEtPhtm
 1041              	.LVL50:
  45:../../libDaisy/src/dev/oled_ssd130x.h ****     };
 1042              		.loc 7 45 30 view .LVU332
 1043              	.LBE468:
 1044              	.LBE467:
 1045              	.LBB469:
 1046              	.LBI469:
  42:../../libDaisy/src/dev/oled_ssd130x.h ****     {
 1047              		.loc 7 42 10 is_stmt 1 view .LVU333
 1048              	.LBB470:
  44:../../libDaisy/src/dev/oled_ssd130x.h ****         i2c_.TransmitBlocking(i2c_address_, buf, 2, 1000);
 1049              		.loc 7 44 9 view .LVU334
  44:../../libDaisy/src/dev/oled_ssd130x.h ****         i2c_.TransmitBlocking(i2c_address_, buf, 2, 1000);
 1050              		.loc 7 44 36 is_stmt 0 view .LVU335
 1051 01fe DB23     		movs	r3, #219
  45:../../libDaisy/src/dev/oled_ssd130x.h ****     };
 1052              		.loc 7 45 30 view .LVU336
 1053 0200 03AA     		add	r2, sp, #12
 1054 0202 0096     		str	r6, [sp]
 1055 0204 2046     		mov	r0, r4
 1056 0206 2179     		ldrb	r1, [r4, #4]	@ zero_extendqisi2
  44:../../libDaisy/src/dev/oled_ssd130x.h ****         i2c_.TransmitBlocking(i2c_address_, buf, 2, 1000);
 1057              		.loc 7 44 36 view .LVU337
 1058 0208 8DF80D30 		strb	r3, [sp, #13]
  45:../../libDaisy/src/dev/oled_ssd130x.h ****     };
 1059              		.loc 7 45 9 is_stmt 1 view .LVU338
  45:../../libDaisy/src/dev/oled_ssd130x.h ****     };
 1060              		.loc 7 45 30 is_stmt 0 view .LVU339
 1061 020c 0223     		movs	r3, #2
  44:../../libDaisy/src/dev/oled_ssd130x.h ****         i2c_.TransmitBlocking(i2c_address_, buf, 2, 1000);
 1062              		.loc 7 44 17 view .LVU340
 1063 020e 8DF80C50 		strb	r5, [sp, #12]
  45:../../libDaisy/src/dev/oled_ssd130x.h ****     };
 1064              		.loc 7 45 30 view .LVU341
 1065 0212 FFF7FEFF 		bl	_ZN5daisy9I2CHandle16TransmitBlockingEtPhtm
 1066              	.LVL51:
  45:../../libDaisy/src/dev/oled_ssd130x.h ****     };
 1067              		.loc 7 45 30 view .LVU342
 1068              	.LBE470:
 1069              	.LBE469:
 1070              	.LBB471:
 1071              	.LBI471:
  42:../../libDaisy/src/dev/oled_ssd130x.h ****     {
 1072              		.loc 7 42 10 is_stmt 1 view .LVU343
 1073              	.LBB472:
  44:../../libDaisy/src/dev/oled_ssd130x.h ****         i2c_.TransmitBlocking(i2c_address_, buf, 2, 1000);
 1074              		.loc 7 44 9 view .LVU344
  44:../../libDaisy/src/dev/oled_ssd130x.h ****         i2c_.TransmitBlocking(i2c_address_, buf, 2, 1000);
 1075              		.loc 7 44 36 is_stmt 0 view .LVU345
 1076 0216 3423     		movs	r3, #52
  45:../../libDaisy/src/dev/oled_ssd130x.h ****     };
 1077              		.loc 7 45 30 view .LVU346
 1078 0218 03AA     		add	r2, sp, #12
 1079 021a 0096     		str	r6, [sp]
 1080 021c 2046     		mov	r0, r4
ARM GAS  /var/folders/th/s5djnwg15xxc0dk87c413f_h0000gn/T//ccCW3aXI.s 			page 42


 1081 021e 2179     		ldrb	r1, [r4, #4]	@ zero_extendqisi2
  44:../../libDaisy/src/dev/oled_ssd130x.h ****         i2c_.TransmitBlocking(i2c_address_, buf, 2, 1000);
 1082              		.loc 7 44 36 view .LVU347
 1083 0220 8DF80D30 		strb	r3, [sp, #13]
  45:../../libDaisy/src/dev/oled_ssd130x.h ****     };
 1084              		.loc 7 45 9 is_stmt 1 view .LVU348
  45:../../libDaisy/src/dev/oled_ssd130x.h ****     };
 1085              		.loc 7 45 30 is_stmt 0 view .LVU349
 1086 0224 0223     		movs	r3, #2
  44:../../libDaisy/src/dev/oled_ssd130x.h ****         i2c_.TransmitBlocking(i2c_address_, buf, 2, 1000);
 1087              		.loc 7 44 17 view .LVU350
 1088 0226 8DF80C50 		strb	r5, [sp, #12]
  45:../../libDaisy/src/dev/oled_ssd130x.h ****     };
 1089              		.loc 7 45 30 view .LVU351
 1090 022a FFF7FEFF 		bl	_ZN5daisy9I2CHandle16TransmitBlockingEtPhtm
 1091              	.LVL52:
  45:../../libDaisy/src/dev/oled_ssd130x.h ****     };
 1092              		.loc 7 45 30 view .LVU352
 1093              	.LBE472:
 1094              	.LBE471:
 1095              	.LBB473:
 1096              	.LBI473:
  42:../../libDaisy/src/dev/oled_ssd130x.h ****     {
 1097              		.loc 7 42 10 is_stmt 1 view .LVU353
 1098              	.LBB474:
  44:../../libDaisy/src/dev/oled_ssd130x.h ****         i2c_.TransmitBlocking(i2c_address_, buf, 2, 1000);
 1099              		.loc 7 44 9 view .LVU354
  44:../../libDaisy/src/dev/oled_ssd130x.h ****         i2c_.TransmitBlocking(i2c_address_, buf, 2, 1000);
 1100              		.loc 7 44 36 is_stmt 0 view .LVU355
 1101 022e AF21     		movs	r1, #175
  45:../../libDaisy/src/dev/oled_ssd130x.h ****     };
 1102              		.loc 7 45 30 view .LVU356
 1103 0230 0096     		str	r6, [sp]
 1104 0232 03AA     		add	r2, sp, #12
 1105 0234 0223     		movs	r3, #2
  44:../../libDaisy/src/dev/oled_ssd130x.h ****         i2c_.TransmitBlocking(i2c_address_, buf, 2, 1000);
 1106              		.loc 7 44 36 view .LVU357
 1107 0236 8DF80D10 		strb	r1, [sp, #13]
  45:../../libDaisy/src/dev/oled_ssd130x.h ****     };
 1108              		.loc 7 45 9 is_stmt 1 view .LVU358
  45:../../libDaisy/src/dev/oled_ssd130x.h ****     };
 1109              		.loc 7 45 30 is_stmt 0 view .LVU359
 1110 023a 2046     		mov	r0, r4
 1111 023c 2179     		ldrb	r1, [r4, #4]	@ zero_extendqisi2
  44:../../libDaisy/src/dev/oled_ssd130x.h ****         i2c_.TransmitBlocking(i2c_address_, buf, 2, 1000);
 1112              		.loc 7 44 17 view .LVU360
 1113 023e 8DF80C50 		strb	r5, [sp, #12]
  45:../../libDaisy/src/dev/oled_ssd130x.h ****     };
 1114              		.loc 7 45 30 view .LVU361
 1115 0242 FFF7FEFF 		bl	_ZN5daisy9I2CHandle16TransmitBlockingEtPhtm
 1116              	.LVL53:
  45:../../libDaisy/src/dev/oled_ssd130x.h ****     };
 1117              		.loc 7 45 30 view .LVU362
 1118              	.LBE474:
 1119              	.LBE473:
 254:../../libDaisy/src/dev/oled_ssd130x.h ****     {
 255:../../libDaisy/src/dev/oled_ssd130x.h ****         transport_.Init(config.transport_config);
ARM GAS  /var/folders/th/s5djnwg15xxc0dk87c413f_h0000gn/T//ccCW3aXI.s 			page 43


 256:../../libDaisy/src/dev/oled_ssd130x.h **** 
 257:../../libDaisy/src/dev/oled_ssd130x.h ****         // Init routine...
 258:../../libDaisy/src/dev/oled_ssd130x.h **** 
 259:../../libDaisy/src/dev/oled_ssd130x.h ****         // Display Off
 260:../../libDaisy/src/dev/oled_ssd130x.h ****         transport_.SendCommand(0xaE);
 261:../../libDaisy/src/dev/oled_ssd130x.h ****         // Dimension dependent commands...
 262:../../libDaisy/src/dev/oled_ssd130x.h ****         switch(height)
 263:../../libDaisy/src/dev/oled_ssd130x.h ****         {
 264:../../libDaisy/src/dev/oled_ssd130x.h ****             case 16:
 265:../../libDaisy/src/dev/oled_ssd130x.h ****                 // Display Clock Divide Ratio
 266:../../libDaisy/src/dev/oled_ssd130x.h ****                 transport_.SendCommand(0xD5);
 267:../../libDaisy/src/dev/oled_ssd130x.h ****                 transport_.SendCommand(0x60);
 268:../../libDaisy/src/dev/oled_ssd130x.h ****                 // Multiplex Ratio
 269:../../libDaisy/src/dev/oled_ssd130x.h ****                 transport_.SendCommand(0xA8);
 270:../../libDaisy/src/dev/oled_ssd130x.h ****                 transport_.SendCommand(0x0F);
 271:../../libDaisy/src/dev/oled_ssd130x.h ****                 // COM Pins
 272:../../libDaisy/src/dev/oled_ssd130x.h ****                 transport_.SendCommand(0xDA);
 273:../../libDaisy/src/dev/oled_ssd130x.h ****                 transport_.SendCommand(0x02);
 274:../../libDaisy/src/dev/oled_ssd130x.h ****                 break;
 275:../../libDaisy/src/dev/oled_ssd130x.h ****             case 32:
 276:../../libDaisy/src/dev/oled_ssd130x.h ****                 // Display Clock Divide Ratio
 277:../../libDaisy/src/dev/oled_ssd130x.h ****                 transport_.SendCommand(0xD5);
 278:../../libDaisy/src/dev/oled_ssd130x.h ****                 transport_.SendCommand(0x80);
 279:../../libDaisy/src/dev/oled_ssd130x.h ****                 // Multiplex Ratio
 280:../../libDaisy/src/dev/oled_ssd130x.h ****                 transport_.SendCommand(0xA8);
 281:../../libDaisy/src/dev/oled_ssd130x.h ****                 transport_.SendCommand(0x1F);
 282:../../libDaisy/src/dev/oled_ssd130x.h ****                 // COM Pins
 283:../../libDaisy/src/dev/oled_ssd130x.h ****                 transport_.SendCommand(0xDA);
 284:../../libDaisy/src/dev/oled_ssd130x.h ****                 if(width == 64)
 285:../../libDaisy/src/dev/oled_ssd130x.h ****                 {
 286:../../libDaisy/src/dev/oled_ssd130x.h ****                     transport_.SendCommand(0x12);
 287:../../libDaisy/src/dev/oled_ssd130x.h ****                 }
 288:../../libDaisy/src/dev/oled_ssd130x.h ****                 else
 289:../../libDaisy/src/dev/oled_ssd130x.h ****                 {
 290:../../libDaisy/src/dev/oled_ssd130x.h ****                     transport_.SendCommand(0x02);
 291:../../libDaisy/src/dev/oled_ssd130x.h ****                 }
 292:../../libDaisy/src/dev/oled_ssd130x.h **** 
 293:../../libDaisy/src/dev/oled_ssd130x.h ****                 break;
 294:../../libDaisy/src/dev/oled_ssd130x.h ****             case 48:
 295:../../libDaisy/src/dev/oled_ssd130x.h ****                 // Display Clock Divide Ratio
 296:../../libDaisy/src/dev/oled_ssd130x.h ****                 transport_.SendCommand(0xD5);
 297:../../libDaisy/src/dev/oled_ssd130x.h ****                 transport_.SendCommand(0x80);
 298:../../libDaisy/src/dev/oled_ssd130x.h ****                 // Multiplex Ratio
 299:../../libDaisy/src/dev/oled_ssd130x.h ****                 transport_.SendCommand(0xA8);
 300:../../libDaisy/src/dev/oled_ssd130x.h ****                 transport_.SendCommand(0x2F);
 301:../../libDaisy/src/dev/oled_ssd130x.h ****                 // COM Pins
 302:../../libDaisy/src/dev/oled_ssd130x.h ****                 transport_.SendCommand(0xDA);
 303:../../libDaisy/src/dev/oled_ssd130x.h ****                 transport_.SendCommand(0x12);
 304:../../libDaisy/src/dev/oled_ssd130x.h ****                 break;
 305:../../libDaisy/src/dev/oled_ssd130x.h ****             default: // 128
 306:../../libDaisy/src/dev/oled_ssd130x.h ****                 // Display Clock Divide Ratio
 307:../../libDaisy/src/dev/oled_ssd130x.h ****                 transport_.SendCommand(0xD5);
 308:../../libDaisy/src/dev/oled_ssd130x.h ****                 transport_.SendCommand(0x80);
 309:../../libDaisy/src/dev/oled_ssd130x.h ****                 // Multiplex Ratio
 310:../../libDaisy/src/dev/oled_ssd130x.h ****                 transport_.SendCommand(0xA8);
 311:../../libDaisy/src/dev/oled_ssd130x.h ****                 transport_.SendCommand(0x3F);
 312:../../libDaisy/src/dev/oled_ssd130x.h ****                 // COM Pins
ARM GAS  /var/folders/th/s5djnwg15xxc0dk87c413f_h0000gn/T//ccCW3aXI.s 			page 44


 313:../../libDaisy/src/dev/oled_ssd130x.h ****                 transport_.SendCommand(0xDA);
 314:../../libDaisy/src/dev/oled_ssd130x.h ****                 transport_.SendCommand(0x12);
 315:../../libDaisy/src/dev/oled_ssd130x.h ****                 break;
 316:../../libDaisy/src/dev/oled_ssd130x.h ****         }
 317:../../libDaisy/src/dev/oled_ssd130x.h **** 
 318:../../libDaisy/src/dev/oled_ssd130x.h ****         // Display Offset
 319:../../libDaisy/src/dev/oled_ssd130x.h ****         transport_.SendCommand(0xD3);
 320:../../libDaisy/src/dev/oled_ssd130x.h ****         transport_.SendCommand(0x00);
 321:../../libDaisy/src/dev/oled_ssd130x.h ****         // Start Line Address
 322:../../libDaisy/src/dev/oled_ssd130x.h ****         transport_.SendCommand(0x40);
 323:../../libDaisy/src/dev/oled_ssd130x.h ****         // Normal Display
 324:../../libDaisy/src/dev/oled_ssd130x.h ****         transport_.SendCommand(0xA6);
 325:../../libDaisy/src/dev/oled_ssd130x.h ****         // All On Resume
 326:../../libDaisy/src/dev/oled_ssd130x.h ****         transport_.SendCommand(0xA4);
 327:../../libDaisy/src/dev/oled_ssd130x.h ****         // Charge Pump
 328:../../libDaisy/src/dev/oled_ssd130x.h ****         transport_.SendCommand(0x8D);
 329:../../libDaisy/src/dev/oled_ssd130x.h ****         transport_.SendCommand(0x14);
 330:../../libDaisy/src/dev/oled_ssd130x.h ****         // Set Segment Remap
 331:../../libDaisy/src/dev/oled_ssd130x.h ****         transport_.SendCommand(0xA1);
 332:../../libDaisy/src/dev/oled_ssd130x.h ****         // COM Output Scan Direction
 333:../../libDaisy/src/dev/oled_ssd130x.h ****         transport_.SendCommand(0xC8);
 334:../../libDaisy/src/dev/oled_ssd130x.h ****         // Contrast Control
 335:../../libDaisy/src/dev/oled_ssd130x.h ****         transport_.SendCommand(0x81);
 336:../../libDaisy/src/dev/oled_ssd130x.h ****         transport_.SendCommand(0x8F);
 337:../../libDaisy/src/dev/oled_ssd130x.h ****         // Pre Charge
 338:../../libDaisy/src/dev/oled_ssd130x.h ****         transport_.SendCommand(0xD9);
 339:../../libDaisy/src/dev/oled_ssd130x.h ****         transport_.SendCommand(0x25);
 340:../../libDaisy/src/dev/oled_ssd130x.h ****         // VCOM Detect
 341:../../libDaisy/src/dev/oled_ssd130x.h ****         transport_.SendCommand(0xDB);
 342:../../libDaisy/src/dev/oled_ssd130x.h ****         transport_.SendCommand(0x34);
 343:../../libDaisy/src/dev/oled_ssd130x.h **** 
 344:../../libDaisy/src/dev/oled_ssd130x.h **** 
 345:../../libDaisy/src/dev/oled_ssd130x.h ****         // Display On
 346:../../libDaisy/src/dev/oled_ssd130x.h ****         transport_.SendCommand(0xAF); //--turn on oled panel
 347:../../libDaisy/src/dev/oled_ssd130x.h ****     };
 1120              		.loc 7 347 5 view .LVU363
 1121 0246 04B0     		add	sp, sp, #16
 1122              		.cfi_def_cfa_offset 32
 1123              		@ sp needed
 1124 0248 BDE87040 		pop	{r4, r5, r6, lr}
 1125              		.cfi_restore 14
 1126              		.cfi_restore 6
 1127              		.cfi_restore 5
 1128              		.cfi_restore 4
 1129              		.cfi_def_cfa_offset 16
 1130              	.LVL54:
 1131              		.loc 7 347 5 view .LVU364
 1132 024c 04B0     		add	sp, sp, #16
 1133              		.cfi_def_cfa_offset 0
 1134 024e 7047     		bx	lr
 1135              		.cfi_endproc
 1136              	.LFE4613:
 1138              		.section	.text._ZN5daisy13SSD130xDriverILj128ELj64ENS_19SSD130xI2CTransportEE6UpdateEv,"axG",%prog
 1139              		.align	1
 1140              		.p2align 2,,3
 1141              		.weak	_ZN5daisy13SSD130xDriverILj128ELj64ENS_19SSD130xI2CTransportEE6UpdateEv
 1142              		.syntax unified
ARM GAS  /var/folders/th/s5djnwg15xxc0dk87c413f_h0000gn/T//ccCW3aXI.s 			page 45


 1143              		.thumb
 1144              		.thumb_func
 1146              	_ZN5daisy13SSD130xDriverILj128ELj64ENS_19SSD130xI2CTransportEE6UpdateEv:
 1147              	.LVL55:
 1148              	.LFB4615:
 348:../../libDaisy/src/dev/oled_ssd130x.h **** 
 349:../../libDaisy/src/dev/oled_ssd130x.h ****     size_t Width() const { return width; };
 350:../../libDaisy/src/dev/oled_ssd130x.h ****     size_t Height() const { return height; };
 351:../../libDaisy/src/dev/oled_ssd130x.h **** 
 352:../../libDaisy/src/dev/oled_ssd130x.h ****     void DrawPixel(uint_fast8_t x, uint_fast8_t y, bool on)
 353:../../libDaisy/src/dev/oled_ssd130x.h ****     {
 354:../../libDaisy/src/dev/oled_ssd130x.h ****         if(x >= width || y >= height)
 355:../../libDaisy/src/dev/oled_ssd130x.h ****             return;
 356:../../libDaisy/src/dev/oled_ssd130x.h ****         if(on)
 357:../../libDaisy/src/dev/oled_ssd130x.h ****             buffer_[x + (y / 8) * width] |= (1 << (y % 8));
 358:../../libDaisy/src/dev/oled_ssd130x.h ****         else
 359:../../libDaisy/src/dev/oled_ssd130x.h ****             buffer_[x + (y / 8) * width] &= ~(1 << (y % 8));
 360:../../libDaisy/src/dev/oled_ssd130x.h ****     }
 361:../../libDaisy/src/dev/oled_ssd130x.h **** 
 362:../../libDaisy/src/dev/oled_ssd130x.h ****     void Fill(bool on)
 363:../../libDaisy/src/dev/oled_ssd130x.h ****     {
 364:../../libDaisy/src/dev/oled_ssd130x.h ****         for(size_t i = 0; i < sizeof(buffer_); i++)
 365:../../libDaisy/src/dev/oled_ssd130x.h ****         {
 366:../../libDaisy/src/dev/oled_ssd130x.h ****             buffer_[i] = on ? 0xff : 0x00;
 367:../../libDaisy/src/dev/oled_ssd130x.h ****         }
 368:../../libDaisy/src/dev/oled_ssd130x.h ****     };
 369:../../libDaisy/src/dev/oled_ssd130x.h **** 
 370:../../libDaisy/src/dev/oled_ssd130x.h ****     /**
 371:../../libDaisy/src/dev/oled_ssd130x.h ****      * Update the display 
 372:../../libDaisy/src/dev/oled_ssd130x.h ****     */
 373:../../libDaisy/src/dev/oled_ssd130x.h ****     void Update()
 1149              		.loc 7 373 10 is_stmt 1 view -0
 1150              		.cfi_startproc
 1151              		@ args = 0, pretend = 0, frame = 8
 1152              		@ frame_needed = 0, uses_anonymous_args = 0
 374:../../libDaisy/src/dev/oled_ssd130x.h ****     {
 375:../../libDaisy/src/dev/oled_ssd130x.h ****         uint8_t i;
 376:../../libDaisy/src/dev/oled_ssd130x.h ****         uint8_t high_column_addr;
 377:../../libDaisy/src/dev/oled_ssd130x.h ****         switch(height)
 378:../../libDaisy/src/dev/oled_ssd130x.h ****         {
 379:../../libDaisy/src/dev/oled_ssd130x.h ****             case 32: high_column_addr = 0x12; break;
 380:../../libDaisy/src/dev/oled_ssd130x.h **** 
 381:../../libDaisy/src/dev/oled_ssd130x.h ****             default: high_column_addr = 0x10; break;
 382:../../libDaisy/src/dev/oled_ssd130x.h ****         }
 383:../../libDaisy/src/dev/oled_ssd130x.h ****         for(i = 0; i < (height / 8); i++)
 1153              		.loc 7 383 22 view .LVU366
 373:../../libDaisy/src/dev/oled_ssd130x.h ****     {
 1154              		.loc 7 373 10 is_stmt 0 view .LVU367
 1155 0000 2DE9F047 		push	{r4, r5, r6, r7, r8, r9, r10, lr}
 1156              		.cfi_def_cfa_offset 32
 1157              		.cfi_offset 4, -32
 1158              		.cfi_offset 5, -28
 1159              		.cfi_offset 6, -24
 1160              		.cfi_offset 7, -20
 1161              		.cfi_offset 8, -16
 1162              		.cfi_offset 9, -12
 1163              		.cfi_offset 10, -8
ARM GAS  /var/folders/th/s5djnwg15xxc0dk87c413f_h0000gn/T//ccCW3aXI.s 			page 46


 1164              		.cfi_offset 14, -4
 1165              	.LBB485:
 1166              	.LBB486:
  45:../../libDaisy/src/dev/oled_ssd130x.h ****     };
 1167              		.loc 7 45 30 view .LVU368
 1168 0004 4FF0B008 		mov	r8, #176
 1169              	.LBE486:
 1170              	.LBE485:
 373:../../libDaisy/src/dev/oled_ssd130x.h ****     {
 1171              		.loc 7 373 10 view .LVU369
 1172 0008 84B0     		sub	sp, sp, #16
 1173              		.cfi_def_cfa_offset 48
 373:../../libDaisy/src/dev/oled_ssd130x.h ****     {
 1174              		.loc 7 373 10 view .LVU370
 1175 000a 0546     		mov	r5, r0
 1176 000c 00F18707 		add	r7, r0, #135
 1177 0010 00F28749 		addw	r9, r0, #1159
 1178              	.LVL56:
 1179              	.L24:
 1180              	.LBB488:
 1181              	.LBI485:
  42:../../libDaisy/src/dev/oled_ssd130x.h ****     {
 1182              		.loc 7 42 10 is_stmt 1 discriminator 2 view .LVU371
 1183              	.LBB487:
  44:../../libDaisy/src/dev/oled_ssd130x.h ****         i2c_.TransmitBlocking(i2c_address_, buf, 2, 1000);
 1184              		.loc 7 44 9 discriminator 2 view .LVU372
  45:../../libDaisy/src/dev/oled_ssd130x.h ****     };
 1185              		.loc 7 45 30 is_stmt 0 discriminator 2 view .LVU373
 1186 0014 4FF47A7A 		mov	r10, #1000
  44:../../libDaisy/src/dev/oled_ssd130x.h ****         i2c_.TransmitBlocking(i2c_address_, buf, 2, 1000);
 1187              		.loc 7 44 17 discriminator 2 view .LVU374
 1188 0018 0026     		movs	r6, #0
  45:../../libDaisy/src/dev/oled_ssd130x.h ****     };
 1189              		.loc 7 45 30 discriminator 2 view .LVU375
 1190 001a 2979     		ldrb	r1, [r5, #4]	@ zero_extendqisi2
 1191 001c 0223     		movs	r3, #2
 1192 001e 03AA     		add	r2, sp, #12
 1193 0020 2846     		mov	r0, r5
 1194 0022 CDF800A0 		str	r10, [sp]
 1195 0026 A7F18004 		sub	r4, r7, #128
  44:../../libDaisy/src/dev/oled_ssd130x.h ****         i2c_.TransmitBlocking(i2c_address_, buf, 2, 1000);
 1196              		.loc 7 44 17 discriminator 2 view .LVU376
 1197 002a 8DF80C60 		strb	r6, [sp, #12]
  44:../../libDaisy/src/dev/oled_ssd130x.h ****         i2c_.TransmitBlocking(i2c_address_, buf, 2, 1000);
 1198              		.loc 7 44 36 discriminator 2 view .LVU377
 1199 002e 8DF80D80 		strb	r8, [sp, #13]
  45:../../libDaisy/src/dev/oled_ssd130x.h ****     };
 1200              		.loc 7 45 9 is_stmt 1 discriminator 2 view .LVU378
  45:../../libDaisy/src/dev/oled_ssd130x.h ****     };
 1201              		.loc 7 45 30 is_stmt 0 discriminator 2 view .LVU379
 1202 0032 FFF7FEFF 		bl	_ZN5daisy9I2CHandle16TransmitBlockingEtPhtm
 1203              	.LVL57:
  45:../../libDaisy/src/dev/oled_ssd130x.h ****     };
 1204              		.loc 7 45 30 discriminator 2 view .LVU380
 1205              	.LBE487:
 1206              	.LBE488:
 1207              	.LBB489:
ARM GAS  /var/folders/th/s5djnwg15xxc0dk87c413f_h0000gn/T//ccCW3aXI.s 			page 47


 1208              	.LBI489:
  42:../../libDaisy/src/dev/oled_ssd130x.h ****     {
 1209              		.loc 7 42 10 is_stmt 1 discriminator 2 view .LVU381
 1210              	.LBB490:
  44:../../libDaisy/src/dev/oled_ssd130x.h ****         i2c_.TransmitBlocking(i2c_address_, buf, 2, 1000);
 1211              		.loc 7 44 9 discriminator 2 view .LVU382
  45:../../libDaisy/src/dev/oled_ssd130x.h ****     };
 1212              		.loc 7 45 30 is_stmt 0 discriminator 2 view .LVU383
 1213 0036 2979     		ldrb	r1, [r5, #4]	@ zero_extendqisi2
 1214 0038 0223     		movs	r3, #2
 1215 003a 03AA     		add	r2, sp, #12
 1216 003c 2846     		mov	r0, r5
 1217 003e CDF800A0 		str	r10, [sp]
  44:../../libDaisy/src/dev/oled_ssd130x.h ****         i2c_.TransmitBlocking(i2c_address_, buf, 2, 1000);
 1218              		.loc 7 44 17 discriminator 2 view .LVU384
 1219 0042 8DF80C60 		strb	r6, [sp, #12]
  44:../../libDaisy/src/dev/oled_ssd130x.h ****         i2c_.TransmitBlocking(i2c_address_, buf, 2, 1000);
 1220              		.loc 7 44 36 discriminator 2 view .LVU385
 1221 0046 8DF80D60 		strb	r6, [sp, #13]
  45:../../libDaisy/src/dev/oled_ssd130x.h ****     };
 1222              		.loc 7 45 9 is_stmt 1 discriminator 2 view .LVU386
  45:../../libDaisy/src/dev/oled_ssd130x.h ****     };
 1223              		.loc 7 45 30 is_stmt 0 discriminator 2 view .LVU387
 1224 004a FFF7FEFF 		bl	_ZN5daisy9I2CHandle16TransmitBlockingEtPhtm
 1225              	.LVL58:
  45:../../libDaisy/src/dev/oled_ssd130x.h ****     };
 1226              		.loc 7 45 30 discriminator 2 view .LVU388
 1227              	.LBE490:
 1228              	.LBE489:
 1229              	.LBB491:
 1230              	.LBI491:
  42:../../libDaisy/src/dev/oled_ssd130x.h ****     {
 1231              		.loc 7 42 10 is_stmt 1 discriminator 2 view .LVU389
 1232              	.LBB492:
  44:../../libDaisy/src/dev/oled_ssd130x.h ****         i2c_.TransmitBlocking(i2c_address_, buf, 2, 1000);
 1233              		.loc 7 44 9 discriminator 2 view .LVU390
  44:../../libDaisy/src/dev/oled_ssd130x.h ****         i2c_.TransmitBlocking(i2c_address_, buf, 2, 1000);
 1234              		.loc 7 44 36 is_stmt 0 discriminator 2 view .LVU391
 1235 004e 4FF0100C 		mov	ip, #16
  45:../../libDaisy/src/dev/oled_ssd130x.h ****     };
 1236              		.loc 7 45 30 discriminator 2 view .LVU392
 1237 0052 2979     		ldrb	r1, [r5, #4]	@ zero_extendqisi2
 1238 0054 0223     		movs	r3, #2
 1239 0056 03AA     		add	r2, sp, #12
 1240 0058 2846     		mov	r0, r5
 1241 005a CDF800A0 		str	r10, [sp]
  44:../../libDaisy/src/dev/oled_ssd130x.h ****         i2c_.TransmitBlocking(i2c_address_, buf, 2, 1000);
 1242              		.loc 7 44 17 discriminator 2 view .LVU393
 1243 005e 8DF80C60 		strb	r6, [sp, #12]
  44:../../libDaisy/src/dev/oled_ssd130x.h ****         i2c_.TransmitBlocking(i2c_address_, buf, 2, 1000);
 1244              		.loc 7 44 36 discriminator 2 view .LVU394
 1245 0062 8DF80DC0 		strb	ip, [sp, #13]
  45:../../libDaisy/src/dev/oled_ssd130x.h ****     };
 1246              		.loc 7 45 9 is_stmt 1 discriminator 2 view .LVU395
  45:../../libDaisy/src/dev/oled_ssd130x.h ****     };
 1247              		.loc 7 45 30 is_stmt 0 discriminator 2 view .LVU396
 1248 0066 FFF7FEFF 		bl	_ZN5daisy9I2CHandle16TransmitBlockingEtPhtm
ARM GAS  /var/folders/th/s5djnwg15xxc0dk87c413f_h0000gn/T//ccCW3aXI.s 			page 48


 1249              	.LVL59:
  45:../../libDaisy/src/dev/oled_ssd130x.h ****     };
 1250              		.loc 7 45 30 discriminator 2 view .LVU397
 1251              	.LBE492:
 1252              	.LBE491:
 1253              	.LBB493:
 1254              	.LBI493:
  48:../../libDaisy/src/dev/oled_ssd130x.h ****     {
 1255              		.loc 7 48 10 is_stmt 1 discriminator 2 view .LVU398
 1256              	.LBB494:
  50:../../libDaisy/src/dev/oled_ssd130x.h ****         {
 1257              		.loc 7 50 29 discriminator 2 view .LVU399
 1258              	.L23:
 1259              	.LBB495:
  52:../../libDaisy/src/dev/oled_ssd130x.h ****             i2c_.TransmitBlocking(i2c_address_, buf, 2, 1000);
 1260              		.loc 7 52 13 view .LVU400
  53:../../libDaisy/src/dev/oled_ssd130x.h ****         }
 1261              		.loc 7 53 34 is_stmt 0 view .LVU401
 1262 006a 4FF47A76 		mov	r6, #1000
  52:../../libDaisy/src/dev/oled_ssd130x.h ****             i2c_.TransmitBlocking(i2c_address_, buf, 2, 1000);
 1263              		.loc 7 52 44 view .LVU402
 1264 006e 14F801CF 		ldrb	ip, [r4, #1]!	@ zero_extendqisi2
 1265              	.LVL60:
  52:../../libDaisy/src/dev/oled_ssd130x.h ****             i2c_.TransmitBlocking(i2c_address_, buf, 2, 1000);
 1266              		.loc 7 52 21 view .LVU403
 1267 0072 4FF0400E 		mov	lr, #64
  53:../../libDaisy/src/dev/oled_ssd130x.h ****         }
 1268              		.loc 7 53 34 view .LVU404
 1269 0076 2979     		ldrb	r1, [r5, #4]	@ zero_extendqisi2
 1270 0078 0223     		movs	r3, #2
 1271 007a 03AA     		add	r2, sp, #12
 1272 007c 2846     		mov	r0, r5
 1273 007e 0096     		str	r6, [sp]
  52:../../libDaisy/src/dev/oled_ssd130x.h ****             i2c_.TransmitBlocking(i2c_address_, buf, 2, 1000);
 1274              		.loc 7 52 21 view .LVU405
 1275 0080 8DF80CE0 		strb	lr, [sp, #12]
  52:../../libDaisy/src/dev/oled_ssd130x.h ****             i2c_.TransmitBlocking(i2c_address_, buf, 2, 1000);
 1276              		.loc 7 52 44 view .LVU406
 1277 0084 8DF80DC0 		strb	ip, [sp, #13]
  53:../../libDaisy/src/dev/oled_ssd130x.h ****         }
 1278              		.loc 7 53 13 is_stmt 1 view .LVU407
  53:../../libDaisy/src/dev/oled_ssd130x.h ****         }
 1279              		.loc 7 53 34 is_stmt 0 view .LVU408
 1280 0088 FFF7FEFF 		bl	_ZN5daisy9I2CHandle16TransmitBlockingEtPhtm
 1281              	.LVL61:
 1282              	.LBE495:
  50:../../libDaisy/src/dev/oled_ssd130x.h ****         {
 1283              		.loc 7 50 9 is_stmt 1 view .LVU409
  50:../../libDaisy/src/dev/oled_ssd130x.h ****         {
 1284              		.loc 7 50 29 view .LVU410
 1285 008c BC42     		cmp	r4, r7
 1286 008e ECD1     		bne	.L23
 1287              	.LVL62:
  50:../../libDaisy/src/dev/oled_ssd130x.h ****         {
 1288              		.loc 7 50 29 is_stmt 0 view .LVU411
 1289              	.LBE494:
 1290              	.LBE493:
ARM GAS  /var/folders/th/s5djnwg15xxc0dk87c413f_h0000gn/T//ccCW3aXI.s 			page 49


 1291              		.loc 7 383 9 is_stmt 1 discriminator 2 view .LVU412
 1292              		.loc 7 383 22 discriminator 2 view .LVU413
 1293 0090 04F18007 		add	r7, r4, #128
 1294 0094 08F10108 		add	r8, r8, #1
 1295              	.LVL63:
 1296              		.loc 7 383 22 is_stmt 0 discriminator 2 view .LVU414
 1297 0098 4F45     		cmp	r7, r9
 1298 009a 5FFA88F8 		uxtb	r8, r8
 1299 009e B9D1     		bne	.L24
 384:../../libDaisy/src/dev/oled_ssd130x.h ****         {
 385:../../libDaisy/src/dev/oled_ssd130x.h ****             transport_.SendCommand(0xB0 + i);
 386:../../libDaisy/src/dev/oled_ssd130x.h ****             transport_.SendCommand(0x00);
 387:../../libDaisy/src/dev/oled_ssd130x.h ****             transport_.SendCommand(high_column_addr);
 388:../../libDaisy/src/dev/oled_ssd130x.h ****             transport_.SendData(&buffer_[width * i], width);
 389:../../libDaisy/src/dev/oled_ssd130x.h ****         }
 390:../../libDaisy/src/dev/oled_ssd130x.h ****     };
 1300              		.loc 7 390 5 view .LVU415
 1301 00a0 04B0     		add	sp, sp, #16
 1302              		.cfi_def_cfa_offset 32
 1303              		@ sp needed
 1304 00a2 BDE8F087 		pop	{r4, r5, r6, r7, r8, r9, r10, pc}
 1305              		.loc 7 390 5 view .LVU416
 1306              		.cfi_endproc
 1307              	.LFE4615:
 1309 00a6 00BF     		.section	.rodata.main.str1.4,"aMS",%progbits,1
 1310              		.align	2
 1311              	.LC3:
 1312 0000 44697370 		.ascii	"Display initialized. This is a false message if aud"
 1312      6C617920 
 1312      696E6974 
 1312      69616C69 
 1312      7A65642E 
 1313 0033 696F2074 		.ascii	"io took more than 20 seconds to start up.\000"
 1313      6F6F6B20 
 1313      6D6F7265 
 1313      20746861 
 1313      6E203230 
 1314 005d 000000   		.align	2
 1315              	.LC4:
 1316 0060 43616C69 		.ascii	"Calibrating...\000"
 1316      62726174 
 1316      696E672E 
 1316      2E2E00
 1317 006f 00       		.align	2
 1318              	.LC5:
 1319 0070 43616C69 		.ascii	"Calibration done.\000"
 1319      62726174 
 1319      696F6E20 
 1319      646F6E65 
 1319      2E00
 1320 0082 0000     		.align	2
 1321              	.LC6:
 1322 0084 53747269 		.ascii	"Stringtone ready. kDebugStep=%d  kPlayFrequency=%d."
 1322      6E67746F 
 1322      6E652072 
 1322      65616479 
 1322      2E206B44 
ARM GAS  /var/folders/th/s5djnwg15xxc0dk87c413f_h0000gn/T//ccCW3aXI.s 			page 50


 1323 00b7 25303164 		.ascii	"%01d Hz\000"
 1323      20487A00 
 1324              		.section	.text.startup.main,"ax",%progbits
 1325              		.align	1
 1326              		.p2align 2,,3
 1327              		.global	main
 1328              		.syntax unified
 1329              		.thumb
 1330              		.thumb_func
 1332              	main:
 1333              	.LFB4527:
 332:WavPlayer.cpp **** 
 333:WavPlayer.cpp **** // ŌĢÉŌĢÉŌĢÉŌĢÉŌĢÉŌĢÉŌĢÉŌĢÉŌĢÉŌĢÉŌĢÉŌĢÉŌĢÉŌĢÉŌĢÉŌĢÉŌĢÉŌĢÉŌĢÉŌĢÉŌĢÉŌĢÉŌĢÉŌĢÉŌĢÉŌĢÉŌĢÉŌĢÉŌĢÉŌĢÉŌĢÉŌĢÉ
 334:WavPlayer.cpp **** //  Main
 335:WavPlayer.cpp **** // ŌĢÉŌĢÉŌĢÉŌĢÉŌĢÉŌĢÉŌĢÉŌĢÉŌĢÉŌĢÉŌĢÉŌĢÉŌĢÉŌĢÉŌĢÉŌĢÉŌĢÉŌĢÉŌĢÉŌĢÉŌĢÉŌĢÉŌĢÉŌĢÉŌĢÉŌĢÉŌĢÉŌĢÉŌĢÉŌĢÉŌĢÉŌĢÉ
 336:WavPlayer.cpp **** 
 337:WavPlayer.cpp **** int main()
 338:WavPlayer.cpp **** {
 1334              		.loc 6 338 1 is_stmt 1 view -0
 1335              		.cfi_startproc
 1336              		@ args = 0, pretend = 0, frame = 104
 1337              		@ frame_needed = 0, uses_anonymous_args = 0
 339:WavPlayer.cpp ****     hw.Init();
 1338              		.loc 6 339 5 view .LVU418
 338:WavPlayer.cpp ****     hw.Init();
 1339              		.loc 6 338 1 is_stmt 0 view .LVU419
 1340 0000 2DE9F04F 		push	{r4, r5, r6, r7, r8, r9, r10, fp, lr}
 1341              		.cfi_def_cfa_offset 36
 1342              		.cfi_offset 4, -36
 1343              		.cfi_offset 5, -32
 1344              		.cfi_offset 6, -28
 1345              		.cfi_offset 7, -24
 1346              		.cfi_offset 8, -20
 1347              		.cfi_offset 9, -16
 1348              		.cfi_offset 10, -12
 1349              		.cfi_offset 11, -8
 1350              		.cfi_offset 14, -4
 1351              		.loc 6 339 12 view .LVU420
 1352 0004 0021     		movs	r1, #0
 1353 0006 C748     		ldr	r0, .L81
 340:WavPlayer.cpp ****     hw.SetAudioBlockSize(64);
 341:WavPlayer.cpp ****     hw.StartLog(false);
 342:WavPlayer.cpp **** 
 343:WavPlayer.cpp ****     System::Delay(STARTUP_DELAY_MS); // Startup delay to allow the power supply to stabilise for th
 344:WavPlayer.cpp **** 
 345:WavPlayer.cpp ****     // ŌöĆŌöĆ Display ŌĆö I2C1, D11 (SCL), D22 (SDA), address 0x3C ŌöĆŌöĆŌöĆŌöĆŌöĆŌöĆŌöĆŌöĆŌöĆŌöĆ
 346:WavPlayer.cpp ****     //  periph and i2c_address must both be set; zero-initialised defaults
 347:WavPlayer.cpp ****     //  leave the peripheral unselected, causing Init to silently fail and
 348:WavPlayer.cpp ****     //  every subsequent Update() to block on a hardware timeout.
 349:WavPlayer.cpp ****     display_config.transport_config.i2c_config = {
 1354              		.loc 6 349 48 view .LVU421
 1355 0008 C74E     		ldr	r6, .L81+4
 1356              	.LBB581:
 350:WavPlayer.cpp ****         .pin_config = {
 351:WavPlayer.cpp ****             .scl = seed::D11, // I2C1 device SCL pin
 352:WavPlayer.cpp ****             .sda = seed::D12, // I2C1 device SDA pin
 353:WavPlayer.cpp ****         },
ARM GAS  /var/folders/th/s5djnwg15xxc0dk87c413f_h0000gn/T//ccCW3aXI.s 			page 51


 354:WavPlayer.cpp ****         .speed = I2CHandle::Config::Speed::I2C_400KHZ, // Should support up to 400kHz
 355:WavPlayer.cpp ****     };
 356:WavPlayer.cpp ****     display_config.transport_config.i2c_address = 0x3C; // 0x3C and 0x3D are the most common addres
 357:WavPlayer.cpp ****                                                         // Could probe the pin to check?
 358:WavPlayer.cpp **** 
 359:WavPlayer.cpp ****     // Display initialization
 360:WavPlayer.cpp ****     display.Init(display_config);
 361:WavPlayer.cpp ****     // Probe the display with a fill+update to confirm the bus is alive.
 362:WavPlayer.cpp ****     // If this hangs (ie, the 27 second startup delay), the peripheral, address, or pull-up resisto
 363:WavPlayer.cpp ****     display.Fill(false);
 364:WavPlayer.cpp ****     display.Update();
 365:WavPlayer.cpp ****     hw.PrintLine("Display initialized. This is a false message if audio took more than 20 seconds t
 366:WavPlayer.cpp **** 
 367:WavPlayer.cpp ****     size_t DISPLAY_WIDTH = display.Width(); // Get display width in case a different dim display is
 368:WavPlayer.cpp ****     size_t DISPLAY_HEIGHT = display.Height(); // Get display height in case a different dim display
 369:WavPlayer.cpp **** 
 370:WavPlayer.cpp ****     // ŌöĆŌöĆ GPIO: selector mux ŌĆö S0ŌåÆD17, S1ŌåÆD16, S2ŌåÆD15 ŌöĆŌöĆŌöĆŌöĆŌöĆŌöĆŌöĆŌöĆŌöĆŌöĆŌöĆ
 371:WavPlayer.cpp ****     static const Pin kSelPins[3] = { seed::D17, seed::D16, seed::D15 };
 372:WavPlayer.cpp ****     for (int i = 0; i < 3; i++)
 1357              		.loc 6 372 14 view .LVU422
 1358 000a 0027     		movs	r7, #0
 1359              	.LBE581:
 349:WavPlayer.cpp ****         .pin_config = {
 1360              		.loc 6 349 48 view .LVU423
 1361 000c C74D     		ldr	r5, .L81+8
 1362 000e 3446     		mov	r4, r6
 1363 0010 DFF85083 		ldr	r8, .L81+64
 1364 0014 DFF88893 		ldr	r9, .L81+124
 338:WavPlayer.cpp ****     hw.Init();
 1365              		.loc 6 338 1 view .LVU424
 1366 0018 2DED028B 		vpush.64	{d8}
 1367              		.cfi_def_cfa_offset 44
 1368              		.cfi_offset 80, -44
 1369              		.cfi_offset 81, -40
 1370 001c 9FB0     		sub	sp, sp, #124
 1371              		.cfi_def_cfa_offset 168
 339:WavPlayer.cpp ****     hw.SetAudioBlockSize(64);
 1372              		.loc 6 339 12 view .LVU425
 1373 001e FFF7FEFF 		bl	_ZN5daisy9DaisySeed4InitEb
 1374              	.LVL64:
 340:WavPlayer.cpp ****     hw.StartLog(false);
 1375              		.loc 6 340 5 is_stmt 1 view .LVU426
 340:WavPlayer.cpp ****     hw.StartLog(false);
 1376              		.loc 6 340 25 is_stmt 0 view .LVU427
 1377 0022 4021     		movs	r1, #64
 1378 0024 BF48     		ldr	r0, .L81
 1379 0026 FFF7FEFF 		bl	_ZN5daisy9DaisySeed17SetAudioBlockSizeEj
 1380              	.LVL65:
 341:WavPlayer.cpp **** 
 1381              		.loc 6 341 5 is_stmt 1 view .LVU428
 1382              	.LBB582:
 1383              	.LBI582:
  23:../../libDaisy/src/daisy_seed.h **** 
  24:../../libDaisy/src/daisy_seed.h ****     /** This function used to provide a pre-initialization configuraiton 
  25:../../libDaisy/src/daisy_seed.h ****      *  it has since been deprecated, and does nothing.
  26:../../libDaisy/src/daisy_seed.h ****      */
  27:../../libDaisy/src/daisy_seed.h ****     void Configure();
ARM GAS  /var/folders/th/s5djnwg15xxc0dk87c413f_h0000gn/T//ccCW3aXI.s 			page 52


  28:../../libDaisy/src/daisy_seed.h **** 
  29:../../libDaisy/src/daisy_seed.h ****     /** 
  30:../../libDaisy/src/daisy_seed.h ****     Initializes the Daisy Seed and the following peripherals:
  31:../../libDaisy/src/daisy_seed.h ****     SDRAM, QSPI, 24-bit 48kHz Audio via AK4556, Internal USB,
  32:../../libDaisy/src/daisy_seed.h ****     as well as the built-in LED and Testpoint.
  33:../../libDaisy/src/daisy_seed.h **** 
  34:../../libDaisy/src/daisy_seed.h ****     ADCs, DACs, and other special peripherals (such as I2C, SPI, etc.)
  35:../../libDaisy/src/daisy_seed.h ****     can be initialized using their specific initializers within libdaisy
  36:../../libDaisy/src/daisy_seed.h ****     for a specific application.
  37:../../libDaisy/src/daisy_seed.h ****     */
  38:../../libDaisy/src/daisy_seed.h ****     void Init(bool boost = false);
  39:../../libDaisy/src/daisy_seed.h **** 
  40:../../libDaisy/src/daisy_seed.h ****     /** 
  41:../../libDaisy/src/daisy_seed.h ****     Deinitializes all peripherals automatically handled by `Init`.
  42:../../libDaisy/src/daisy_seed.h ****     */
  43:../../libDaisy/src/daisy_seed.h ****     void DeInit();
  44:../../libDaisy/src/daisy_seed.h **** 
  45:../../libDaisy/src/daisy_seed.h ****     /** 
  46:../../libDaisy/src/daisy_seed.h ****     Wait some ms before going on.
  47:../../libDaisy/src/daisy_seed.h ****     \param del Delay time in ms.
  48:../../libDaisy/src/daisy_seed.h ****     */
  49:../../libDaisy/src/daisy_seed.h ****     void DelayMs(size_t del);
  50:../../libDaisy/src/daisy_seed.h **** 
  51:../../libDaisy/src/daisy_seed.h ****     /** 
  52:../../libDaisy/src/daisy_seed.h ****     Returns the gpio_pin corresponding to the index 0-31.
  53:../../libDaisy/src/daisy_seed.h ****     For the given GPIO on the Daisy Seed (labeled 1-32 in docs).
  54:../../libDaisy/src/daisy_seed.h ****     */
  55:../../libDaisy/src/daisy_seed.h ****     static dsy_gpio_pin GetPin(uint8_t pin_idx);
  56:../../libDaisy/src/daisy_seed.h **** 
  57:../../libDaisy/src/daisy_seed.h ****     /** Begins the audio for the seeds builtin audio.
  58:../../libDaisy/src/daisy_seed.h ****     the specified callback will get called whenever
  59:../../libDaisy/src/daisy_seed.h ****     new data is ready to be prepared.
  60:../../libDaisy/src/daisy_seed.h ****     */
  61:../../libDaisy/src/daisy_seed.h ****     void StartAudio(AudioHandle::InterleavingAudioCallback cb);
  62:../../libDaisy/src/daisy_seed.h **** 
  63:../../libDaisy/src/daisy_seed.h ****     /** Begins the audio for the seeds builtin audio.
  64:../../libDaisy/src/daisy_seed.h ****     the specified callback will get called whenever
  65:../../libDaisy/src/daisy_seed.h ****     new data is ready to be prepared.
  66:../../libDaisy/src/daisy_seed.h ****     This will use the newer non-interleaved callback.
  67:../../libDaisy/src/daisy_seed.h ****     */
  68:../../libDaisy/src/daisy_seed.h ****     void StartAudio(AudioHandle::AudioCallback cb);
  69:../../libDaisy/src/daisy_seed.h **** 
  70:../../libDaisy/src/daisy_seed.h ****     /** Changes to a new interleaved callback
  71:../../libDaisy/src/daisy_seed.h ****      */
  72:../../libDaisy/src/daisy_seed.h ****     void ChangeAudioCallback(AudioHandle::InterleavingAudioCallback cb);
  73:../../libDaisy/src/daisy_seed.h **** 
  74:../../libDaisy/src/daisy_seed.h ****     /** Changes to a new multichannel callback
  75:../../libDaisy/src/daisy_seed.h ****      */
  76:../../libDaisy/src/daisy_seed.h ****     void ChangeAudioCallback(AudioHandle::AudioCallback cb);
  77:../../libDaisy/src/daisy_seed.h **** 
  78:../../libDaisy/src/daisy_seed.h ****     /** Stops the audio if it is running. */
  79:../../libDaisy/src/daisy_seed.h ****     void StopAudio();
  80:../../libDaisy/src/daisy_seed.h **** 
  81:../../libDaisy/src/daisy_seed.h ****     /** Updates the Audio Sample Rate, and reinitializes.
  82:../../libDaisy/src/daisy_seed.h ****      ** Audio must be stopped for this to work.
  83:../../libDaisy/src/daisy_seed.h ****      */
  84:../../libDaisy/src/daisy_seed.h ****     void SetAudioSampleRate(SaiHandle::Config::SampleRate samplerate);
ARM GAS  /var/folders/th/s5djnwg15xxc0dk87c413f_h0000gn/T//ccCW3aXI.s 			page 53


  85:../../libDaisy/src/daisy_seed.h **** 
  86:../../libDaisy/src/daisy_seed.h ****     /** Returns the audio sample rate in Hz as a floating point number.
  87:../../libDaisy/src/daisy_seed.h ****      */
  88:../../libDaisy/src/daisy_seed.h ****     float AudioSampleRate();
  89:../../libDaisy/src/daisy_seed.h **** 
  90:../../libDaisy/src/daisy_seed.h ****     /** Sets the number of samples processed per channel by the audio callback.
  91:../../libDaisy/src/daisy_seed.h ****      */
  92:../../libDaisy/src/daisy_seed.h ****     void SetAudioBlockSize(size_t blocksize);
  93:../../libDaisy/src/daisy_seed.h **** 
  94:../../libDaisy/src/daisy_seed.h ****     /** Returns the number of samples per channel in a block of audio. */
  95:../../libDaisy/src/daisy_seed.h ****     size_t AudioBlockSize();
  96:../../libDaisy/src/daisy_seed.h **** 
  97:../../libDaisy/src/daisy_seed.h ****     /** Returns the rate in Hz that the Audio callback is called */
  98:../../libDaisy/src/daisy_seed.h ****     float AudioCallbackRate() const;
  99:../../libDaisy/src/daisy_seed.h **** 
 100:../../libDaisy/src/daisy_seed.h ****     /** Returns the SAI Handle for the Daisy Seed 
 101:../../libDaisy/src/daisy_seed.h ****      *  This can be useful when adding a secondary codec,
 102:../../libDaisy/src/daisy_seed.h ****      *  the result of this function can be passed to the audio reinit 
 103:../../libDaisy/src/daisy_seed.h ****      *  with an SAI2 configuration
 104:../../libDaisy/src/daisy_seed.h ****      */
 105:../../libDaisy/src/daisy_seed.h ****     const SaiHandle& AudioSaiHandle() const;
 106:../../libDaisy/src/daisy_seed.h **** 
 107:../../libDaisy/src/daisy_seed.h ****     /** Sets the state of the built in LED
 108:../../libDaisy/src/daisy_seed.h ****      */
 109:../../libDaisy/src/daisy_seed.h ****     void SetLed(bool state);
 110:../../libDaisy/src/daisy_seed.h **** 
 111:../../libDaisy/src/daisy_seed.h ****     /** Sets the state of the test point near pin 10
 112:../../libDaisy/src/daisy_seed.h ****      */
 113:../../libDaisy/src/daisy_seed.h ****     void SetTestPoint(bool state);
 114:../../libDaisy/src/daisy_seed.h **** 
 115:../../libDaisy/src/daisy_seed.h ****     /** Print formatted debug log message
 116:../../libDaisy/src/daisy_seed.h ****      */
 117:../../libDaisy/src/daisy_seed.h ****     template <typename... VA>
 118:../../libDaisy/src/daisy_seed.h ****     static void Print(const char* format, VA... va)
 119:../../libDaisy/src/daisy_seed.h ****     {
 120:../../libDaisy/src/daisy_seed.h ****         Log::Print(format, va...);
 121:../../libDaisy/src/daisy_seed.h ****     }
 122:../../libDaisy/src/daisy_seed.h **** 
 123:../../libDaisy/src/daisy_seed.h ****     /** Print formatted debug log message with automatic line termination
 124:../../libDaisy/src/daisy_seed.h ****     */
 125:../../libDaisy/src/daisy_seed.h ****     template <typename... VA>
 126:../../libDaisy/src/daisy_seed.h ****     static void PrintLine(const char* format, VA... va)
 127:../../libDaisy/src/daisy_seed.h ****     {
 128:../../libDaisy/src/daisy_seed.h ****         Log::PrintLine(format, va...);
 129:../../libDaisy/src/daisy_seed.h ****     }
 130:../../libDaisy/src/daisy_seed.h **** 
 131:../../libDaisy/src/daisy_seed.h ****     /** Start the logging session. Optionally wait for terminal connection before proceeding.
 132:../../libDaisy/src/daisy_seed.h ****     */
 133:../../libDaisy/src/daisy_seed.h ****     static void StartLog(bool wait_for_pc = false)
 1384              		.loc 1 133 17 view .LVU429
 1385              	.LBB583:
 134:../../libDaisy/src/daisy_seed.h ****     {
 135:../../libDaisy/src/daisy_seed.h ****         Log::StartLog(wait_for_pc);
 1386              		.loc 1 135 9 view .LVU430
 1387              		.loc 1 135 22 is_stmt 0 view .LVU431
 1388 002a 0020     		movs	r0, #0
 1389 002c FFF7FEFF 		bl	_ZN5daisy6LoggerILNS_17LoggerDestinationE1EE8StartLogEb
ARM GAS  /var/folders/th/s5djnwg15xxc0dk87c413f_h0000gn/T//ccCW3aXI.s 			page 54


 1390              	.LVL66:
 1391              		.loc 1 135 22 view .LVU432
 1392              	.LBE583:
 1393              	.LBE582:
 343:WavPlayer.cpp **** 
 1394              		.loc 6 343 5 is_stmt 1 view .LVU433
 343:WavPlayer.cpp **** 
 1395              		.loc 6 343 18 is_stmt 0 view .LVU434
 1396 0030 4FF47A70 		mov	r0, #1000
 1397 0034 FFF7FEFF 		bl	_ZN5daisy6System5DelayEm
 1398              	.LVL67:
 349:WavPlayer.cpp ****         .pin_config = {
 1399              		.loc 6 349 5 is_stmt 1 view .LVU435
 356:WavPlayer.cpp ****                                                         // Could probe the pin to check?
 1400              		.loc 6 356 49 is_stmt 0 view .LVU436
 1401 0038 3C23     		movs	r3, #60
 360:WavPlayer.cpp ****     // Probe the display with a fill+update to confirm the bus is alive.
 1402              		.loc 6 360 17 view .LVU437
 1403 003a 06F10C0C 		add	ip, r6, #12
 356:WavPlayer.cpp ****                                                         // Could probe the pin to check?
 1404              		.loc 6 356 49 view .LVU438
 1405 003e 3375     		strb	r3, [r6, #20]
 349:WavPlayer.cpp ****         .pin_config = {
 1406              		.loc 6 349 48 view .LVU439
 1407 0040 0FCD     		ldmia	r5!, {r0, r1, r2, r3}
 1408 0042 0FC4     		stmia	r4!, {r0, r1, r2, r3}
 1409 0044 2B68     		ldr	r3, [r5]
 1410 0046 2360     		str	r3, [r4]
 356:WavPlayer.cpp ****                                                         // Could probe the pin to check?
 1411              		.loc 6 356 5 is_stmt 1 view .LVU440
 360:WavPlayer.cpp ****     // Probe the display with a fill+update to confirm the bus is alive.
 1412              		.loc 6 360 5 view .LVU441
 360:WavPlayer.cpp ****     // Probe the display with a fill+update to confirm the bus is alive.
 1413              		.loc 6 360 17 is_stmt 0 view .LVU442
 1414 0048 9CE80700 		ldm	ip, {r0, r1, r2}
 1415 004c 8DE80700 		stm	sp, {r0, r1, r2}
 1416 0050 B748     		ldr	r0, .L81+12
 1417 0052 96E80E00 		ldm	r6, {r1, r2, r3}
 1418 0056 FFF7FEFF 		bl	_ZN5daisy13SSD130xDriverILj128ELj64ENS_19SSD130xI2CTransportEE4InitENS2_6ConfigE
 1419              	.LVL68:
 363:WavPlayer.cpp ****     display.Update();
 1420              		.loc 6 363 5 is_stmt 1 view .LVU443
 1421              	.LBB584:
 1422              	.LBI584:
 362:../../libDaisy/src/dev/oled_ssd130x.h ****     {
 1423              		.loc 7 362 10 view .LVU444
 1424              	.LBB585:
 364:../../libDaisy/src/dev/oled_ssd130x.h ****         {
 1425              		.loc 7 364 29 view .LVU445
 366:../../libDaisy/src/dev/oled_ssd130x.h ****         }
 1426              		.loc 7 366 24 is_stmt 0 view .LVU446
 1427 005a 4FF48062 		mov	r2, #1024
 1428 005e 3946     		mov	r1, r7
 1429 0060 B448     		ldr	r0, .L81+16
 1430 0062 FFF7FEFF 		bl	memset
 1431              	.LVL69:
 366:../../libDaisy/src/dev/oled_ssd130x.h ****         }
ARM GAS  /var/folders/th/s5djnwg15xxc0dk87c413f_h0000gn/T//ccCW3aXI.s 			page 55


 1432              		.loc 7 366 24 view .LVU447
 1433              	.LBE585:
 1434              	.LBE584:
 364:WavPlayer.cpp ****     hw.PrintLine("Display initialized. This is a false message if audio took more than 20 seconds t
 1435              		.loc 6 364 5 is_stmt 1 view .LVU448
 364:WavPlayer.cpp ****     hw.PrintLine("Display initialized. This is a false message if audio took more than 20 seconds t
 1436              		.loc 6 364 19 is_stmt 0 view .LVU449
 1437 0066 B248     		ldr	r0, .L81+12
 1438 0068 FFF7FEFF 		bl	_ZN5daisy13SSD130xDriverILj128ELj64ENS_19SSD130xI2CTransportEE6UpdateEv
 1439              	.LVL70:
 365:WavPlayer.cpp **** 
 1440              		.loc 6 365 5 is_stmt 1 view .LVU450
 1441              	.LBB586:
 1442              	.LBI586:
 126:../../libDaisy/src/daisy_seed.h ****     {
 1443              		.loc 1 126 17 view .LVU451
 1444              	.LBB587:
 128:../../libDaisy/src/daisy_seed.h ****     }
 1445              		.loc 1 128 23 is_stmt 0 view .LVU452
 1446 006c B248     		ldr	r0, .L81+20
 1447 006e FFF7FEFF 		bl	_ZN5daisy6LoggerILNS_17LoggerDestinationE1EE9PrintLineEPKcz
 1448              	.LVL71:
 128:../../libDaisy/src/daisy_seed.h ****     }
 1449              		.loc 1 128 23 view .LVU453
 1450              	.LBE587:
 1451              	.LBE586:
 367:WavPlayer.cpp ****     size_t DISPLAY_HEIGHT = display.Height(); // Get display height in case a different dim display
 1452              		.loc 6 367 5 is_stmt 1 view .LVU454
 368:WavPlayer.cpp **** 
 1453              		.loc 6 368 5 view .LVU455
 371:WavPlayer.cpp ****     for (int i = 0; i < 3; i++)
 1454              		.loc 6 371 5 view .LVU456
 1455              		.loc 6 372 5 view .LVU457
 1456              	.LBB588:
 1457              		.loc 6 372 23 view .LVU458
 1458              	.L29:
 373:WavPlayer.cpp ****         sel_gpio[i].Init(kSelPins[i], GPIO::Mode::OUTPUT);
 1459              		.loc 6 373 9 discriminator 2 view .LVU459
 1460              		.loc 6 373 25 is_stmt 0 discriminator 2 view .LVU460
 1461 0072 0024     		movs	r4, #0
 1462 0074 39F81710 		ldrh	r1, [r9, r7, lsl #1]
 372:WavPlayer.cpp ****         sel_gpio[i].Init(kSelPins[i], GPIO::Mode::OUTPUT);
 1463              		.loc 6 372 5 discriminator 2 view .LVU461
 1464 0078 0137     		adds	r7, r7, #1
 1465              	.LVL72:
 1466              		.loc 6 373 25 discriminator 2 view .LVU462
 1467 007a 4046     		mov	r0, r8
 1468 007c 2346     		mov	r3, r4
 1469 007e 0122     		movs	r2, #1
 1470 0080 0094     		str	r4, [sp]
 372:WavPlayer.cpp ****         sel_gpio[i].Init(kSelPins[i], GPIO::Mode::OUTPUT);
 1471              		.loc 6 372 23 discriminator 2 view .LVU463
 1472 0082 08F11408 		add	r8, r8, #20
 1473              		.loc 6 373 25 discriminator 2 view .LVU464
 1474 0086 FFF7FEFF 		bl	_ZN5daisy4GPIO4InitENS_3PinENS0_4ModeENS0_4PullENS0_5SpeedE
 1475              	.LVL73:
 372:WavPlayer.cpp ****         sel_gpio[i].Init(kSelPins[i], GPIO::Mode::OUTPUT);
ARM GAS  /var/folders/th/s5djnwg15xxc0dk87c413f_h0000gn/T//ccCW3aXI.s 			page 56


 1476              		.loc 6 372 5 is_stmt 1 discriminator 2 view .LVU465
 372:WavPlayer.cpp ****         sel_gpio[i].Init(kSelPins[i], GPIO::Mode::OUTPUT);
 1477              		.loc 6 372 23 discriminator 2 view .LVU466
 1478 008a 032F     		cmp	r7, #3
 1479 008c F1D1     		bne	.L29
 1480 008e AB4E     		ldr	r6, .L81+24
 1481 0090 AB4F     		ldr	r7, .L81+28
 1482              	.LVL74:
 1483              	.L30:
 372:WavPlayer.cpp ****         sel_gpio[i].Init(kSelPins[i], GPIO::Mode::OUTPUT);
 1484              		.loc 6 372 23 is_stmt 0 discriminator 2 view .LVU467
 1485              	.LBE588:
 1486              	.LBB589:
 374:WavPlayer.cpp **** 
 375:WavPlayer.cpp ****     // ŌöĆŌöĆ GPIO: channel muxes ŌĆö S0ŌåÆD20, S1ŌåÆD19, S2ŌåÆD18 ŌöĆŌöĆŌöĆŌöĆŌöĆŌöĆŌöĆŌöĆŌöĆŌöĆŌö
 376:WavPlayer.cpp ****     static const Pin kChPins[3] = { seed::D20, seed::D19, seed::D18 };
 377:WavPlayer.cpp ****     for (int i = 0; i < 3; i++)
 378:WavPlayer.cpp ****         ch_gpio[i].Init(kChPins[i], GPIO::Mode::OUTPUT);
 1487              		.loc 6 378 9 is_stmt 1 discriminator 2 view .LVU468
 1488              		.loc 6 378 24 is_stmt 0 discriminator 2 view .LVU469
 1489 0092 0025     		movs	r5, #0
 1490 0094 37F81410 		ldrh	r1, [r7, r4, lsl #1]
 377:WavPlayer.cpp ****         ch_gpio[i].Init(kChPins[i], GPIO::Mode::OUTPUT);
 1491              		.loc 6 377 5 discriminator 2 view .LVU470
 1492 0098 0134     		adds	r4, r4, #1
 1493              	.LVL75:
 1494              		.loc 6 378 24 discriminator 2 view .LVU471
 1495 009a 3046     		mov	r0, r6
 1496 009c 2B46     		mov	r3, r5
 1497 009e 0122     		movs	r2, #1
 1498 00a0 0095     		str	r5, [sp]
 377:WavPlayer.cpp ****         ch_gpio[i].Init(kChPins[i], GPIO::Mode::OUTPUT);
 1499              		.loc 6 377 23 discriminator 2 view .LVU472
 1500 00a2 1436     		adds	r6, r6, #20
 1501              		.loc 6 378 24 discriminator 2 view .LVU473
 1502 00a4 FFF7FEFF 		bl	_ZN5daisy4GPIO4InitENS_3PinENS0_4ModeENS0_4PullENS0_5SpeedE
 1503              	.LVL76:
 377:WavPlayer.cpp ****         ch_gpio[i].Init(kChPins[i], GPIO::Mode::OUTPUT);
 1504              		.loc 6 377 5 is_stmt 1 discriminator 2 view .LVU474
 377:WavPlayer.cpp ****         ch_gpio[i].Init(kChPins[i], GPIO::Mode::OUTPUT);
 1505              		.loc 6 377 23 discriminator 2 view .LVU475
 1506 00a8 032C     		cmp	r4, #3
 1507 00aa F2D1     		bne	.L30
 1508              	.LBE589:
 379:WavPlayer.cpp **** 
 380:WavPlayer.cpp ****     // ŌöĆŌöĆ GPIO: debug parameter pins (D24..D31) ŌöĆŌöĆŌöĆŌöĆŌöĆŌöĆŌöĆŌöĆŌöĆŌöĆŌöĆŌöĆŌöĆŌöĆŌöĆŌö
 381:WavPlayer.cpp ****     if (kDebugParams) { // RESERVED FOR FUTURE USE TO TUNE PARAMETERS WITH POTS
 1509              		.loc 6 381 5 view .LVU476
 382:WavPlayer.cpp ****         static const Pin kNoiseFloorPin = seed::A9;
 383:WavPlayer.cpp ****         static const Pin kPosDeadPin    = seed::A10;
 384:WavPlayer.cpp ****         static const Pin kSmoothPin     = seed::A11;
 385:WavPlayer.cpp ****         static const Pin kScanDelayPin  = seed::A12;
 386:WavPlayer.cpp **** 
 387:WavPlayer.cpp ****         noise_floor_gpio.Init(kNoiseFloorPin, GPIO::Mode::INPUT);
 388:WavPlayer.cpp ****         pos_dead_gpio.Init(kPosDeadPin,       GPIO::Mode::INPUT);
 389:WavPlayer.cpp ****         smooth_gpio.Init(kSmoothPin,          GPIO::Mode::INPUT);
 390:WavPlayer.cpp ****         scan_delay_gpio.Init(kScanDelayPin,   GPIO::Mode::INPUT);
ARM GAS  /var/folders/th/s5djnwg15xxc0dk87c413f_h0000gn/T//ccCW3aXI.s 			page 57


 391:WavPlayer.cpp ****     }
 392:WavPlayer.cpp **** 
 393:WavPlayer.cpp ****     // ŌöĆŌöĆ ADC: single channel on A8 ŌöĆŌöĆŌöĆŌöĆŌöĆŌöĆŌöĆŌöĆŌöĆŌöĆŌöĆŌöĆŌöĆŌöĆŌöĆŌöĆŌöĆŌöĆŌöĆŌö
 394:WavPlayer.cpp ****     AdcChannelConfig adc_cfg;
 1510              		.loc 6 394 5 view .LVU477
 395:WavPlayer.cpp ****     adc_cfg.InitSingle(seed::A8);
 1511              		.loc 6 395 5 view .LVU478
 1512              		.loc 6 395 23 is_stmt 0 view .LVU479
 1513 00ac 0424     		movs	r4, #4
 1514              	.LVL77:
 1515              		.loc 6 395 23 view .LVU480
 1516 00ae 8DF82050 		strb	r5, [sp, #32]
 1517 00b2 0222     		movs	r2, #2
 1518 00b4 09A8     		add	r0, sp, #36
 1519 00b6 8DF82140 		strb	r4, [sp, #33]
 1520 00ba 0899     		ldr	r1, [sp, #32]
 1521 00bc FFF7FEFF 		bl	_ZN5daisy16AdcChannelConfig10InitSingleE12dsy_gpio_pinNS0_15ConversionSpeedE
 1522              	.LVL78:
 396:WavPlayer.cpp ****     hw.adc.Init(&adc_cfg, 1);
 1523              		.loc 6 396 5 is_stmt 1 view .LVU481
 1524              		.loc 6 396 16 is_stmt 0 view .LVU482
 1525 00c0 2346     		mov	r3, r4
 1526 00c2 0122     		movs	r2, #1
 1527 00c4 09A9     		add	r1, sp, #36
 1528 00c6 9F48     		ldr	r0, .L81+32
 1529 00c8 FFF7FEFF 		bl	_ZN5daisy9AdcHandle4InitEPNS_16AdcChannelConfigEjNS0_12OverSamplingE
 1530              	.LVL79:
 397:WavPlayer.cpp ****     hw.adc.Start();
 1531              		.loc 6 397 5 is_stmt 1 view .LVU483
 1532              		.loc 6 397 17 is_stmt 0 view .LVU484
 1533 00cc 9D48     		ldr	r0, .L81+32
 1534 00ce FFF7FEFF 		bl	_ZN5daisy9AdcHandle5StartEv
 1535              	.LVL80:
 398:WavPlayer.cpp **** 
 399:WavPlayer.cpp ****     // ŌöĆŌöĆ Initialise sofware state ŌĆö all columns start at ZERO_ROW ŌåÆ amplitude = 0
 400:WavPlayer.cpp ****     for (int c = 0; c < NUM_COLS; c++) {
 1536              		.loc 6 400 5 is_stmt 1 view .LVU485
 1537              	.LBB590:
 1538              		.loc 6 400 23 view .LVU486
 1539              	.LBE590:
 397:WavPlayer.cpp ****     hw.adc.Start();
 1540              		.loc 6 397 17 is_stmt 0 view .LVU487
 1541 00d2 9D4A     		ldr	r2, .L81+36
 1542 00d4 9D4B     		ldr	r3, .L81+40
 1543              	.LVL81:
 1544              	.L31:
 1545              	.LBB597:
 1546              	.LBB591:
 401:WavPlayer.cpp ****         col_pos[c]        = ZERO_ROW;
 1547              		.loc 6 401 9 is_stmt 1 view .LVU488
 1548              		.loc 6 401 27 is_stmt 0 view .LVU489
 1549 00d6 9E49     		ldr	r1, .L81+44
 1550 00d8 43F8041B 		str	r1, [r3], #4	@ float
 402:WavPlayer.cpp ****         col_pos_smooth[c] = ZERO_ROW;
 1551              		.loc 6 402 9 is_stmt 1 view .LVU490
 1552              		.loc 6 402 27 is_stmt 0 view .LVU491
 1553 00dc 42F8041B 		str	r1, [r2], #4	@ float
ARM GAS  /var/folders/th/s5djnwg15xxc0dk87c413f_h0000gn/T//ccCW3aXI.s 			page 58


 403:WavPlayer.cpp ****         for (int r = 0; r < NUM_ROWS; r++)
 1554              		.loc 6 403 9 is_stmt 1 view .LVU492
 1555              	.LVL82:
 1556              	.LBB592:
 1557              		.loc 6 403 27 view .LVU493
 404:WavPlayer.cpp ****             sensor_v[c][r] = 0.0f;
 1558              		.loc 6 404 13 view .LVU494
 403:WavPlayer.cpp ****         for (int r = 0; r < NUM_ROWS; r++)
 1559              		.loc 6 403 9 view .LVU495
 403:WavPlayer.cpp ****         for (int r = 0; r < NUM_ROWS; r++)
 1560              		.loc 6 403 27 view .LVU496
 1561              	.LBE592:
 1562              	.LBE591:
 400:WavPlayer.cpp ****         col_pos[c]        = ZERO_ROW;
 1563              		.loc 6 400 5 view .LVU497
 400:WavPlayer.cpp ****         col_pos[c]        = ZERO_ROW;
 1564              		.loc 6 400 23 view .LVU498
 1565 00e0 9C49     		ldr	r1, .L81+48
 1566 00e2 9942     		cmp	r1, r3
 1567 00e4 F7D1     		bne	.L31
 1568              	.LBB595:
 1569              	.LBB593:
 1570              		.loc 6 404 28 is_stmt 0 view .LVU499
 1571 00e6 4FF48072 		mov	r2, #256
 1572 00ea 0021     		movs	r1, #0
 1573 00ec 9A48     		ldr	r0, .L81+52
 1574              	.LBE593:
 1575              	.LBE595:
 1576              	.LBE597:
 1577              	.LBB598:
 405:WavPlayer.cpp ****     }
 406:WavPlayer.cpp ****     std::memset(wavetable, 0, sizeof(wavetable));
 407:WavPlayer.cpp **** 
 408:WavPlayer.cpp ****     System::Delay(STARTUP_DELAY_MS); // Another delay to ensure the sensors are stabilised at their
 409:WavPlayer.cpp **** 
 410:WavPlayer.cpp ****     // ŌöĆŌöĆ Per-sensor baseline calibration ŌöĆŌöĆŌöĆŌöĆŌöĆŌöĆŌöĆŌöĆŌöĆŌöĆŌöĆŌöĆŌöĆŌöĆŌöĆŌöĆŌöĆŌö
 411:WavPlayer.cpp ****     //  Averages CAL_SAMPLES reads per sensor at power-on.
 412:WavPlayer.cpp ****     //  Ensure no magnets are near the array during this window.
 413:WavPlayer.cpp ****     //  In the future, add a button to retare the instrument wihtout needing to reboot it
 414:WavPlayer.cpp ****     hw.PrintLine("Calibrating...");
 415:WavPlayer.cpp ****     static constexpr int CAL_SAMPLES = 16;
 416:WavPlayer.cpp ****     for (int c = 0; c < NUM_COLS; c++) {
 1578              		.loc 6 416 14 view .LVU500
 1579 00ee 4FF0000A 		mov	r10, #0
 1580              	.LBE598:
 1581              	.LBB629:
 1582              	.LBB596:
 1583              	.LBB594:
 404:WavPlayer.cpp ****     }
 1584              		.loc 6 404 28 view .LVU501
 1585 00f2 FFF7FEFF 		bl	memset
 1586              	.LVL83:
 1587              	.LBE594:
 1588              	.LBE596:
 1589              	.LBE629:
 406:WavPlayer.cpp **** 
 1590              		.loc 6 406 5 is_stmt 1 view .LVU502
ARM GAS  /var/folders/th/s5djnwg15xxc0dk87c413f_h0000gn/T//ccCW3aXI.s 			page 59


 406:WavPlayer.cpp **** 
 1591              		.loc 6 406 16 is_stmt 0 view .LVU503
 1592 00f6 4FF48042 		mov	r2, #16384
 1593 00fa 0021     		movs	r1, #0
 1594 00fc 9748     		ldr	r0, .L81+56
 1595 00fe FFF7FEFF 		bl	memset
 1596              	.LVL84:
 408:WavPlayer.cpp **** 
 1597              		.loc 6 408 5 is_stmt 1 view .LVU504
 1598              	.LBB630:
 1599              	.LBB631:
 128:../../libDaisy/src/daisy_seed.h ****     }
 1600              		.loc 1 128 23 is_stmt 0 view .LVU505
 1601 0102 DFF88CB2 		ldr	fp, .L81+108
 1602              	.LBE631:
 1603              	.LBE630:
 408:WavPlayer.cpp **** 
 1604              		.loc 6 408 18 view .LVU506
 1605 0106 4FF47A70 		mov	r0, #1000
 1606 010a FFF7FEFF 		bl	_ZN5daisy6System5DelayEm
 1607              	.LVL85:
 414:WavPlayer.cpp ****     static constexpr int CAL_SAMPLES = 16;
 1608              		.loc 6 414 5 is_stmt 1 view .LVU507
 1609              	.LBB633:
 1610              	.LBI630:
 126:../../libDaisy/src/daisy_seed.h ****     {
 1611              		.loc 1 126 17 view .LVU508
 1612              	.LBB632:
 128:../../libDaisy/src/daisy_seed.h ****     }
 1613              		.loc 1 128 23 is_stmt 0 view .LVU509
 1614 010e 9448     		ldr	r0, .L81+60
 1615 0110 FFF7FEFF 		bl	_ZN5daisy6LoggerILNS_17LoggerDestinationE1EE9PrintLineEPKcz
 1616              	.LVL86:
 128:../../libDaisy/src/daisy_seed.h ****     }
 1617              		.loc 1 128 23 view .LVU510
 1618              	.LBE632:
 1619              	.LBE633:
 415:WavPlayer.cpp ****     for (int c = 0; c < NUM_COLS; c++) {
 1620              		.loc 6 415 5 is_stmt 1 view .LVU511
 1621              		.loc 6 416 5 view .LVU512
 1622              	.LBB634:
 1623              		.loc 6 416 23 view .LVU513
 1624              	.L34:
 1625              	.LBB599:
 417:WavPlayer.cpp ****         for (int r = 0; r < NUM_ROWS; r++) {
 1626              		.loc 6 417 27 view .LVU514
 1627              	.LBB600:
 1628              	.LBB601:
 1629              	.LBB602:
 163:WavPlayer.cpp **** }
 1630              		.loc 6 163 41 is_stmt 0 view .LVU515
 1631 0114 1AF0010F 		tst	r10, #1
 1632              	.LBE602:
 1633              	.LBE601:
 1634              	.LBE600:
 1635              		.loc 6 417 18 view .LVU516
 1636 0118 4FF00006 		mov	r6, #0
ARM GAS  /var/folders/th/s5djnwg15xxc0dk87c413f_h0000gn/T//ccCW3aXI.s 			page 60


 1637              	.LBB624:
 1638              	.LBB607:
 1639              	.LBB603:
 162:WavPlayer.cpp ****     ch  = static_cast<uint8_t>(ch_base  + (row % 4));
 1640              		.loc 6 162 45 view .LVU517
 1641 011c 0AF0FE09 		and	r9, r10, #254
 163:WavPlayer.cpp **** }
 1642              		.loc 6 163 41 view .LVU518
 1643 0120 5F46     		mov	r7, fp
 1644 0122 0CBF     		ite	eq
 1645 0124 4FF00408 		moveq	r8, #4
 1646 0128 B046     		movne	r8, r6
 1647              	.LVL87:
 1648              	.L33:
 163:WavPlayer.cpp **** }
 1649              		.loc 6 163 41 view .LVU519
 1650              	.LBE603:
 1651              	.LBE607:
 418:WavPlayer.cpp ****             uint8_t sel_addr, ch_addr;
 1652              		.loc 6 418 13 is_stmt 1 view .LVU520
 419:WavPlayer.cpp ****             GetMuxAddrs(c, r, sel_addr, ch_addr);
 1653              		.loc 6 419 13 view .LVU521
 1654              	.LBB608:
 1655              	.LBI601:
 158:WavPlayer.cpp **** {
 1656              		.loc 6 158 13 view .LVU522
 1657              	.LBB604:
 160:WavPlayer.cpp ****     const int ch_base  = (col % 2 == 0) ? 4 : 0;
 1658              		.loc 6 160 5 view .LVU523
 161:WavPlayer.cpp ****     sel = static_cast<uint8_t>(col_pair * 2 + (row >= 4 ? 1 : 0));
 1659              		.loc 6 161 5 view .LVU524
 162:WavPlayer.cpp ****     ch  = static_cast<uint8_t>(ch_base  + (row % 4));
 1660              		.loc 6 162 5 view .LVU525
 162:WavPlayer.cpp ****     ch  = static_cast<uint8_t>(ch_base  + (row % 4));
 1661              		.loc 6 162 45 is_stmt 0 view .LVU526
 1662 012a 032E     		cmp	r6, #3
 1663 012c D4BF     		ite	le
 1664 012e 4946     		movle	r1, r9
 1665 0130 09F10101 		addgt	r1, r9, #1
 163:WavPlayer.cpp **** }
 1666              		.loc 6 163 48 view .LVU527
 1667 0134 06F00305 		and	r5, r6, #3
 1668              	.LBE604:
 1669              	.LBE608:
 1670              	.LBB609:
 1671              	.LBB610:
 146:WavPlayer.cpp ****     sel_gpio[1].Write((addr >> 1) & 1u);
 1672              		.loc 6 146 22 view .LVU528
 1673 0138 8A48     		ldr	r0, .L81+64
 1674              	.LBE610:
 1675              	.LBE609:
 1676              	.LBB614:
 1677              	.LBB605:
 162:WavPlayer.cpp ****     ch  = static_cast<uint8_t>(ch_base  + (row % 4));
 1678              		.loc 6 162 45 view .LVU529
 1679 013a CCB2     		uxtb	r4, r1
 1680              	.LVL88:
ARM GAS  /var/folders/th/s5djnwg15xxc0dk87c413f_h0000gn/T//ccCW3aXI.s 			page 61


 163:WavPlayer.cpp **** }
 1681              		.loc 6 163 5 is_stmt 1 view .LVU530
 1682              	.LBE605:
 1683              	.LBE614:
 1684              	.LBB615:
 1685              	.LBB611:
 146:WavPlayer.cpp ****     sel_gpio[1].Write((addr >> 1) & 1u);
 1686              		.loc 6 146 22 is_stmt 0 view .LVU531
 1687 013c 01F00101 		and	r1, r1, #1
 1688              	.LBE611:
 1689              	.LBE615:
 1690              	.LBB616:
 1691              	.LBB606:
 163:WavPlayer.cpp **** }
 1692              		.loc 6 163 41 view .LVU532
 1693 0140 4544     		add	r5, r5, r8
 1694              	.LVL89:
 163:WavPlayer.cpp **** }
 1695              		.loc 6 163 41 view .LVU533
 1696              	.LBE606:
 1697              	.LBE616:
 420:WavPlayer.cpp ****             SetSelectorAddr(sel_addr);
 1698              		.loc 6 420 13 is_stmt 1 view .LVU534
 1699              	.LBB617:
 1700              	.LBI609:
 144:WavPlayer.cpp **** {
 1701              		.loc 6 144 20 view .LVU535
 1702              	.LBB612:
 146:WavPlayer.cpp ****     sel_gpio[1].Write((addr >> 1) & 1u);
 1703              		.loc 6 146 5 view .LVU536
 146:WavPlayer.cpp ****     sel_gpio[1].Write((addr >> 1) & 1u);
 1704              		.loc 6 146 22 is_stmt 0 view .LVU537
 1705 0142 FFF7FEFF 		bl	_ZN5daisy4GPIO5WriteEb
 1706              	.LVL90:
 147:WavPlayer.cpp ****     sel_gpio[2].Write((addr >> 2) & 1u);
 1707              		.loc 6 147 5 is_stmt 1 view .LVU538
 147:WavPlayer.cpp ****     sel_gpio[2].Write((addr >> 2) & 1u);
 1708              		.loc 6 147 22 is_stmt 0 view .LVU539
 1709 0146 C4F34001 		ubfx	r1, r4, #1, #1
 1710 014a 8748     		ldr	r0, .L81+68
 1711 014c FFF7FEFF 		bl	_ZN5daisy4GPIO5WriteEb
 1712              	.LVL91:
 148:WavPlayer.cpp **** }
 1713              		.loc 6 148 5 is_stmt 1 view .LVU540
 148:WavPlayer.cpp **** }
 1714              		.loc 6 148 22 is_stmt 0 view .LVU541
 1715 0150 C4F38001 		ubfx	r1, r4, #2, #1
 1716 0154 8548     		ldr	r0, .L81+72
 1717              	.LBE612:
 1718              	.LBE617:
 421:WavPlayer.cpp ****             SetChannelAddr(ch_addr);
 422:WavPlayer.cpp ****             System::DelayUs(BASELINE_FACTOR * kScanDelayUs);
 1719              		.loc 6 422 28 view .LVU542
 1720 0156 1024     		movs	r4, #16
 1721              	.LVL92:
 1722              	.LBB618:
 1723              	.LBB613:
ARM GAS  /var/folders/th/s5djnwg15xxc0dk87c413f_h0000gn/T//ccCW3aXI.s 			page 62


 148:WavPlayer.cpp **** }
 1724              		.loc 6 148 22 view .LVU543
 1725 0158 FFF7FEFF 		bl	_ZN5daisy4GPIO5WriteEb
 1726              	.LVL93:
 148:WavPlayer.cpp **** }
 1727              		.loc 6 148 22 view .LVU544
 1728              	.LBE613:
 1729              	.LBE618:
 421:WavPlayer.cpp ****             SetChannelAddr(ch_addr);
 1730              		.loc 6 421 13 is_stmt 1 view .LVU545
 1731              	.LBB619:
 1732              	.LBI619:
 151:WavPlayer.cpp **** {
 1733              		.loc 6 151 20 view .LVU546
 1734              	.LBB620:
 153:WavPlayer.cpp ****     ch_gpio[1].Write((addr >> 1) & 1u);
 1735              		.loc 6 153 5 view .LVU547
 153:WavPlayer.cpp ****     ch_gpio[1].Write((addr >> 1) & 1u);
 1736              		.loc 6 153 21 is_stmt 0 view .LVU548
 1737 015c 05F00101 		and	r1, r5, #1
 1738 0160 7648     		ldr	r0, .L81+24
 1739 0162 FFF7FEFF 		bl	_ZN5daisy4GPIO5WriteEb
 1740              	.LVL94:
 154:WavPlayer.cpp ****     ch_gpio[2].Write((addr >> 2) & 1u);
 1741              		.loc 6 154 5 is_stmt 1 view .LVU549
 154:WavPlayer.cpp ****     ch_gpio[2].Write((addr >> 2) & 1u);
 1742              		.loc 6 154 21 is_stmt 0 view .LVU550
 1743 0166 C5F34001 		ubfx	r1, r5, #1, #1
 1744 016a 8148     		ldr	r0, .L81+76
 1745 016c FFF7FEFF 		bl	_ZN5daisy4GPIO5WriteEb
 1746              	.LVL95:
 155:WavPlayer.cpp **** }
 1747              		.loc 6 155 5 is_stmt 1 view .LVU551
 155:WavPlayer.cpp **** }
 1748              		.loc 6 155 21 is_stmt 0 view .LVU552
 1749 0170 8048     		ldr	r0, .L81+80
 1750 0172 C5F38001 		ubfx	r1, r5, #2, #1
 1751              	.LBE620:
 1752              	.LBE619:
 423:WavPlayer.cpp **** 
 424:WavPlayer.cpp ****             float acc = 0.0f;
 1753              		.loc 6 424 19 view .LVU553
 1754 0176 9FED808A 		vldr.32	s16, .L81+84
 1755              	.LBB622:
 1756              	.LBB621:
 155:WavPlayer.cpp **** }
 1757              		.loc 6 155 21 view .LVU554
 1758 017a FFF7FEFF 		bl	_ZN5daisy4GPIO5WriteEb
 1759              	.LVL96:
 155:WavPlayer.cpp **** }
 1760              		.loc 6 155 21 view .LVU555
 1761              	.LBE621:
 1762              	.LBE622:
 422:WavPlayer.cpp **** 
 1763              		.loc 6 422 13 is_stmt 1 view .LVU556
 422:WavPlayer.cpp **** 
 1764              		.loc 6 422 28 is_stmt 0 view .LVU557
ARM GAS  /var/folders/th/s5djnwg15xxc0dk87c413f_h0000gn/T//ccCW3aXI.s 			page 63


 1765 017e 4FF4FA70 		mov	r0, #500
 1766 0182 FFF7FEFF 		bl	_ZN5daisy6System7DelayUsEm
 1767              	.LVL97:
 1768              		.loc 6 424 13 is_stmt 1 view .LVU558
 425:WavPlayer.cpp ****             for (int s = 0; s < CAL_SAMPLES; s++) {
 1769              		.loc 6 425 13 view .LVU559
 1770              	.LBB623:
 1771              		.loc 6 425 31 view .LVU560
 1772              	.L32:
 426:WavPlayer.cpp ****                 acc += hw.adc.GetFloat(0) * SUPPLY_VOLTS;
 1773              		.loc 6 426 17 discriminator 2 view .LVU561
 1774              		.loc 6 426 39 is_stmt 0 discriminator 2 view .LVU562
 1775 0186 6F48     		ldr	r0, .L81+32
 1776 0188 0021     		movs	r1, #0
 1777 018a FFF7FEFF 		bl	_ZNK5daisy9AdcHandle8GetFloatEh
 1778              	.LVL98:
 1779              		.loc 6 426 21 discriminator 2 view .LVU563
 1780 018e DFED7B7A 		vldr.32	s15, .L81+88
 427:WavPlayer.cpp ****                 System::DelayUs(BASELINE_FACTOR * kScanDelayUs);
 1781              		.loc 6 427 32 discriminator 2 view .LVU564
 1782 0192 4FF4FA70 		mov	r0, #500
 426:WavPlayer.cpp ****                 acc += hw.adc.GetFloat(0) * SUPPLY_VOLTS;
 1783              		.loc 6 426 21 discriminator 2 view .LVU565
 1784 0196 A0EE278A 		vfma.f32	s16, s0, s15
 1785              	.LVL99:
 1786              		.loc 6 427 17 is_stmt 1 discriminator 2 view .LVU566
 1787              		.loc 6 427 32 is_stmt 0 discriminator 2 view .LVU567
 1788 019a FFF7FEFF 		bl	_ZN5daisy6System7DelayUsEm
 1789              	.LVL100:
 425:WavPlayer.cpp ****             for (int s = 0; s < CAL_SAMPLES; s++) {
 1790              		.loc 6 425 13 is_stmt 1 discriminator 2 view .LVU568
 425:WavPlayer.cpp ****             for (int s = 0; s < CAL_SAMPLES; s++) {
 1791              		.loc 6 425 31 discriminator 2 view .LVU569
 1792 019e 013C     		subs	r4, r4, #1
 1793              	.LVL101:
 425:WavPlayer.cpp ****             for (int s = 0; s < CAL_SAMPLES; s++) {
 1794              		.loc 6 425 31 is_stmt 0 discriminator 2 view .LVU570
 1795 01a0 F1D1     		bne	.L32
 1796              	.LBE623:
 428:WavPlayer.cpp ****             }
 429:WavPlayer.cpp ****             baseline[c][r] = acc / static_cast<float>(CAL_SAMPLES);
 1797              		.loc 6 429 13 is_stmt 1 discriminator 2 view .LVU571
 1798              		.loc 6 429 34 is_stmt 0 discriminator 2 view .LVU572
 1799 01a2 DFED777A 		vldr.32	s15, .L81+92
 1800              	.LBE624:
 417:WavPlayer.cpp ****             uint8_t sel_addr, ch_addr;
 1801              		.loc 6 417 9 discriminator 2 view .LVU573
 1802 01a6 0136     		adds	r6, r6, #1
 1803              	.LVL102:
 1804              	.LBB625:
 1805              		.loc 6 429 34 discriminator 2 view .LVU574
 1806 01a8 28EE278A 		vmul.f32	s16, s16, s15
 1807              	.LVL103:
 1808              		.loc 6 429 34 discriminator 2 view .LVU575
 1809              	.LBE625:
 417:WavPlayer.cpp ****             uint8_t sel_addr, ch_addr;
 1810              		.loc 6 417 27 discriminator 2 view .LVU576
ARM GAS  /var/folders/th/s5djnwg15xxc0dk87c413f_h0000gn/T//ccCW3aXI.s 			page 64


 1811 01ac 082E     		cmp	r6, #8
 1812              	.LBB626:
 1813              		.loc 6 429 28 discriminator 2 view .LVU577
 1814 01ae A7EC018A 		vstmia.32	r7!, {s16}
 1815              	.LVL104:
 1816              		.loc 6 429 28 discriminator 2 view .LVU578
 1817              	.LBE626:
 417:WavPlayer.cpp ****             uint8_t sel_addr, ch_addr;
 1818              		.loc 6 417 9 is_stmt 1 discriminator 2 view .LVU579
 417:WavPlayer.cpp ****             uint8_t sel_addr, ch_addr;
 1819              		.loc 6 417 27 discriminator 2 view .LVU580
 1820 01b2 BAD1     		bne	.L33
 1821              	.LBE599:
 416:WavPlayer.cpp ****         for (int r = 0; r < NUM_ROWS; r++) {
 1822              		.loc 6 416 5 discriminator 2 view .LVU581
 1823 01b4 0AF1010A 		add	r10, r10, #1
 1824              	.LVL105:
 416:WavPlayer.cpp ****         for (int r = 0; r < NUM_ROWS; r++) {
 1825              		.loc 6 416 23 discriminator 2 view .LVU582
 1826 01b8 0BF1200B 		add	fp, fp, #32
 1827 01bc BAF1080F 		cmp	r10, #8
 1828 01c0 A8D1     		bne	.L34
 1829              	.LBE634:
 430:WavPlayer.cpp **** 
 431:WavPlayer.cpp ****         }
 432:WavPlayer.cpp ****     }
 433:WavPlayer.cpp ****     hw.PrintLine("Calibration done.");
 1830              		.loc 6 433 5 view .LVU583
 1831              	.LVL106:
 1832              	.LBB635:
 1833              	.LBI635:
 126:../../libDaisy/src/daisy_seed.h ****     {
 1834              		.loc 1 126 17 view .LVU584
 1835              	.LBB636:
 128:../../libDaisy/src/daisy_seed.h ****     }
 1836              		.loc 1 128 23 is_stmt 0 view .LVU585
 1837 01c2 7048     		ldr	r0, .L81+96
 1838 01c4 FFF7FEFF 		bl	_ZN5daisy6LoggerILNS_17LoggerDestinationE1EE9PrintLineEPKcz
 1839              	.LVL107:
 128:../../libDaisy/src/daisy_seed.h ****     }
 1840              		.loc 1 128 23 view .LVU586
 1841              	.LBE636:
 1842              	.LBE635:
 434:WavPlayer.cpp **** 
 435:WavPlayer.cpp ****     hw.StartAudio(AudioCallback);
 1843              		.loc 6 435 5 is_stmt 1 view .LVU587
 1844              		.loc 6 435 18 is_stmt 0 view .LVU588
 1845 01c8 6F49     		ldr	r1, .L81+100
 1846 01ca 5648     		ldr	r0, .L81
 1847 01cc FFF7FEFF 		bl	_ZN5daisy9DaisySeed10StartAudioEPFvPKPKfPPfjE
 1848              	.LVL108:
 436:WavPlayer.cpp ****     hw.PrintLine("Stringtone ready. kDebugStep=%d  kPlayFrequency=%d.%01d Hz",
 1849              		.loc 6 436 5 is_stmt 1 view .LVU589
 1850              	.LBB637:
 1851              	.LBI637:
 126:../../libDaisy/src/daisy_seed.h ****     {
 1852              		.loc 1 126 17 view .LVU590
ARM GAS  /var/folders/th/s5djnwg15xxc0dk87c413f_h0000gn/T//ccCW3aXI.s 			page 65


 1853 01d0 5D4A     		ldr	r2, .L81+36
 1854              	.LBB638:
 128:../../libDaisy/src/daisy_seed.h ****     }
 1855              		.loc 1 128 23 is_stmt 0 view .LVU591
 1856 01d2 2346     		mov	r3, r4
 1857 01d4 2146     		mov	r1, r4
 1858 01d6 2032     		adds	r2, r2, #32
 1859 01d8 6C48     		ldr	r0, .L81+104
 1860 01da 554E     		ldr	r6, .L81+12
 1861              	.LVL109:
 128:../../libDaisy/src/daisy_seed.h ****     }
 1862              		.loc 1 128 23 view .LVU592
 1863 01dc 0792     		str	r2, [sp, #28]
 1864 01de 5022     		movs	r2, #80
 1865 01e0 FFF7FEFF 		bl	_ZN5daisy6LoggerILNS_17LoggerDestinationE1EE9PrintLineEPKcz
 1866              	.LVL110:
 128:../../libDaisy/src/daisy_seed.h ****     }
 1867              		.loc 1 128 23 view .LVU593
 1868              	.LBE638:
 1869              	.LBE637:
 437:WavPlayer.cpp ****         (int)kDebugStep,
 438:WavPlayer.cpp ****         (int)kPlayFrequency,
 439:WavPlayer.cpp ****         (int)(kPlayFrequency * 10) % 10);
 440:WavPlayer.cpp **** 
 441:WavPlayer.cpp ****     // ŌĢÉŌĢÉŌĢÉŌĢÉŌĢÉŌĢÉŌĢÉŌĢÉŌĢÉŌĢÉŌĢÉŌĢÉŌĢÉŌĢÉŌĢÉŌĢÉŌĢÉŌĢÉŌĢÉŌĢÉŌĢÉŌĢÉŌĢÉŌĢÉŌĢÉŌĢÉŌĢÉŌĢÉŌĢÉŌĢÉŌĢ
 442:WavPlayer.cpp ****     //  Main scan loop
 443:WavPlayer.cpp ****     //  Each iteration: scan 64 sensors ŌåÆ compute positions ŌåÆ build wavetable
 444:WavPlayer.cpp ****     // ŌĢÉŌĢÉŌĢÉŌĢÉŌĢÉŌĢÉŌĢÉŌĢÉŌĢÉŌĢÉŌĢÉŌĢÉŌĢÉŌĢÉŌĢÉŌĢÉŌĢÉŌĢÉŌĢÉŌĢÉŌĢÉŌĢÉŌĢÉŌĢÉŌĢÉŌĢÉŌĢÉŌĢÉŌĢÉŌĢÉŌĢ
 445:WavPlayer.cpp **** 
 446:WavPlayer.cpp ****     float normalized = 0;
 1870              		.loc 6 446 5 is_stmt 1 view .LVU594
 1871              	.L54:
 447:WavPlayer.cpp **** 
 448:WavPlayer.cpp ****     while (true) {
 1872              		.loc 6 448 5 view .LVU595
 1873              	.LBB639:
 449:WavPlayer.cpp **** 
 450:WavPlayer.cpp ****         // ŌöĆŌöĆ Step 1: scan all 64 sensors ŌöĆŌöĆŌöĆŌöĆŌöĆŌöĆŌöĆŌöĆŌöĆŌöĆŌöĆŌöĆŌöĆŌöĆŌöĆŌöĆŌöĆŌö
 451:WavPlayer.cpp **** 
 452:WavPlayer.cpp ****         for (int c = 0; c < NUM_COLS; c++) {
 1874              		.loc 6 452 9 view .LVU596
 1875              	.LBB640:
 1876              		.loc 6 452 27 view .LVU597
 1877 01e4 5C4B     		ldr	r3, .L81+52
 1878              		.loc 6 452 18 is_stmt 0 view .LVU598
 1879 01e6 4FF00009 		mov	r9, #0
 1880 01ea 0693     		str	r3, [sp, #24]
 1881              	.LBE640:
 1882              	.LBE639:
 1883              	.LBB746:
 1884              	.LBB628:
 1885              	.LBB627:
 424:WavPlayer.cpp ****             for (int s = 0; s < CAL_SAMPLES; s++) {
 1886              		.loc 6 424 19 view .LVU599
 1887 01ec 0593     		str	r3, [sp, #20]
 1888              	.LVL111:
 1889              	.L36:
ARM GAS  /var/folders/th/s5djnwg15xxc0dk87c413f_h0000gn/T//ccCW3aXI.s 			page 66


 424:WavPlayer.cpp ****             for (int s = 0; s < CAL_SAMPLES; s++) {
 1890              		.loc 6 424 19 view .LVU600
 1891              	.LBE627:
 1892              	.LBE628:
 1893              	.LBE746:
 1894              	.LBB747:
 1895              	.LBB664:
 1896              	.LBB641:
 453:WavPlayer.cpp ****             for (int r = 0; r < NUM_ROWS; r++) {
 1897              		.loc 6 453 31 is_stmt 1 view .LVU601
 1898              	.LBB642:
 1899              	.LBB643:
 1900              	.LBB644:
 163:WavPlayer.cpp **** }
 1901              		.loc 6 163 41 is_stmt 0 view .LVU602
 1902 01ee 19F0010F 		tst	r9, #1
 1903              	.LBE644:
 1904              	.LBE643:
 1905              	.LBE642:
 1906              		.loc 6 453 22 view .LVU603
 1907 01f2 4FF00005 		mov	r5, #0
 1908              	.LBB661:
 1909              	.LBB649:
 1910              	.LBB645:
 162:WavPlayer.cpp ****     ch  = static_cast<uint8_t>(ch_base  + (row % 4));
 1911              		.loc 6 162 45 view .LVU604
 1912 01f6 09F0FE0A 		and	r10, r9, #254
 163:WavPlayer.cpp **** }
 1913              		.loc 6 163 41 view .LVU605
 1914 01fa DDF814B0 		ldr	fp, [sp, #20]
 1915 01fe 0CBF     		ite	eq
 1916 0200 4FF00408 		moveq	r8, #4
 1917 0204 A846     		movne	r8, r5
 1918              	.LVL112:
 1919              	.L35:
 163:WavPlayer.cpp **** }
 1920              		.loc 6 163 41 view .LVU606
 1921              	.LBE645:
 1922              	.LBE649:
 454:WavPlayer.cpp **** 
 455:WavPlayer.cpp ****                 uint8_t sel_addr, ch_addr;
 1923              		.loc 6 455 17 is_stmt 1 view .LVU607
 456:WavPlayer.cpp ****                 GetMuxAddrs(c, r, sel_addr, ch_addr);
 1924              		.loc 6 456 17 view .LVU608
 1925              	.LBB650:
 1926              	.LBI643:
 158:WavPlayer.cpp **** {
 1927              		.loc 6 158 13 view .LVU609
 1928              	.LBB646:
 160:WavPlayer.cpp ****     const int ch_base  = (col % 2 == 0) ? 4 : 0;
 1929              		.loc 6 160 5 view .LVU610
 161:WavPlayer.cpp ****     sel = static_cast<uint8_t>(col_pair * 2 + (row >= 4 ? 1 : 0));
 1930              		.loc 6 161 5 view .LVU611
 162:WavPlayer.cpp ****     ch  = static_cast<uint8_t>(ch_base  + (row % 4));
 1931              		.loc 6 162 5 view .LVU612
 162:WavPlayer.cpp ****     ch  = static_cast<uint8_t>(ch_base  + (row % 4));
 1932              		.loc 6 162 45 is_stmt 0 view .LVU613
ARM GAS  /var/folders/th/s5djnwg15xxc0dk87c413f_h0000gn/T//ccCW3aXI.s 			page 67


 1933 0206 032D     		cmp	r5, #3
 1934 0208 D4BF     		ite	le
 1935 020a 5146     		movle	r1, r10
 1936 020c 0AF10101 		addgt	r1, r10, #1
 163:WavPlayer.cpp **** }
 1937              		.loc 6 163 48 view .LVU614
 1938 0210 05F00304 		and	r4, r5, #3
 1939              	.LBE646:
 1940              	.LBE650:
 1941              	.LBB651:
 1942              	.LBB652:
 146:WavPlayer.cpp ****     sel_gpio[1].Write((addr >> 1) & 1u);
 1943              		.loc 6 146 22 view .LVU615
 1944 0214 5348     		ldr	r0, .L81+64
 1945              	.LBE652:
 1946              	.LBE651:
 1947              	.LBE661:
 453:WavPlayer.cpp **** 
 1948              		.loc 6 453 13 view .LVU616
 1949 0216 0135     		adds	r5, r5, #1
 1950              	.LVL113:
 1951              	.LBB662:
 1952              	.LBB655:
 1953              	.LBB647:
 162:WavPlayer.cpp ****     ch  = static_cast<uint8_t>(ch_base  + (row % 4));
 1954              		.loc 6 162 45 view .LVU617
 1955 0218 CFB2     		uxtb	r7, r1
 1956              	.LVL114:
 163:WavPlayer.cpp **** }
 1957              		.loc 6 163 5 is_stmt 1 view .LVU618
 1958              	.LBE647:
 1959              	.LBE655:
 1960              	.LBB656:
 1961              	.LBB653:
 146:WavPlayer.cpp ****     sel_gpio[1].Write((addr >> 1) & 1u);
 1962              		.loc 6 146 22 is_stmt 0 view .LVU619
 1963 021a 01F00101 		and	r1, r1, #1
 1964 021e FFF7FEFF 		bl	_ZN5daisy4GPIO5WriteEb
 1965              	.LVL115:
 1966              	.LBE653:
 1967              	.LBE656:
 1968              	.LBB657:
 1969              	.LBB648:
 163:WavPlayer.cpp **** }
 1970              		.loc 6 163 41 view .LVU620
 1971 0222 4444     		add	r4, r4, r8
 1972              	.LVL116:
 163:WavPlayer.cpp **** }
 1973              		.loc 6 163 41 view .LVU621
 1974              	.LBE648:
 1975              	.LBE657:
 457:WavPlayer.cpp **** 
 458:WavPlayer.cpp ****                 SetSelectorAddr(sel_addr);
 1976              		.loc 6 458 17 is_stmt 1 view .LVU622
 1977              	.LBB658:
 1978              	.LBI651:
 144:WavPlayer.cpp **** {
ARM GAS  /var/folders/th/s5djnwg15xxc0dk87c413f_h0000gn/T//ccCW3aXI.s 			page 68


 1979              		.loc 6 144 20 view .LVU623
 1980              	.LBB654:
 146:WavPlayer.cpp ****     sel_gpio[1].Write((addr >> 1) & 1u);
 1981              		.loc 6 146 5 view .LVU624
 147:WavPlayer.cpp ****     sel_gpio[2].Write((addr >> 2) & 1u);
 1982              		.loc 6 147 5 view .LVU625
 147:WavPlayer.cpp ****     sel_gpio[2].Write((addr >> 2) & 1u);
 1983              		.loc 6 147 22 is_stmt 0 view .LVU626
 1984 0224 C7F34001 		ubfx	r1, r7, #1, #1
 1985 0228 4F48     		ldr	r0, .L81+68
 1986 022a FFF7FEFF 		bl	_ZN5daisy4GPIO5WriteEb
 1987              	.LVL117:
 148:WavPlayer.cpp **** }
 1988              		.loc 6 148 5 is_stmt 1 view .LVU627
 148:WavPlayer.cpp **** }
 1989              		.loc 6 148 22 is_stmt 0 view .LVU628
 1990 022e C7F38001 		ubfx	r1, r7, #2, #1
 1991 0232 4E48     		ldr	r0, .L81+72
 1992 0234 FFF7FEFF 		bl	_ZN5daisy4GPIO5WriteEb
 1993              	.LVL118:
 148:WavPlayer.cpp **** }
 1994              		.loc 6 148 22 view .LVU629
 1995              	.LBE654:
 1996              	.LBE658:
 459:WavPlayer.cpp ****                 SetChannelAddr(ch_addr);
 1997              		.loc 6 459 17 is_stmt 1 view .LVU630
 1998              	.LBB659:
 1999              	.LBI659:
 151:WavPlayer.cpp **** {
 2000              		.loc 6 151 20 view .LVU631
 2001              	.LBB660:
 153:WavPlayer.cpp ****     ch_gpio[1].Write((addr >> 1) & 1u);
 2002              		.loc 6 153 5 view .LVU632
 153:WavPlayer.cpp ****     ch_gpio[1].Write((addr >> 1) & 1u);
 2003              		.loc 6 153 21 is_stmt 0 view .LVU633
 2004 0238 04F00101 		and	r1, r4, #1
 2005 023c 3F48     		ldr	r0, .L81+24
 2006 023e FFF7FEFF 		bl	_ZN5daisy4GPIO5WriteEb
 2007              	.LVL119:
 154:WavPlayer.cpp ****     ch_gpio[2].Write((addr >> 2) & 1u);
 2008              		.loc 6 154 5 is_stmt 1 view .LVU634
 154:WavPlayer.cpp ****     ch_gpio[2].Write((addr >> 2) & 1u);
 2009              		.loc 6 154 21 is_stmt 0 view .LVU635
 2010 0242 C4F34001 		ubfx	r1, r4, #1, #1
 2011 0246 4A48     		ldr	r0, .L81+76
 2012 0248 FFF7FEFF 		bl	_ZN5daisy4GPIO5WriteEb
 2013              	.LVL120:
 155:WavPlayer.cpp **** }
 2014              		.loc 6 155 5 is_stmt 1 view .LVU636
 155:WavPlayer.cpp **** }
 2015              		.loc 6 155 21 is_stmt 0 view .LVU637
 2016 024c C4F38001 		ubfx	r1, r4, #2, #1
 2017 0250 4848     		ldr	r0, .L81+80
 2018 0252 FFF7FEFF 		bl	_ZN5daisy4GPIO5WriteEb
 2019              	.LVL121:
 155:WavPlayer.cpp **** }
 2020              		.loc 6 155 21 view .LVU638
ARM GAS  /var/folders/th/s5djnwg15xxc0dk87c413f_h0000gn/T//ccCW3aXI.s 			page 69


 2021              	.LBE660:
 2022              	.LBE659:
 460:WavPlayer.cpp ****                 System::DelayUs(kScanDelayUs);
 2023              		.loc 6 460 17 is_stmt 1 view .LVU639
 2024              		.loc 6 460 32 is_stmt 0 view .LVU640
 2025 0256 6420     		movs	r0, #100
 2026 0258 FFF7FEFF 		bl	_ZN5daisy6System7DelayUsEm
 2027              	.LVL122:
 461:WavPlayer.cpp **** 
 462:WavPlayer.cpp ****                 normalized = hw.adc.GetFloat(0);
 2028              		.loc 6 462 17 is_stmt 1 view .LVU641
 2029              		.loc 6 462 45 is_stmt 0 view .LVU642
 2030 025c 0021     		movs	r1, #0
 2031 025e 3948     		ldr	r0, .L81+32
 2032 0260 FFF7FEFF 		bl	_ZNK5daisy9AdcHandle8GetFloatEh
 2033              	.LVL123:
 463:WavPlayer.cpp ****                 sensor_v[c][r] = normalized * SUPPLY_VOLTS;
 2034              		.loc 6 463 17 is_stmt 1 view .LVU643
 2035              		.loc 6 463 45 is_stmt 0 view .LVU644
 2036 0264 DFED457A 		vldr.32	s15, .L81+88
 2037              	.LBE662:
 453:WavPlayer.cpp **** 
 2038              		.loc 6 453 31 view .LVU645
 2039 0268 082D     		cmp	r5, #8
 2040              	.LBB663:
 2041              		.loc 6 463 45 view .LVU646
 2042 026a 20EE270A 		vmul.f32	s0, s0, s15
 2043              	.LVL124:
 2044              		.loc 6 463 32 view .LVU647
 2045 026e ABEC010A 		vstmia.32	fp!, {s0}
 464:WavPlayer.cpp **** 
 465:WavPlayer.cpp ****                 if (kDebugStep) { // This prints while the sensor scan occurs
 2046              		.loc 6 465 17 is_stmt 1 view .LVU648
 2047              	.LVL125:
 2048              		.loc 6 465 17 is_stmt 0 view .LVU649
 2049              	.LBE663:
 453:WavPlayer.cpp **** 
 2050              		.loc 6 453 13 is_stmt 1 view .LVU650
 453:WavPlayer.cpp **** 
 2051              		.loc 6 453 31 view .LVU651
 2052 0272 C8D1     		bne	.L35
 2053              	.LBE641:
 452:WavPlayer.cpp ****             for (int r = 0; r < NUM_ROWS; r++) {
 2054              		.loc 6 452 9 discriminator 2 view .LVU652
 452:WavPlayer.cpp ****             for (int r = 0; r < NUM_ROWS; r++) {
 2055              		.loc 6 452 27 is_stmt 0 discriminator 2 view .LVU653
 2056 0274 059B     		ldr	r3, [sp, #20]
 452:WavPlayer.cpp ****             for (int r = 0; r < NUM_ROWS; r++) {
 2057              		.loc 6 452 9 discriminator 2 view .LVU654
 2058 0276 09F10109 		add	r9, r9, #1
 2059              	.LVL126:
 452:WavPlayer.cpp ****             for (int r = 0; r < NUM_ROWS; r++) {
 2060              		.loc 6 452 27 is_stmt 1 discriminator 2 view .LVU655
 2061 027a 2033     		adds	r3, r3, #32
 2062 027c B9F1080F 		cmp	r9, #8
 2063 0280 0593     		str	r3, [sp, #20]
 2064 0282 B4D1     		bne	.L36
ARM GAS  /var/folders/th/s5djnwg15xxc0dk87c413f_h0000gn/T//ccCW3aXI.s 			page 70


 2065 0284 424D     		ldr	r5, .L81+108
 2066              	.LVL127:
 452:WavPlayer.cpp ****             for (int r = 0; r < NUM_ROWS; r++) {
 2067              		.loc 6 452 27 is_stmt 0 discriminator 2 view .LVU656
 2068 0286 304C     		ldr	r4, .L81+36
 2069 0288 3048     		ldr	r0, .L81+40
 2070 028a 069F     		ldr	r7, [sp, #24]
 2071              	.L41:
 2072              	.LBE664:
 2073              	.LBB665:
 466:WavPlayer.cpp ****                     hw.PrintLine( // Should fix output since float print is not enabled on the Dais
 467:WavPlayer.cpp ****                         "[C%d R%d] sel=%u ch=%u  %d.%04d (norm)  %d.%04d V  dev=%c%d.%04d V",
 468:WavPlayer.cpp ****                         c, r,
 469:WavPlayer.cpp ****                         static_cast<unsigned>(sel_addr),
 470:WavPlayer.cpp ****                         static_cast<unsigned>(ch_addr),
 471:WavPlayer.cpp ****                         (int)normalized,
 472:WavPlayer.cpp ****                         (int)(normalized * 10000) % 10000,
 473:WavPlayer.cpp ****                         (int)sensor_v[c][r],
 474:WavPlayer.cpp ****                         (int)(fabsf(sensor_v[c][r]) * 10000) % 10000,
 475:WavPlayer.cpp ****                         (sensor_v[c][r] - baseline[c][r] >= 0) ? '+' : '-',
 476:WavPlayer.cpp ****                         (int)fabsf(sensor_v[c][r] - baseline[c][r]),
 477:WavPlayer.cpp ****                         (int)(fabsf(sensor_v[c][r] - baseline[c][r]) * 10000) % 10000);
 478:WavPlayer.cpp ****                     System::Delay(kDebugDelayMs);
 479:WavPlayer.cpp ****                 }
 480:WavPlayer.cpp ****             }
 481:WavPlayer.cpp ****         }
 482:WavPlayer.cpp **** 
 483:WavPlayer.cpp ****         // ŌöĆŌöĆ Step 2: update per-column positions ŌöĆŌöĆŌöĆŌöĆŌöĆŌöĆŌöĆŌöĆŌöĆŌöĆŌöĆŌöĆŌöĆŌöĆŌöĆ
 484:WavPlayer.cpp **** 
 485:WavPlayer.cpp ****         for (int c = 0; c < NUM_COLS; c++) {
 486:WavPlayer.cpp ****             col_pos[c] = UpdatePosition(sensor_v[c], baseline[c], col_pos[c]);
 2074              		.loc 6 486 13 is_stmt 1 discriminator 2 view .LVU657
 2075              	.LBB666:
 2076              	.LBB667:
 189:WavPlayer.cpp **** 
 2077              		.loc 6 189 11 is_stmt 0 discriminator 2 view .LVU658
 2078 028c 9FED3A6A 		vldr.32	s12, .L81+84
 2079              	.LBE667:
 2080              	.LBE666:
 2081              		.loc 6 486 40 discriminator 2 view .LVU659
 2082 0290 2946     		mov	r1, r5
 2083 0292 B0EC015A 		vldmia.32	r0!, {s10}
 2084              	.LVL128:
 2085              	.LBB673:
 2086              	.LBI666:
 186:WavPlayer.cpp **** {
 2087              		.loc 6 186 14 is_stmt 1 discriminator 2 view .LVU660
 2088              	.LBB671:
 188:WavPlayer.cpp ****     float w_total = 0.0f;
 2089              		.loc 6 188 5 discriminator 2 view .LVU661
 189:WavPlayer.cpp **** 
 2090              		.loc 6 189 5 discriminator 2 view .LVU662
 191:WavPlayer.cpp ****         float dev = fabsf(voltages[r] - baselines[r]);
 2091              		.loc 6 191 5 discriminator 2 view .LVU663
 2092              	.LBB668:
 191:WavPlayer.cpp ****         float dev = fabsf(voltages[r] - baselines[r]);
 2093              		.loc 6 191 23 discriminator 2 view .LVU664
ARM GAS  /var/folders/th/s5djnwg15xxc0dk87c413f_h0000gn/T//ccCW3aXI.s 			page 71


 2094              	.LBE668:
 2095              	.LBE671:
 2096              	.LBE673:
 2097              		.loc 6 486 40 is_stmt 0 discriminator 2 view .LVU665
 2098 0296 3A46     		mov	r2, r7
 2099              	.LBB674:
 2100              	.LBB672:
 188:WavPlayer.cpp ****     float w_total = 0.0f;
 2101              		.loc 6 188 11 discriminator 2 view .LVU666
 2102 0298 F0EE465A 		vmov.f32	s11, s12
 2103              	.LBB670:
 191:WavPlayer.cpp ****         float dev = fabsf(voltages[r] - baselines[r]);
 2104              		.loc 6 191 14 discriminator 2 view .LVU667
 2105 029c 0023     		movs	r3, #0
 2106              	.LVL129:
 2107              	.L39:
 2108              	.LBB669:
 192:WavPlayer.cpp ****         if (dev > kNoiseFloor) {
 2109              		.loc 6 192 9 is_stmt 1 view .LVU668
 194:WavPlayer.cpp ****             w_total += dev;
 2110              		.loc 6 194 13 view .LVU669
 192:WavPlayer.cpp ****         if (dev > kNoiseFloor) {
 2111              		.loc 6 192 37 is_stmt 0 view .LVU670
 2112 029e F2EC017A 		vldmia.32	r2!, {s15}
 192:WavPlayer.cpp ****         if (dev > kNoiseFloor) {
 2113              		.loc 6 192 52 view .LVU671
 2114 02a2 F1EC016A 		vldmia.32	r1!, {s13}
 193:WavPlayer.cpp ****             w_sum   += static_cast<float>(r) * dev;
 2115              		.loc 6 193 9 view .LVU672
 2116 02a6 9FED3B7A 		vldr.32	s14, .L81+112
 192:WavPlayer.cpp ****         if (dev > kNoiseFloor) {
 2117              		.loc 6 192 39 view .LVU673
 2118 02aa 77EEE67A 		vsub.f32	s15, s15, s13
 192:WavPlayer.cpp ****         if (dev > kNoiseFloor) {
 2119              		.loc 6 192 15 view .LVU674
 2120 02ae F0EEE77A 		vabs.f32	s15, s15
 2121              	.LVL130:
 193:WavPlayer.cpp ****             w_sum   += static_cast<float>(r) * dev;
 2122              		.loc 6 193 9 is_stmt 1 view .LVU675
 2123 02b2 F4EEC77A 		vcmpe.f32	s15, s14
 2124 02b6 F1EE10FA 		vmrs	APSR_nzcv, FPSCR
 2125 02ba 07DD     		ble	.L37
 194:WavPlayer.cpp ****             w_total += dev;
 2126              		.loc 6 194 21 is_stmt 0 view .LVU676
 2127 02bc 07EE103A 		vmov	s14, r3	@ int
 195:WavPlayer.cpp ****         }
 2128              		.loc 6 195 21 view .LVU677
 2129 02c0 36EE276A 		vadd.f32	s12, s12, s15
 2130              	.LVL131:
 194:WavPlayer.cpp ****             w_total += dev;
 2131              		.loc 6 194 21 view .LVU678
 2132 02c4 B8EEC77A 		vcvt.f32.s32	s14, s14
 2133 02c8 E7EE875A 		vfma.f32	s11, s15, s14
 2134              	.LVL132:
 195:WavPlayer.cpp ****         }
 2135              		.loc 6 195 13 is_stmt 1 view .LVU679
 2136              	.L37:
ARM GAS  /var/folders/th/s5djnwg15xxc0dk87c413f_h0000gn/T//ccCW3aXI.s 			page 72


 195:WavPlayer.cpp ****         }
 2137              		.loc 6 195 13 is_stmt 0 view .LVU680
 2138              	.LBE669:
 191:WavPlayer.cpp ****         float dev = fabsf(voltages[r] - baselines[r]);
 2139              		.loc 6 191 5 is_stmt 1 view .LVU681
 2140 02cc 0133     		adds	r3, r3, #1
 2141              	.LVL133:
 191:WavPlayer.cpp ****         float dev = fabsf(voltages[r] - baselines[r]);
 2142              		.loc 6 191 23 view .LVU682
 2143 02ce 082B     		cmp	r3, #8
 2144 02d0 E5D1     		bne	.L39
 191:WavPlayer.cpp ****         float dev = fabsf(voltages[r] - baselines[r]);
 2145              		.loc 6 191 23 is_stmt 0 view .LVU683
 2146              	.LBE670:
 199:WavPlayer.cpp ****         return current_pos; // hold at ZERO_ROW when no sensor is active
 2147              		.loc 6 199 5 is_stmt 1 view .LVU684
 2148 02d2 DFED317A 		vldr.32	s15, .L81+116
 2149              	.LVL134:
 199:WavPlayer.cpp ****         return current_pos; // hold at ZERO_ROW when no sensor is active
 2150              		.loc 6 199 5 is_stmt 0 view .LVU685
 2151 02d6 B4EEE76A 		vcmpe.f32	s12, s15
 2152 02da F1EE10FA 		vmrs	APSR_nzcv, FPSCR
 2153 02de 0DD4     		bmi	.L40
 202:WavPlayer.cpp ****     return (fabsf(new_pos - current_pos) > kPosDead) ? new_pos : current_pos;
 2154              		.loc 6 202 5 is_stmt 1 view .LVU686
 202:WavPlayer.cpp ****     return (fabsf(new_pos - current_pos) > kPosDead) ? new_pos : current_pos;
 2155              		.loc 6 202 17 is_stmt 0 view .LVU687
 2156 02e0 85EE867A 		vdiv.f32	s14, s11, s12
 2157              	.LVL135:
 203:WavPlayer.cpp **** }
 2158              		.loc 6 203 5 is_stmt 1 view .LVU688
 203:WavPlayer.cpp **** }
 2159              		.loc 6 203 54 is_stmt 0 view .LVU689
 2160 02e4 DFED2D6A 		vldr.32	s13, .L81+120
 2161              	.LVL136:
 203:WavPlayer.cpp **** }
 2162              		.loc 6 203 27 view .LVU690
 2163 02e8 77EE457A 		vsub.f32	s15, s14, s10
 203:WavPlayer.cpp **** }
 2164              		.loc 6 203 18 view .LVU691
 2165 02ec F0EEE77A 		vabs.f32	s15, s15
 203:WavPlayer.cpp **** }
 2166              		.loc 6 203 54 view .LVU692
 2167 02f0 F4EE667A 		vcmp.f32	s15, s13
 2168 02f4 F1EE10FA 		vmrs	APSR_nzcv, FPSCR
 2169 02f8 37FE055A 		vselgt.f32	s10, s14, s10
 2170              	.LVL137:
 2171              	.L40:
 203:WavPlayer.cpp **** }
 2172              		.loc 6 203 54 view .LVU693
 2173              	.LBE672:
 2174              	.LBE674:
 487:WavPlayer.cpp ****             col_pos_smooth[c] += kSmooth * (col_pos[c] - col_pos_smooth[c]);
 2175              		.loc 6 487 31 view .LVU694
 2176 02fc D4ED007A 		vldr.32	s15, [r4]
 485:WavPlayer.cpp ****             col_pos[c] = UpdatePosition(sensor_v[c], baseline[c], col_pos[c]);
 2177              		.loc 6 485 27 view .LVU695
ARM GAS  /var/folders/th/s5djnwg15xxc0dk87c413f_h0000gn/T//ccCW3aXI.s 			page 73


 2178 0300 2037     		adds	r7, r7, #32
 486:WavPlayer.cpp ****             col_pos_smooth[c] += kSmooth * (col_pos[c] - col_pos_smooth[c]);
 2179              		.loc 6 486 24 view .LVU696
 2180 0302 00ED015A 		vstr.32	s10, [r0, #-4]
 2181              		.loc 6 487 13 is_stmt 1 view .LVU697
 485:WavPlayer.cpp ****             col_pos[c] = UpdatePosition(sensor_v[c], baseline[c], col_pos[c]);
 2182              		.loc 6 485 27 is_stmt 0 view .LVU698
 2183 0306 2035     		adds	r5, r5, #32
 2184              		.loc 6 487 56 view .LVU699
 2185 0308 35EE675A 		vsub.f32	s10, s10, s15
 485:WavPlayer.cpp ****             col_pos[c] = UpdatePosition(sensor_v[c], baseline[c], col_pos[c]);
 2186              		.loc 6 485 27 view .LVU700
 2187 030c 114B     		ldr	r3, .L81+48
 2188 030e 8342     		cmp	r3, r0
 2189              		.loc 6 487 31 view .LVU701
 2190 0310 35EE275A 		vadd.f32	s10, s10, s15
 2191 0314 A4EC015A 		vstmia.32	r4!, {s10}
 485:WavPlayer.cpp ****             col_pos[c] = UpdatePosition(sensor_v[c], baseline[c], col_pos[c]);
 2192              		.loc 6 485 9 is_stmt 1 view .LVU702
 485:WavPlayer.cpp ****             col_pos[c] = UpdatePosition(sensor_v[c], baseline[c], col_pos[c]);
 2193              		.loc 6 485 27 view .LVU703
 2194 0318 B8D1     		bne	.L41
 2195 031a 0EAA     		add	r2, sp, #56
 2196 031c 0A4B     		ldr	r3, .L81+36
 2197 031e 0799     		ldr	r1, [sp, #28]
 2198 0320 40E0     		b	.L82
 2199              	.L83:
 2200 0322 00BF     		.align	2
 2201              	.L81:
 2202 0324 00000000 		.word	.LANCHOR0
 2203 0328 00000000 		.word	.LANCHOR6
 2204 032c 00000000 		.word	.LANCHOR7
 2205 0330 00000000 		.word	.LANCHOR8
 2206 0334 08000000 		.word	.LANCHOR8+8
 2207 0338 00000000 		.word	.LC3
 2208 033c 00000000 		.word	.LANCHOR11
 2209 0340 00000000 		.word	.LANCHOR12
 2210 0344 18000000 		.word	.LANCHOR0+24
 2211 0348 00000000 		.word	.LANCHOR14
 2212 034c 00000000 		.word	.LANCHOR13
 2213 0350 00006040 		.word	1080033280
 2214 0354 20000000 		.word	.LANCHOR13+32
 2215 0358 00000000 		.word	.LANCHOR15
 2216 035c 00000000 		.word	_ZL9wavetable
 2217 0360 60000000 		.word	.LC4
 2218 0364 00000000 		.word	.LANCHOR9
 2219 0368 14000000 		.word	.LANCHOR9+20
 2220 036c 28000000 		.word	.LANCHOR9+40
 2221 0370 14000000 		.word	.LANCHOR11+20
 2222 0374 28000000 		.word	.LANCHOR11+40
 2223 0378 00000000 		.word	0
 2224 037c 33335340 		.word	1079194419
 2225 0380 0000803D 		.word	1031798784
 2226 0384 70000000 		.word	.LC5
 2227 0388 00000000 		.word	_ZL13AudioCallbackPKPKfPPfj
 2228 038c 84000000 		.word	.LC6
 2229 0390 00000000 		.word	.LANCHOR16
ARM GAS  /var/folders/th/s5djnwg15xxc0dk87c413f_h0000gn/T//ccCW3aXI.s 			page 74


 2230 0394 0AD7233D 		.word	1025758986
 2231 0398 5F708930 		.word	814313567
 2232 039c 0AD7233C 		.word	1008981770
 2233 03a0 00000000 		.word	.LANCHOR10
 2234              	.L82:
 2235              	.L42:
 2236              	.LBE665:
 2237              	.LBB675:
 488:WavPlayer.cpp ****         }
 489:WavPlayer.cpp **** 
 490:WavPlayer.cpp ****         // ŌöĆŌöĆ Step 3: build waveform control points ŌöĆŌöĆŌöĆŌöĆŌöĆŌöĆŌöĆŌöĆŌöĆŌöĆŌöĆŌöĆŌöĆŌöĆŌ
 491:WavPlayer.cpp **** 
 492:WavPlayer.cpp ****         float ctrl[CTRL_PTS];
 493:WavPlayer.cpp ****         for (int c = 0; c < NUM_COLS; c++)
 494:WavPlayer.cpp ****             ctrl[c] = PosToAmplitude(col_pos_smooth[c]);
 2238              		.loc 6 494 13 discriminator 2 view .LVU704
 2239              	.LBB676:
 2240              	.LBB677:
 223:WavPlayer.cpp **** }
 2241              		.loc 6 223 15 is_stmt 0 discriminator 2 view .LVU705
 2242 03a4 B0EE0C7A 		vmov.f32	s14, #3.5e+0
 2243              	.LBE677:
 2244              	.LBE676:
 2245              		.loc 6 494 37 discriminator 2 view .LVU706
 2246 03a8 F3EC017A 		vldmia.32	r3!, {s15}
 2247              	.LVL138:
 2248              	.LBB680:
 2249              	.LBI676:
 221:WavPlayer.cpp **** {
 2250              		.loc 6 221 14 is_stmt 1 discriminator 2 view .LVU707
 2251              	.LBB678:
 223:WavPlayer.cpp **** }
 2252              		.loc 6 223 5 discriminator 2 view .LVU708
 223:WavPlayer.cpp **** }
 2253              		.loc 6 223 5 is_stmt 0 discriminator 2 view .LVU709
 2254              	.LBE678:
 2255              	.LBE680:
 493:WavPlayer.cpp ****             ctrl[c] = PosToAmplitude(col_pos_smooth[c]);
 2256              		.loc 6 493 27 discriminator 2 view .LVU710
 2257 03ac 9942     		cmp	r1, r3
 2258              	.LBB681:
 2259              	.LBB679:
 223:WavPlayer.cpp **** }
 2260              		.loc 6 223 15 discriminator 2 view .LVU711
 2261 03ae 77EEC77A 		vsub.f32	s15, s15, s14
 223:WavPlayer.cpp **** }
 2262              		.loc 6 223 29 discriminator 2 view .LVU712
 2263 03b2 C7EE876A 		vdiv.f32	s13, s15, s14
 2264              	.LBE679:
 2265              	.LBE681:
 2266              		.loc 6 494 21 discriminator 2 view .LVU713
 2267 03b6 E2EC016A 		vstmia.32	r2!, {s13}
 493:WavPlayer.cpp ****             ctrl[c] = PosToAmplitude(col_pos_smooth[c]);
 2268              		.loc 6 493 9 is_stmt 1 discriminator 2 view .LVU714
 493:WavPlayer.cpp ****             ctrl[c] = PosToAmplitude(col_pos_smooth[c]);
 2269              		.loc 6 493 27 discriminator 2 view .LVU715
 2270 03ba F3D1     		bne	.L42
ARM GAS  /var/folders/th/s5djnwg15xxc0dk87c413f_h0000gn/T//ccCW3aXI.s 			page 75


 2271              	.LBE675:
 495:WavPlayer.cpp **** 
 496:WavPlayer.cpp ****         // ŌöĆŌöĆ Step 4: fill inactive buffer, signal pending swap ŌöĆŌöĆŌöĆŌöĆŌöĆŌöĆŌöĆŌöĆŌöĆŌöĆŌ
 497:WavPlayer.cpp **** 
 498:WavPlayer.cpp ****         const int next_buf = active_buf ^ 1;
 2272              		.loc 6 498 9 view .LVU716
 2273              		.loc 6 498 30 is_stmt 0 view .LVU717
 2274 03bc 8B4B     		ldr	r3, .L84
 2275 03be 17AA     		add	r2, sp, #92
 2276              	.LBB682:
 2277              	.LBB683:
 252:WavPlayer.cpp ****     m[CTRL_PTS-1] = s * (pts[CTRL_PTS-1] - pts[CTRL_PTS-2]);
 2278              		.loc 6 252 40 view .LVU718
 2279 03c0 9DED0E2A 		vldr.32	s4, [sp, #56]
 2280 03c4 14A9     		add	r1, sp, #80
 252:WavPlayer.cpp ****     m[CTRL_PTS-1] = s * (pts[CTRL_PTS-1] - pts[CTRL_PTS-2]);
 2281              		.loc 6 252 33 view .LVU719
 2282 03c6 DDED0F7A 		vldr.32	s15, [sp, #60]
 253:WavPlayer.cpp ****     for (int k = 1; k < CTRL_PTS - 1; k++)
 2283              		.loc 6 253 42 view .LVU720
 2284 03ca 9DED157A 		vldr.32	s14, [sp, #84]
 2285 03ce DDED146A 		vldr.32	s13, [sp, #80]
 252:WavPlayer.cpp ****     m[CTRL_PTS-1] = s * (pts[CTRL_PTS-1] - pts[CTRL_PTS-2]);
 2286              		.loc 6 252 33 view .LVU721
 2287 03d2 77EEC22A 		vsub.f32	s5, s15, s4
 2288              	.LBE683:
 2289              	.LBE682:
 2290              		.loc 6 498 30 view .LVU722
 2291 03d6 1C68     		ldr	r4, [r3]
 2292              	.LVL139:
 499:WavPlayer.cpp ****         BuildWavetable(wavetable[next_buf], ctrl);
 2293              		.loc 6 499 9 is_stmt 1 view .LVU723
 2294              	.LBB695:
 2295              	.LBB692:
 253:WavPlayer.cpp ****     for (int k = 1; k < CTRL_PTS - 1; k++)
 2296              		.loc 6 253 19 is_stmt 0 view .LVU724
 2297 03d8 F0EE427A 		vmov.f32	s15, s4
 253:WavPlayer.cpp ****     for (int k = 1; k < CTRL_PTS - 1; k++)
 2298              		.loc 6 253 42 view .LVU725
 2299 03dc 37EE667A 		vsub.f32	s14, s14, s13
 2300              	.LBE692:
 2301              	.LBE695:
 2302              		.loc 6 499 42 view .LVU726
 2303 03e0 834B     		ldr	r3, .L84+4
 498:WavPlayer.cpp ****         BuildWavetable(wavetable[next_buf], ctrl);
 2304              		.loc 6 498 43 view .LVU727
 2305 03e2 84F00104 		eor	r4, r4, #1
 2306              	.LVL140:
 2307              	.LBB696:
 2308              	.LBB693:
 252:WavPlayer.cpp ****     m[CTRL_PTS-1] = s * (pts[CTRL_PTS-1] - pts[CTRL_PTS-2]);
 2309              		.loc 6 252 19 view .LVU728
 2310 03e6 CDED162A 		vstr.32	s5, [sp, #88]
 2311              	.LBE693:
 2312              	.LBE696:
 2313              		.loc 6 499 42 view .LVU729
 2314 03ea 03EB4434 		add	r4, r3, r4, lsl #13
ARM GAS  /var/folders/th/s5djnwg15xxc0dk87c413f_h0000gn/T//ccCW3aXI.s 			page 76


 2315              	.LVL141:
 2316              	.LBB697:
 2317              	.LBI682:
 248:WavPlayer.cpp **** {
 2318              		.loc 6 248 13 is_stmt 1 view .LVU730
 2319              	.LBB694:
 250:WavPlayer.cpp ****     float m[CTRL_PTS];
 2320              		.loc 6 250 5 view .LVU731
 251:WavPlayer.cpp ****     m[0]          = s * (pts[1] - pts[0]);
 2321              		.loc 6 251 5 view .LVU732
 252:WavPlayer.cpp ****     m[CTRL_PTS-1] = s * (pts[CTRL_PTS-1] - pts[CTRL_PTS-2]);
 2322              		.loc 6 252 5 view .LVU733
 253:WavPlayer.cpp ****     for (int k = 1; k < CTRL_PTS - 1; k++)
 2323              		.loc 6 253 5 view .LVU734
 254:WavPlayer.cpp ****         m[k] = s * (pts[k+1] - pts[k-1]) * 0.5f;
 2324              		.loc 6 254 5 view .LVU735
 2325              	.LBB684:
 254:WavPlayer.cpp ****         m[k] = s * (pts[k+1] - pts[k-1]) * 0.5f;
 2326              		.loc 6 254 23 view .LVU736
 2327              	.LBE684:
 253:WavPlayer.cpp ****     for (int k = 1; k < CTRL_PTS - 1; k++)
 2328              		.loc 6 253 19 is_stmt 0 view .LVU737
 2329 03ee 8DED1D7A 		vstr.32	s14, [sp, #116]
 2330 03f2 0FAB     		add	r3, sp, #60
 2331 03f4 01E0     		b	.L45
 2332              	.LVL142:
 2333              	.L43:
 2334              	.LBB685:
 255:WavPlayer.cpp **** 
 2335              		.loc 6 255 39 view .LVU738
 2336 03f6 F3EC017A 		vldmia.32	r3!, {s15}
 2337              	.L45:
 255:WavPlayer.cpp **** 
 2338              		.loc 6 255 9 is_stmt 1 view .LVU739
 255:WavPlayer.cpp **** 
 2339              		.loc 6 255 30 is_stmt 0 view .LVU740
 2340 03fa 93ED017A 		vldr.32	s14, [r3, #4]
 255:WavPlayer.cpp **** 
 2341              		.loc 6 255 42 view .LVU741
 2342 03fe F6EE006A 		vmov.f32	s13, #5.0e-1
 254:WavPlayer.cpp ****         m[k] = s * (pts[k+1] - pts[k-1]) * 0.5f;
 2343              		.loc 6 254 23 view .LVU742
 2344 0402 9942     		cmp	r1, r3
 255:WavPlayer.cpp **** 
 2345              		.loc 6 255 30 view .LVU743
 2346 0404 77EE677A 		vsub.f32	s15, s14, s15
 255:WavPlayer.cpp **** 
 2347              		.loc 6 255 42 view .LVU744
 2348 0408 67EEA67A 		vmul.f32	s15, s15, s13
 255:WavPlayer.cpp **** 
 2349              		.loc 6 255 14 view .LVU745
 2350 040c E2EC017A 		vstmia.32	r2!, {s15}
 254:WavPlayer.cpp ****         m[k] = s * (pts[k+1] - pts[k-1]) * 0.5f;
 2351              		.loc 6 254 5 is_stmt 1 view .LVU746
 254:WavPlayer.cpp ****         m[k] = s * (pts[k+1] - pts[k-1]) * 0.5f;
 2352              		.loc 6 254 23 view .LVU747
 2353 0410 F1D1     		bne	.L43
ARM GAS  /var/folders/th/s5djnwg15xxc0dk87c413f_h0000gn/T//ccCW3aXI.s 			page 77


 2354 0412 DFED787A 		vldr.32	s15, .L84+8
 2355              	.LBE685:
 2356              	.LBB686:
 257:WavPlayer.cpp ****         const float tau = static_cast<float>(i) / static_cast<float>(WAVETABLE_SIZE);
 2357              		.loc 6 257 14 is_stmt 0 view .LVU748
 2358 0416 0022     		movs	r2, #0
 2359              	.LBE686:
 2360              	.LBB690:
 254:WavPlayer.cpp ****         m[k] = s * (pts[k+1] - pts[k-1]) * 0.5f;
 2361              		.loc 6 254 23 view .LVU749
 2362 0418 2146     		mov	r1, r4
 2363 041a 14E0     		b	.L44
 2364              	.LVL143:
 2365              	.L77:
 254:WavPlayer.cpp ****         m[k] = s * (pts[k+1] - pts[k-1]) * 0.5f;
 2366              		.loc 6 254 23 view .LVU750
 2367              	.LBE690:
 2368              	.LBB691:
 2369              	.LBB687:
 258:WavPlayer.cpp ****         const float ts  = tau * static_cast<float>(CTRL_PTS - 1);
 2370              		.loc 6 258 27 view .LVU751
 2371 041c 07EE902A 		vmov	s15, r2	@ int
 2372 0420 F8EEE77A 		vcvt.f32.s32	s15, s15
 258:WavPlayer.cpp ****         const float ts  = tau * static_cast<float>(CTRL_PTS - 1);
 2373              		.loc 6 258 21 view .LVU752
 2374 0424 27EE877A 		vmul.f32	s14, s15, s14
 259:WavPlayer.cpp **** 
 2375              		.loc 6 259 21 view .LVU753
 2376 0428 27EE037A 		vmul.f32	s14, s14, s6
 261:WavPlayer.cpp ****         if (seg >= CTRL_PTS - 1) seg = CTRL_PTS - 2;
 2377              		.loc 6 261 21 view .LVU754
 2378 042c BDEEC77A 		vcvt.s32.f32	s14, s14
 2379 0430 17EE103A 		vmov	r3, s14	@ int
 2380 0434 062B     		cmp	r3, #6
 2381 0436 A8BF     		it	ge
 2382 0438 0623     		movge	r3, #6
 272:WavPlayer.cpp ****                 + h10 * m[seg]
 2383              		.loc 6 272 32 view .LVU755
 2384 043a 00EB8303 		add	r3, r0, r3, lsl #2
 2385 043e 13ED102A 		vldr.32	s4, [r3, #-64]
 273:WavPlayer.cpp ****                 + h01 * pts[seg + 1]
 2386              		.loc 6 273 30 view .LVU756
 2387 0442 53ED082A 		vldr.32	s5, [r3, #-32]
 2388              	.LVL144:
 2389              	.L44:
 258:WavPlayer.cpp ****         const float ts  = tau * static_cast<float>(CTRL_PTS - 1);
 2390              		.loc 6 258 9 is_stmt 1 view .LVU757
 259:WavPlayer.cpp **** 
 2391              		.loc 6 259 9 view .LVU758
 258:WavPlayer.cpp ****         const float ts  = tau * static_cast<float>(CTRL_PTS - 1);
 2392              		.loc 6 258 21 is_stmt 0 view .LVU759
 2393 0446 9FED6C7A 		vldr.32	s14, .L84+12
 259:WavPlayer.cpp **** 
 2394              		.loc 6 259 21 view .LVU760
 2395 044a B1EE0C3A 		vmov.f32	s6, #7.0e+0
 267:WavPlayer.cpp ****         const float h10 =      t3 - 2.f*t2 + t;
 2396              		.loc 6 267 40 view .LVU761
ARM GAS  /var/folders/th/s5djnwg15xxc0dk87c413f_h0000gn/T//ccCW3aXI.s 			page 78


 2397 044e B0EE086A 		vmov.f32	s12, #3.0e+0
 274:WavPlayer.cpp ****                 + h11 * m[seg + 1];
 2398              		.loc 6 274 36 view .LVU762
 2399 0452 1EA8     		add	r0, sp, #120
 258:WavPlayer.cpp ****         const float ts  = tau * static_cast<float>(CTRL_PTS - 1);
 2400              		.loc 6 258 21 view .LVU763
 2401 0454 67EE877A 		vmul.f32	s15, s15, s14
 2402              	.LBE687:
 257:WavPlayer.cpp ****         const float tau = static_cast<float>(i) / static_cast<float>(WAVETABLE_SIZE);
 2403              		.loc 6 257 5 view .LVU764
 2404 0458 0132     		adds	r2, r2, #1
 2405              	.LVL145:
 2406              	.LBB688:
 267:WavPlayer.cpp ****         const float h10 =      t3 - 2.f*t2 + t;
 2407              		.loc 6 267 35 view .LVU765
 2408 045a F0EE003A 		vmov.f32	s7, #2.0e+0
 267:WavPlayer.cpp ****         const float h10 =      t3 - 2.f*t2 + t;
 2409              		.loc 6 267 21 view .LVU766
 2410 045e B7EE004A 		vmov.f32	s8, #1.0e+0
 259:WavPlayer.cpp **** 
 2411              		.loc 6 259 21 view .LVU767
 2412 0462 67EE837A 		vmul.f32	s15, s15, s6
 2413              	.LVL146:
 261:WavPlayer.cpp ****         if (seg >= CTRL_PTS - 1) seg = CTRL_PTS - 2;
 2414              		.loc 6 261 9 is_stmt 1 view .LVU768
 269:WavPlayer.cpp ****         const float h11 =      t3 -     t2;
 2415              		.loc 6 269 21 is_stmt 0 view .LVU769
 2416 0466 B8EE000A 		vmov.f32	s0, #-2.0e+0
 277:WavPlayer.cpp ****     }
 2417              		.loc 6 277 25 view .LVU770
 2418 046a BFEE005A 		vmov.f32	s10, #-1.0e+0
 261:WavPlayer.cpp ****         if (seg >= CTRL_PTS - 1) seg = CTRL_PTS - 2;
 2419              		.loc 6 261 21 view .LVU771
 2420 046e FDEEE76A 		vcvt.s32.f32	s13, s15
 2421 0472 16EE903A 		vmov	r3, s13	@ int
 2422              	.LVL147:
 262:WavPlayer.cpp ****         const float t   = ts - static_cast<float>(seg);
 2423              		.loc 6 262 9 is_stmt 1 view .LVU772
 2424 0476 062B     		cmp	r3, #6
 2425 0478 A8BF     		it	ge
 2426 047a 0623     		movge	r3, #6
 2427              	.LVL148:
 263:WavPlayer.cpp ****         const float t2  = t * t;
 2428              		.loc 6 263 9 view .LVU773
 2429              	.LBE688:
 257:WavPlayer.cpp ****         const float tau = static_cast<float>(i) / static_cast<float>(WAVETABLE_SIZE);
 2430              		.loc 6 257 23 is_stmt 0 view .LVU774
 2431 047c B2F5006F 		cmp	r2, #2048
 2432              	.LBB689:
 263:WavPlayer.cpp ****         const float t2  = t * t;
 2433              		.loc 6 263 32 view .LVU775
 2434 0480 06EE903A 		vmov	s13, r3	@ int
 274:WavPlayer.cpp ****                 + h11 * m[seg + 1];
 2435              		.loc 6 274 36 view .LVU776
 2436 0484 03F10103 		add	r3, r3, #1
 2437              	.LVL149:
 263:WavPlayer.cpp ****         const float t2  = t * t;
ARM GAS  /var/folders/th/s5djnwg15xxc0dk87c413f_h0000gn/T//ccCW3aXI.s 			page 79


 2438              		.loc 6 263 32 view .LVU777
 2439 0488 F8EEE66A 		vcvt.f32.s32	s13, s13
 2440              	.LVL150:
 274:WavPlayer.cpp ****                 + h11 * m[seg + 1];
 2441              		.loc 6 274 36 view .LVU778
 2442 048c 00EB8303 		add	r3, r0, r3, lsl #2
 2443              	.LVL151:
 274:WavPlayer.cpp ****                 + h11 * m[seg + 1];
 2444              		.loc 6 274 17 view .LVU779
 2445 0490 13ED101A 		vldr.32	s2, [r3, #-64]
 263:WavPlayer.cpp ****         const float t2  = t * t;
 2446              		.loc 6 263 21 view .LVU780
 2447 0494 77EEE67A 		vsub.f32	s15, s15, s13
 2448              	.LVL152:
 264:WavPlayer.cpp ****         const float t3  = t2 * t;
 2449              		.loc 6 264 9 is_stmt 1 view .LVU781
 272:WavPlayer.cpp ****                 + h10 * m[seg]
 2450              		.loc 6 272 15 is_stmt 0 view .LVU782
 2451 0498 53ED081A 		vldr.32	s3, [r3, #-32]
 264:WavPlayer.cpp ****         const float t3  = t2 * t;
 2452              		.loc 6 264 21 view .LVU783
 2453 049c 67EEA75A 		vmul.f32	s11, s15, s15
 2454              	.LVL153:
 265:WavPlayer.cpp **** 
 2455              		.loc 6 265 9 is_stmt 1 view .LVU784
 265:WavPlayer.cpp **** 
 2456              		.loc 6 265 21 is_stmt 0 view .LVU785
 2457 04a0 67EEA56A 		vmul.f32	s13, s15, s11
 2458              	.LVL154:
 267:WavPlayer.cpp ****         const float h10 =      t3 - 2.f*t2 + t;
 2459              		.loc 6 267 9 is_stmt 1 view .LVU786
 267:WavPlayer.cpp ****         const float h10 =      t3 - 2.f*t2 + t;
 2460              		.loc 6 267 40 is_stmt 0 view .LVU787
 2461 04a4 25EE866A 		vmul.f32	s12, s11, s12
 268:WavPlayer.cpp ****         const float h01 = -2.f*t3 + 3.f*t2;
 2462              		.loc 6 268 35 view .LVU788
 2463 04a8 F0EE660A 		vmov.f32	s1, s13
 267:WavPlayer.cpp ****         const float h10 =      t3 - 2.f*t2 + t;
 2464              		.loc 6 267 35 view .LVU789
 2465 04ac F0EE464A 		vmov.f32	s9, s12
 269:WavPlayer.cpp ****         const float h11 =      t3 -     t2;
 2466              		.loc 6 269 21 view .LVU790
 2467 04b0 A6EE806A 		vfma.f32	s12, s13, s0
 268:WavPlayer.cpp ****         const float h01 = -2.f*t3 + 3.f*t2;
 2468              		.loc 6 268 35 view .LVU791
 2469 04b4 E5EEE30A 		vfms.f32	s1, s11, s7
 267:WavPlayer.cpp ****         const float h10 =      t3 - 2.f*t2 + t;
 2470              		.loc 6 267 35 view .LVU792
 2471 04b8 D6EEA34A 		vfnms.f32	s9, s13, s7
 2472              	.LVL155:
 268:WavPlayer.cpp ****         const float h01 = -2.f*t3 + 3.f*t2;
 2473              		.loc 6 268 9 is_stmt 1 view .LVU793
 270:WavPlayer.cpp **** 
 2474              		.loc 6 270 21 is_stmt 0 view .LVU794
 2475 04bc 76EEE56A 		vsub.f32	s13, s13, s11
 2476              	.LVL156:
 268:WavPlayer.cpp ****         const float h01 = -2.f*t3 + 3.f*t2;
ARM GAS  /var/folders/th/s5djnwg15xxc0dk87c413f_h0000gn/T//ccCW3aXI.s 			page 80


 2477              		.loc 6 268 21 view .LVU795
 2478 04c0 77EEA07A 		vadd.f32	s15, s15, s1
 2479              	.LVL157:
 269:WavPlayer.cpp ****         const float h11 =      t3 -     t2;
 2480              		.loc 6 269 9 is_stmt 1 view .LVU796
 270:WavPlayer.cpp **** 
 2481              		.loc 6 270 9 view .LVU797
 272:WavPlayer.cpp ****                 + h10 * m[seg]
 2482              		.loc 6 272 9 view .LVU798
 267:WavPlayer.cpp ****         const float h10 =      t3 - 2.f*t2 + t;
 2483              		.loc 6 267 21 is_stmt 0 view .LVU799
 2484 04c4 74EE845A 		vadd.f32	s11, s9, s8
 2485              	.LVL158:
 273:WavPlayer.cpp ****                 + h01 * pts[seg + 1]
 2486              		.loc 6 273 23 view .LVU800
 2487 04c8 67EEA27A 		vmul.f32	s15, s15, s5
 2488              	.LVL159:
 273:WavPlayer.cpp ****                 + h01 * pts[seg + 1]
 2489              		.loc 6 273 17 view .LVU801
 2490 04cc E5EE827A 		vfma.f32	s15, s11, s4
 274:WavPlayer.cpp ****                 + h11 * m[seg + 1];
 2491              		.loc 6 274 17 view .LVU802
 2492 04d0 E6EE017A 		vfma.f32	s15, s12, s2
 272:WavPlayer.cpp ****                 + h10 * m[seg]
 2493              		.loc 6 272 15 view .LVU803
 2494 04d4 E6EEA17A 		vfma.f32	s15, s13, s3
 2495              	.LVL160:
 277:WavPlayer.cpp ****     }
 2496              		.loc 6 277 9 is_stmt 1 view .LVU804
 277:WavPlayer.cpp ****     }
 2497              		.loc 6 277 25 is_stmt 0 view .LVU805
 2498 04d8 C7FEC47A 		vminnm.f32	s15, s15, s8
 2499              	.LVL161:
 277:WavPlayer.cpp ****     }
 2500              		.loc 6 277 25 view .LVU806
 2501 04dc C5FE277A 		vmaxnm.f32	s15, s10, s15
 277:WavPlayer.cpp ****     }
 2502              		.loc 6 277 18 view .LVU807
 2503 04e0 E1EC017A 		vstmia.32	r1!, {s15}
 2504              	.LBE689:
 257:WavPlayer.cpp ****         const float tau = static_cast<float>(i) / static_cast<float>(WAVETABLE_SIZE);
 2505              		.loc 6 257 5 is_stmt 1 view .LVU808
 2506              	.LVL162:
 257:WavPlayer.cpp ****         const float tau = static_cast<float>(i) / static_cast<float>(WAVETABLE_SIZE);
 2507              		.loc 6 257 23 view .LVU809
 2508 04e4 9AD1     		bne	.L77
 2509              	.LVL163:
 257:WavPlayer.cpp ****         const float tau = static_cast<float>(i) / static_cast<float>(WAVETABLE_SIZE);
 2510              		.loc 6 257 23 is_stmt 0 view .LVU810
 2511              	.LBE691:
 2512              	.LBE694:
 2513              	.LBE697:
 500:WavPlayer.cpp ****         buf_pending = true;
 2514              		.loc 6 500 9 is_stmt 1 view .LVU811
 2515              		.loc 6 500 21 is_stmt 0 view .LVU812
 2516 04e6 0123     		movs	r3, #1
 2517 04e8 444A     		ldr	r2, .L84+16
ARM GAS  /var/folders/th/s5djnwg15xxc0dk87c413f_h0000gn/T//ccCW3aXI.s 			page 81


 2518              	.LBB698:
 2519              	.LBB699:
 2520              	.LBB700:
 366:../../libDaisy/src/dev/oled_ssd130x.h ****         }
 2521              		.loc 7 366 24 view .LVU813
 2522 04ea 0021     		movs	r1, #0
 2523 04ec 4448     		ldr	r0, .L84+20
 2524              	.LBE700:
 2525              	.LBE699:
 2526              	.LBE698:
 2527              		.loc 6 500 21 view .LVU814
 2528 04ee 1370     		strb	r3, [r2]
 501:WavPlayer.cpp **** 
 502:WavPlayer.cpp ****         // Logging positions if kDebugStep is enabled
 503:WavPlayer.cpp ****         if (kDebugStep) {
 2529              		.loc 6 503 9 is_stmt 1 view .LVU815
 504:WavPlayer.cpp ****             hw.Print("Positions: ");
 505:WavPlayer.cpp ****             for (int c = 0; c < NUM_COLS; c++)
 506:WavPlayer.cpp ****                 hw.Print("%c%d.%02d ",
 507:WavPlayer.cpp ****                     col_pos_smooth[c] < 0 ? '-' : ' ',
 508:WavPlayer.cpp ****                     (int)fabsf(col_pos_smooth[c]),
 509:WavPlayer.cpp ****                     (int)(fabsf(col_pos_smooth[c]) * 100) % 100);
 510:WavPlayer.cpp ****             hw.PrintLine("");
 511:WavPlayer.cpp ****             System::Delay(kDebugDelayMs);
 512:WavPlayer.cpp ****         }
 513:WavPlayer.cpp **** 
 514:WavPlayer.cpp ****         // Displaying positions if kDebugDisplay is enabled and the display initialized successfull
 515:WavPlayer.cpp ****         if (kDebugDisplay) {
 2530              		.loc 6 515 9 view .LVU816
 2531              	.LVL164:
 2532              	.LBB745:
 2533              	.LBB702:
 2534              	.LBB701:
 364:../../libDaisy/src/dev/oled_ssd130x.h ****         {
 2535              		.loc 7 364 29 view .LVU817
 366:../../libDaisy/src/dev/oled_ssd130x.h ****         }
 2536              		.loc 7 366 24 is_stmt 0 view .LVU818
 2537 04f0 4FF48062 		mov	r2, #1024
 2538 04f4 FFF7FEFF 		bl	memset
 2539              	.LVL165:
 366:../../libDaisy/src/dev/oled_ssd130x.h ****         }
 2540              		.loc 7 366 24 view .LVU819
 2541              	.LBE701:
 2542              	.LBE702:
 2543              	.LBB703:
 516:WavPlayer.cpp ****             display.Fill(false); // Clear display
 517:WavPlayer.cpp ****             int w_inc = WAVETABLE_SIZE / static_cast<int>(DISPLAY_WIDTH);
 518:WavPlayer.cpp ****             float DISPLAY_HEIGHT_ADJ = static_cast<float>(DISPLAY_HEIGHT) - 1.0f; // Adjust for zer
 519:WavPlayer.cpp ****             for (size_t x = 0; x < DISPLAY_WIDTH; x++) { // Draw pixels scaled to the display resol
 2544              		.loc 6 519 25 view .LVU820
 2545 04f8 0023     		movs	r3, #0
 2546 04fa 12E0     		b	.L51
 2547              	.LVL166:
 2548              	.L80:
 2549              	.LBB704:
 2550              	.LBB705:
 2551              	.LBB706:
ARM GAS  /var/folders/th/s5djnwg15xxc0dk87c413f_h0000gn/T//ccCW3aXI.s 			page 82


 2552              		.file 8 "/Library/DaisyToolchain/0.2.0/arm/arm-none-eabi/include/c++/10.3.1/bits/stl_algo.h"
   1:/Library/DaisyToolchain/0.2.0/arm/arm-none-eabi/include/c++/10.3.1/bits/stl_algo.h **** // Algorithm implementation -*- C++ -*-
   2:/Library/DaisyToolchain/0.2.0/arm/arm-none-eabi/include/c++/10.3.1/bits/stl_algo.h **** 
   3:/Library/DaisyToolchain/0.2.0/arm/arm-none-eabi/include/c++/10.3.1/bits/stl_algo.h **** // Copyright (C) 2001-2020 Free Software Foundation, Inc.
   4:/Library/DaisyToolchain/0.2.0/arm/arm-none-eabi/include/c++/10.3.1/bits/stl_algo.h **** //
   5:/Library/DaisyToolchain/0.2.0/arm/arm-none-eabi/include/c++/10.3.1/bits/stl_algo.h **** // This file is part of the GNU ISO C++ Library.  This library is free
   6:/Library/DaisyToolchain/0.2.0/arm/arm-none-eabi/include/c++/10.3.1/bits/stl_algo.h **** // software; you can redistribute it and/or modify it under the
   7:/Library/DaisyToolchain/0.2.0/arm/arm-none-eabi/include/c++/10.3.1/bits/stl_algo.h **** // terms of the GNU General Public License as published by the
   8:/Library/DaisyToolchain/0.2.0/arm/arm-none-eabi/include/c++/10.3.1/bits/stl_algo.h **** // Free Software Foundation; either version 3, or (at your option)
   9:/Library/DaisyToolchain/0.2.0/arm/arm-none-eabi/include/c++/10.3.1/bits/stl_algo.h **** // any later version.
  10:/Library/DaisyToolchain/0.2.0/arm/arm-none-eabi/include/c++/10.3.1/bits/stl_algo.h **** 
  11:/Library/DaisyToolchain/0.2.0/arm/arm-none-eabi/include/c++/10.3.1/bits/stl_algo.h **** // This library is distributed in the hope that it will be useful,
  12:/Library/DaisyToolchain/0.2.0/arm/arm-none-eabi/include/c++/10.3.1/bits/stl_algo.h **** // but WITHOUT ANY WARRANTY; without even the implied warranty of
  13:/Library/DaisyToolchain/0.2.0/arm/arm-none-eabi/include/c++/10.3.1/bits/stl_algo.h **** // MERCHANTABILITY or FITNESS FOR A PARTICULAR PURPOSE.  See the
  14:/Library/DaisyToolchain/0.2.0/arm/arm-none-eabi/include/c++/10.3.1/bits/stl_algo.h **** // GNU General Public License for more details.
  15:/Library/DaisyToolchain/0.2.0/arm/arm-none-eabi/include/c++/10.3.1/bits/stl_algo.h **** 
  16:/Library/DaisyToolchain/0.2.0/arm/arm-none-eabi/include/c++/10.3.1/bits/stl_algo.h **** // Under Section 7 of GPL version 3, you are granted additional
  17:/Library/DaisyToolchain/0.2.0/arm/arm-none-eabi/include/c++/10.3.1/bits/stl_algo.h **** // permissions described in the GCC Runtime Library Exception, version
  18:/Library/DaisyToolchain/0.2.0/arm/arm-none-eabi/include/c++/10.3.1/bits/stl_algo.h **** // 3.1, as published by the Free Software Foundation.
  19:/Library/DaisyToolchain/0.2.0/arm/arm-none-eabi/include/c++/10.3.1/bits/stl_algo.h **** 
  20:/Library/DaisyToolchain/0.2.0/arm/arm-none-eabi/include/c++/10.3.1/bits/stl_algo.h **** // You should have received a copy of the GNU General Public License and
  21:/Library/DaisyToolchain/0.2.0/arm/arm-none-eabi/include/c++/10.3.1/bits/stl_algo.h **** // a copy of the GCC Runtime Library Exception along with this program;
  22:/Library/DaisyToolchain/0.2.0/arm/arm-none-eabi/include/c++/10.3.1/bits/stl_algo.h **** // see the files COPYING3 and COPYING.RUNTIME respectively.  If not, see
  23:/Library/DaisyToolchain/0.2.0/arm/arm-none-eabi/include/c++/10.3.1/bits/stl_algo.h **** // <http://www.gnu.org/licenses/>.
  24:/Library/DaisyToolchain/0.2.0/arm/arm-none-eabi/include/c++/10.3.1/bits/stl_algo.h **** 
  25:/Library/DaisyToolchain/0.2.0/arm/arm-none-eabi/include/c++/10.3.1/bits/stl_algo.h **** /*
  26:/Library/DaisyToolchain/0.2.0/arm/arm-none-eabi/include/c++/10.3.1/bits/stl_algo.h ****  *
  27:/Library/DaisyToolchain/0.2.0/arm/arm-none-eabi/include/c++/10.3.1/bits/stl_algo.h ****  * Copyright (c) 1994
  28:/Library/DaisyToolchain/0.2.0/arm/arm-none-eabi/include/c++/10.3.1/bits/stl_algo.h ****  * Hewlett-Packard Company
  29:/Library/DaisyToolchain/0.2.0/arm/arm-none-eabi/include/c++/10.3.1/bits/stl_algo.h ****  *
  30:/Library/DaisyToolchain/0.2.0/arm/arm-none-eabi/include/c++/10.3.1/bits/stl_algo.h ****  * Permission to use, copy, modify, distribute and sell this software
  31:/Library/DaisyToolchain/0.2.0/arm/arm-none-eabi/include/c++/10.3.1/bits/stl_algo.h ****  * and its documentation for any purpose is hereby granted without fee,
  32:/Library/DaisyToolchain/0.2.0/arm/arm-none-eabi/include/c++/10.3.1/bits/stl_algo.h ****  * provided that the above copyright notice appear in all copies and
  33:/Library/DaisyToolchain/0.2.0/arm/arm-none-eabi/include/c++/10.3.1/bits/stl_algo.h ****  * that both that copyright notice and this permission notice appear
  34:/Library/DaisyToolchain/0.2.0/arm/arm-none-eabi/include/c++/10.3.1/bits/stl_algo.h ****  * in supporting documentation.  Hewlett-Packard Company makes no
  35:/Library/DaisyToolchain/0.2.0/arm/arm-none-eabi/include/c++/10.3.1/bits/stl_algo.h ****  * representations about the suitability of this software for any
  36:/Library/DaisyToolchain/0.2.0/arm/arm-none-eabi/include/c++/10.3.1/bits/stl_algo.h ****  * purpose.  It is provided "as is" without express or implied warranty.
  37:/Library/DaisyToolchain/0.2.0/arm/arm-none-eabi/include/c++/10.3.1/bits/stl_algo.h ****  *
  38:/Library/DaisyToolchain/0.2.0/arm/arm-none-eabi/include/c++/10.3.1/bits/stl_algo.h ****  *
  39:/Library/DaisyToolchain/0.2.0/arm/arm-none-eabi/include/c++/10.3.1/bits/stl_algo.h ****  * Copyright (c) 1996
  40:/Library/DaisyToolchain/0.2.0/arm/arm-none-eabi/include/c++/10.3.1/bits/stl_algo.h ****  * Silicon Graphics Computer Systems, Inc.
  41:/Library/DaisyToolchain/0.2.0/arm/arm-none-eabi/include/c++/10.3.1/bits/stl_algo.h ****  *
  42:/Library/DaisyToolchain/0.2.0/arm/arm-none-eabi/include/c++/10.3.1/bits/stl_algo.h ****  * Permission to use, copy, modify, distribute and sell this software
  43:/Library/DaisyToolchain/0.2.0/arm/arm-none-eabi/include/c++/10.3.1/bits/stl_algo.h ****  * and its documentation for any purpose is hereby granted without fee,
  44:/Library/DaisyToolchain/0.2.0/arm/arm-none-eabi/include/c++/10.3.1/bits/stl_algo.h ****  * provided that the above copyright notice appear in all copies and
  45:/Library/DaisyToolchain/0.2.0/arm/arm-none-eabi/include/c++/10.3.1/bits/stl_algo.h ****  * that both that copyright notice and this permission notice appear
  46:/Library/DaisyToolchain/0.2.0/arm/arm-none-eabi/include/c++/10.3.1/bits/stl_algo.h ****  * in supporting documentation.  Silicon Graphics makes no
  47:/Library/DaisyToolchain/0.2.0/arm/arm-none-eabi/include/c++/10.3.1/bits/stl_algo.h ****  * representations about the suitability of this software for any
  48:/Library/DaisyToolchain/0.2.0/arm/arm-none-eabi/include/c++/10.3.1/bits/stl_algo.h ****  * purpose.  It is provided "as is" without express or implied warranty.
  49:/Library/DaisyToolchain/0.2.0/arm/arm-none-eabi/include/c++/10.3.1/bits/stl_algo.h ****  */
  50:/Library/DaisyToolchain/0.2.0/arm/arm-none-eabi/include/c++/10.3.1/bits/stl_algo.h **** 
  51:/Library/DaisyToolchain/0.2.0/arm/arm-none-eabi/include/c++/10.3.1/bits/stl_algo.h **** /** @file bits/stl_algo.h
  52:/Library/DaisyToolchain/0.2.0/arm/arm-none-eabi/include/c++/10.3.1/bits/stl_algo.h ****  *  This is an internal header file, included by other library headers.
  53:/Library/DaisyToolchain/0.2.0/arm/arm-none-eabi/include/c++/10.3.1/bits/stl_algo.h ****  *  Do not attempt to use it directly. @headername{algorithm}
  54:/Library/DaisyToolchain/0.2.0/arm/arm-none-eabi/include/c++/10.3.1/bits/stl_algo.h ****  */
  55:/Library/DaisyToolchain/0.2.0/arm/arm-none-eabi/include/c++/10.3.1/bits/stl_algo.h **** 
  56:/Library/DaisyToolchain/0.2.0/arm/arm-none-eabi/include/c++/10.3.1/bits/stl_algo.h **** #ifndef _STL_ALGO_H
ARM GAS  /var/folders/th/s5djnwg15xxc0dk87c413f_h0000gn/T//ccCW3aXI.s 			page 83


  57:/Library/DaisyToolchain/0.2.0/arm/arm-none-eabi/include/c++/10.3.1/bits/stl_algo.h **** #define _STL_ALGO_H 1
  58:/Library/DaisyToolchain/0.2.0/arm/arm-none-eabi/include/c++/10.3.1/bits/stl_algo.h **** 
  59:/Library/DaisyToolchain/0.2.0/arm/arm-none-eabi/include/c++/10.3.1/bits/stl_algo.h **** #include <cstdlib>	     // for rand
  60:/Library/DaisyToolchain/0.2.0/arm/arm-none-eabi/include/c++/10.3.1/bits/stl_algo.h **** #include <bits/algorithmfwd.h>
  61:/Library/DaisyToolchain/0.2.0/arm/arm-none-eabi/include/c++/10.3.1/bits/stl_algo.h **** #include <bits/stl_heap.h>
  62:/Library/DaisyToolchain/0.2.0/arm/arm-none-eabi/include/c++/10.3.1/bits/stl_algo.h **** #include <bits/stl_tempbuf.h>  // for _Temporary_buffer
  63:/Library/DaisyToolchain/0.2.0/arm/arm-none-eabi/include/c++/10.3.1/bits/stl_algo.h **** #include <bits/predefined_ops.h>
  64:/Library/DaisyToolchain/0.2.0/arm/arm-none-eabi/include/c++/10.3.1/bits/stl_algo.h **** 
  65:/Library/DaisyToolchain/0.2.0/arm/arm-none-eabi/include/c++/10.3.1/bits/stl_algo.h **** #if __cplusplus >= 201103L
  66:/Library/DaisyToolchain/0.2.0/arm/arm-none-eabi/include/c++/10.3.1/bits/stl_algo.h **** #include <bits/uniform_int_dist.h>
  67:/Library/DaisyToolchain/0.2.0/arm/arm-none-eabi/include/c++/10.3.1/bits/stl_algo.h **** #endif
  68:/Library/DaisyToolchain/0.2.0/arm/arm-none-eabi/include/c++/10.3.1/bits/stl_algo.h **** 
  69:/Library/DaisyToolchain/0.2.0/arm/arm-none-eabi/include/c++/10.3.1/bits/stl_algo.h **** // See concept_check.h for the __glibcxx_*_requires macros.
  70:/Library/DaisyToolchain/0.2.0/arm/arm-none-eabi/include/c++/10.3.1/bits/stl_algo.h **** 
  71:/Library/DaisyToolchain/0.2.0/arm/arm-none-eabi/include/c++/10.3.1/bits/stl_algo.h **** namespace std _GLIBCXX_VISIBILITY(default)
  72:/Library/DaisyToolchain/0.2.0/arm/arm-none-eabi/include/c++/10.3.1/bits/stl_algo.h **** {
  73:/Library/DaisyToolchain/0.2.0/arm/arm-none-eabi/include/c++/10.3.1/bits/stl_algo.h **** _GLIBCXX_BEGIN_NAMESPACE_VERSION
  74:/Library/DaisyToolchain/0.2.0/arm/arm-none-eabi/include/c++/10.3.1/bits/stl_algo.h **** 
  75:/Library/DaisyToolchain/0.2.0/arm/arm-none-eabi/include/c++/10.3.1/bits/stl_algo.h ****   /// Swaps the median value of *__a, *__b and *__c under __comp to *__result
  76:/Library/DaisyToolchain/0.2.0/arm/arm-none-eabi/include/c++/10.3.1/bits/stl_algo.h ****   template<typename _Iterator, typename _Compare>
  77:/Library/DaisyToolchain/0.2.0/arm/arm-none-eabi/include/c++/10.3.1/bits/stl_algo.h ****     _GLIBCXX20_CONSTEXPR
  78:/Library/DaisyToolchain/0.2.0/arm/arm-none-eabi/include/c++/10.3.1/bits/stl_algo.h ****     void
  79:/Library/DaisyToolchain/0.2.0/arm/arm-none-eabi/include/c++/10.3.1/bits/stl_algo.h ****     __move_median_to_first(_Iterator __result,_Iterator __a, _Iterator __b,
  80:/Library/DaisyToolchain/0.2.0/arm/arm-none-eabi/include/c++/10.3.1/bits/stl_algo.h **** 			   _Iterator __c, _Compare __comp)
  81:/Library/DaisyToolchain/0.2.0/arm/arm-none-eabi/include/c++/10.3.1/bits/stl_algo.h ****     {
  82:/Library/DaisyToolchain/0.2.0/arm/arm-none-eabi/include/c++/10.3.1/bits/stl_algo.h ****       if (__comp(__a, __b))
  83:/Library/DaisyToolchain/0.2.0/arm/arm-none-eabi/include/c++/10.3.1/bits/stl_algo.h **** 	{
  84:/Library/DaisyToolchain/0.2.0/arm/arm-none-eabi/include/c++/10.3.1/bits/stl_algo.h **** 	  if (__comp(__b, __c))
  85:/Library/DaisyToolchain/0.2.0/arm/arm-none-eabi/include/c++/10.3.1/bits/stl_algo.h **** 	    std::iter_swap(__result, __b);
  86:/Library/DaisyToolchain/0.2.0/arm/arm-none-eabi/include/c++/10.3.1/bits/stl_algo.h **** 	  else if (__comp(__a, __c))
  87:/Library/DaisyToolchain/0.2.0/arm/arm-none-eabi/include/c++/10.3.1/bits/stl_algo.h **** 	    std::iter_swap(__result, __c);
  88:/Library/DaisyToolchain/0.2.0/arm/arm-none-eabi/include/c++/10.3.1/bits/stl_algo.h **** 	  else
  89:/Library/DaisyToolchain/0.2.0/arm/arm-none-eabi/include/c++/10.3.1/bits/stl_algo.h **** 	    std::iter_swap(__result, __a);
  90:/Library/DaisyToolchain/0.2.0/arm/arm-none-eabi/include/c++/10.3.1/bits/stl_algo.h **** 	}
  91:/Library/DaisyToolchain/0.2.0/arm/arm-none-eabi/include/c++/10.3.1/bits/stl_algo.h ****       else if (__comp(__a, __c))
  92:/Library/DaisyToolchain/0.2.0/arm/arm-none-eabi/include/c++/10.3.1/bits/stl_algo.h **** 	std::iter_swap(__result, __a);
  93:/Library/DaisyToolchain/0.2.0/arm/arm-none-eabi/include/c++/10.3.1/bits/stl_algo.h ****       else if (__comp(__b, __c))
  94:/Library/DaisyToolchain/0.2.0/arm/arm-none-eabi/include/c++/10.3.1/bits/stl_algo.h **** 	std::iter_swap(__result, __c);
  95:/Library/DaisyToolchain/0.2.0/arm/arm-none-eabi/include/c++/10.3.1/bits/stl_algo.h ****       else
  96:/Library/DaisyToolchain/0.2.0/arm/arm-none-eabi/include/c++/10.3.1/bits/stl_algo.h **** 	std::iter_swap(__result, __b);
  97:/Library/DaisyToolchain/0.2.0/arm/arm-none-eabi/include/c++/10.3.1/bits/stl_algo.h ****     }
  98:/Library/DaisyToolchain/0.2.0/arm/arm-none-eabi/include/c++/10.3.1/bits/stl_algo.h **** 
  99:/Library/DaisyToolchain/0.2.0/arm/arm-none-eabi/include/c++/10.3.1/bits/stl_algo.h ****   /// Provided for stable_partition to use.
 100:/Library/DaisyToolchain/0.2.0/arm/arm-none-eabi/include/c++/10.3.1/bits/stl_algo.h ****   template<typename _InputIterator, typename _Predicate>
 101:/Library/DaisyToolchain/0.2.0/arm/arm-none-eabi/include/c++/10.3.1/bits/stl_algo.h ****     _GLIBCXX20_CONSTEXPR
 102:/Library/DaisyToolchain/0.2.0/arm/arm-none-eabi/include/c++/10.3.1/bits/stl_algo.h ****     inline _InputIterator
 103:/Library/DaisyToolchain/0.2.0/arm/arm-none-eabi/include/c++/10.3.1/bits/stl_algo.h ****     __find_if_not(_InputIterator __first, _InputIterator __last,
 104:/Library/DaisyToolchain/0.2.0/arm/arm-none-eabi/include/c++/10.3.1/bits/stl_algo.h **** 		  _Predicate __pred)
 105:/Library/DaisyToolchain/0.2.0/arm/arm-none-eabi/include/c++/10.3.1/bits/stl_algo.h ****     {
 106:/Library/DaisyToolchain/0.2.0/arm/arm-none-eabi/include/c++/10.3.1/bits/stl_algo.h ****       return std::__find_if(__first, __last,
 107:/Library/DaisyToolchain/0.2.0/arm/arm-none-eabi/include/c++/10.3.1/bits/stl_algo.h **** 			    __gnu_cxx::__ops::__negate(__pred),
 108:/Library/DaisyToolchain/0.2.0/arm/arm-none-eabi/include/c++/10.3.1/bits/stl_algo.h **** 			    std::__iterator_category(__first));
 109:/Library/DaisyToolchain/0.2.0/arm/arm-none-eabi/include/c++/10.3.1/bits/stl_algo.h ****     }
 110:/Library/DaisyToolchain/0.2.0/arm/arm-none-eabi/include/c++/10.3.1/bits/stl_algo.h **** 
 111:/Library/DaisyToolchain/0.2.0/arm/arm-none-eabi/include/c++/10.3.1/bits/stl_algo.h ****   /// Like find_if_not(), but uses and updates a count of the
 112:/Library/DaisyToolchain/0.2.0/arm/arm-none-eabi/include/c++/10.3.1/bits/stl_algo.h ****   /// remaining range length instead of comparing against an end
 113:/Library/DaisyToolchain/0.2.0/arm/arm-none-eabi/include/c++/10.3.1/bits/stl_algo.h ****   /// iterator.
ARM GAS  /var/folders/th/s5djnwg15xxc0dk87c413f_h0000gn/T//ccCW3aXI.s 			page 84


 114:/Library/DaisyToolchain/0.2.0/arm/arm-none-eabi/include/c++/10.3.1/bits/stl_algo.h ****   template<typename _InputIterator, typename _Predicate, typename _Distance>
 115:/Library/DaisyToolchain/0.2.0/arm/arm-none-eabi/include/c++/10.3.1/bits/stl_algo.h ****     _GLIBCXX20_CONSTEXPR
 116:/Library/DaisyToolchain/0.2.0/arm/arm-none-eabi/include/c++/10.3.1/bits/stl_algo.h ****     _InputIterator
 117:/Library/DaisyToolchain/0.2.0/arm/arm-none-eabi/include/c++/10.3.1/bits/stl_algo.h ****     __find_if_not_n(_InputIterator __first, _Distance& __len, _Predicate __pred)
 118:/Library/DaisyToolchain/0.2.0/arm/arm-none-eabi/include/c++/10.3.1/bits/stl_algo.h ****     {
 119:/Library/DaisyToolchain/0.2.0/arm/arm-none-eabi/include/c++/10.3.1/bits/stl_algo.h ****       for (; __len; --__len,  (void) ++__first)
 120:/Library/DaisyToolchain/0.2.0/arm/arm-none-eabi/include/c++/10.3.1/bits/stl_algo.h **** 	if (!__pred(__first))
 121:/Library/DaisyToolchain/0.2.0/arm/arm-none-eabi/include/c++/10.3.1/bits/stl_algo.h **** 	  break;
 122:/Library/DaisyToolchain/0.2.0/arm/arm-none-eabi/include/c++/10.3.1/bits/stl_algo.h ****       return __first;
 123:/Library/DaisyToolchain/0.2.0/arm/arm-none-eabi/include/c++/10.3.1/bits/stl_algo.h ****     }
 124:/Library/DaisyToolchain/0.2.0/arm/arm-none-eabi/include/c++/10.3.1/bits/stl_algo.h **** 
 125:/Library/DaisyToolchain/0.2.0/arm/arm-none-eabi/include/c++/10.3.1/bits/stl_algo.h ****   // set_difference
 126:/Library/DaisyToolchain/0.2.0/arm/arm-none-eabi/include/c++/10.3.1/bits/stl_algo.h ****   // set_intersection
 127:/Library/DaisyToolchain/0.2.0/arm/arm-none-eabi/include/c++/10.3.1/bits/stl_algo.h ****   // set_symmetric_difference
 128:/Library/DaisyToolchain/0.2.0/arm/arm-none-eabi/include/c++/10.3.1/bits/stl_algo.h ****   // set_union
 129:/Library/DaisyToolchain/0.2.0/arm/arm-none-eabi/include/c++/10.3.1/bits/stl_algo.h ****   // for_each
 130:/Library/DaisyToolchain/0.2.0/arm/arm-none-eabi/include/c++/10.3.1/bits/stl_algo.h ****   // find
 131:/Library/DaisyToolchain/0.2.0/arm/arm-none-eabi/include/c++/10.3.1/bits/stl_algo.h ****   // find_if
 132:/Library/DaisyToolchain/0.2.0/arm/arm-none-eabi/include/c++/10.3.1/bits/stl_algo.h ****   // find_first_of
 133:/Library/DaisyToolchain/0.2.0/arm/arm-none-eabi/include/c++/10.3.1/bits/stl_algo.h ****   // adjacent_find
 134:/Library/DaisyToolchain/0.2.0/arm/arm-none-eabi/include/c++/10.3.1/bits/stl_algo.h ****   // count
 135:/Library/DaisyToolchain/0.2.0/arm/arm-none-eabi/include/c++/10.3.1/bits/stl_algo.h ****   // count_if
 136:/Library/DaisyToolchain/0.2.0/arm/arm-none-eabi/include/c++/10.3.1/bits/stl_algo.h ****   // search
 137:/Library/DaisyToolchain/0.2.0/arm/arm-none-eabi/include/c++/10.3.1/bits/stl_algo.h **** 
 138:/Library/DaisyToolchain/0.2.0/arm/arm-none-eabi/include/c++/10.3.1/bits/stl_algo.h ****   template<typename _ForwardIterator1, typename _ForwardIterator2,
 139:/Library/DaisyToolchain/0.2.0/arm/arm-none-eabi/include/c++/10.3.1/bits/stl_algo.h **** 	   typename _BinaryPredicate>
 140:/Library/DaisyToolchain/0.2.0/arm/arm-none-eabi/include/c++/10.3.1/bits/stl_algo.h ****     _GLIBCXX20_CONSTEXPR
 141:/Library/DaisyToolchain/0.2.0/arm/arm-none-eabi/include/c++/10.3.1/bits/stl_algo.h ****     _ForwardIterator1
 142:/Library/DaisyToolchain/0.2.0/arm/arm-none-eabi/include/c++/10.3.1/bits/stl_algo.h ****     __search(_ForwardIterator1 __first1, _ForwardIterator1 __last1,
 143:/Library/DaisyToolchain/0.2.0/arm/arm-none-eabi/include/c++/10.3.1/bits/stl_algo.h **** 	     _ForwardIterator2 __first2, _ForwardIterator2 __last2,
 144:/Library/DaisyToolchain/0.2.0/arm/arm-none-eabi/include/c++/10.3.1/bits/stl_algo.h **** 	     _BinaryPredicate  __predicate)
 145:/Library/DaisyToolchain/0.2.0/arm/arm-none-eabi/include/c++/10.3.1/bits/stl_algo.h ****     {
 146:/Library/DaisyToolchain/0.2.0/arm/arm-none-eabi/include/c++/10.3.1/bits/stl_algo.h ****       // Test for empty ranges
 147:/Library/DaisyToolchain/0.2.0/arm/arm-none-eabi/include/c++/10.3.1/bits/stl_algo.h ****       if (__first1 == __last1 || __first2 == __last2)
 148:/Library/DaisyToolchain/0.2.0/arm/arm-none-eabi/include/c++/10.3.1/bits/stl_algo.h **** 	return __first1;
 149:/Library/DaisyToolchain/0.2.0/arm/arm-none-eabi/include/c++/10.3.1/bits/stl_algo.h **** 
 150:/Library/DaisyToolchain/0.2.0/arm/arm-none-eabi/include/c++/10.3.1/bits/stl_algo.h ****       // Test for a pattern of length 1.
 151:/Library/DaisyToolchain/0.2.0/arm/arm-none-eabi/include/c++/10.3.1/bits/stl_algo.h ****       _ForwardIterator2 __p1(__first2);
 152:/Library/DaisyToolchain/0.2.0/arm/arm-none-eabi/include/c++/10.3.1/bits/stl_algo.h ****       if (++__p1 == __last2)
 153:/Library/DaisyToolchain/0.2.0/arm/arm-none-eabi/include/c++/10.3.1/bits/stl_algo.h **** 	return std::__find_if(__first1, __last1,
 154:/Library/DaisyToolchain/0.2.0/arm/arm-none-eabi/include/c++/10.3.1/bits/stl_algo.h **** 		__gnu_cxx::__ops::__iter_comp_iter(__predicate, __first2));
 155:/Library/DaisyToolchain/0.2.0/arm/arm-none-eabi/include/c++/10.3.1/bits/stl_algo.h **** 
 156:/Library/DaisyToolchain/0.2.0/arm/arm-none-eabi/include/c++/10.3.1/bits/stl_algo.h ****       // General case.
 157:/Library/DaisyToolchain/0.2.0/arm/arm-none-eabi/include/c++/10.3.1/bits/stl_algo.h ****       _ForwardIterator1 __current = __first1;
 158:/Library/DaisyToolchain/0.2.0/arm/arm-none-eabi/include/c++/10.3.1/bits/stl_algo.h **** 
 159:/Library/DaisyToolchain/0.2.0/arm/arm-none-eabi/include/c++/10.3.1/bits/stl_algo.h ****       for (;;)
 160:/Library/DaisyToolchain/0.2.0/arm/arm-none-eabi/include/c++/10.3.1/bits/stl_algo.h **** 	{
 161:/Library/DaisyToolchain/0.2.0/arm/arm-none-eabi/include/c++/10.3.1/bits/stl_algo.h **** 	  __first1 =
 162:/Library/DaisyToolchain/0.2.0/arm/arm-none-eabi/include/c++/10.3.1/bits/stl_algo.h **** 	    std::__find_if(__first1, __last1,
 163:/Library/DaisyToolchain/0.2.0/arm/arm-none-eabi/include/c++/10.3.1/bits/stl_algo.h **** 		__gnu_cxx::__ops::__iter_comp_iter(__predicate, __first2));
 164:/Library/DaisyToolchain/0.2.0/arm/arm-none-eabi/include/c++/10.3.1/bits/stl_algo.h **** 
 165:/Library/DaisyToolchain/0.2.0/arm/arm-none-eabi/include/c++/10.3.1/bits/stl_algo.h **** 	  if (__first1 == __last1)
 166:/Library/DaisyToolchain/0.2.0/arm/arm-none-eabi/include/c++/10.3.1/bits/stl_algo.h **** 	    return __last1;
 167:/Library/DaisyToolchain/0.2.0/arm/arm-none-eabi/include/c++/10.3.1/bits/stl_algo.h **** 
 168:/Library/DaisyToolchain/0.2.0/arm/arm-none-eabi/include/c++/10.3.1/bits/stl_algo.h **** 	  _ForwardIterator2 __p = __p1;
 169:/Library/DaisyToolchain/0.2.0/arm/arm-none-eabi/include/c++/10.3.1/bits/stl_algo.h **** 	  __current = __first1;
 170:/Library/DaisyToolchain/0.2.0/arm/arm-none-eabi/include/c++/10.3.1/bits/stl_algo.h **** 	  if (++__current == __last1)
ARM GAS  /var/folders/th/s5djnwg15xxc0dk87c413f_h0000gn/T//ccCW3aXI.s 			page 85


 171:/Library/DaisyToolchain/0.2.0/arm/arm-none-eabi/include/c++/10.3.1/bits/stl_algo.h **** 	    return __last1;
 172:/Library/DaisyToolchain/0.2.0/arm/arm-none-eabi/include/c++/10.3.1/bits/stl_algo.h **** 
 173:/Library/DaisyToolchain/0.2.0/arm/arm-none-eabi/include/c++/10.3.1/bits/stl_algo.h **** 	  while (__predicate(__current, __p))
 174:/Library/DaisyToolchain/0.2.0/arm/arm-none-eabi/include/c++/10.3.1/bits/stl_algo.h **** 	    {
 175:/Library/DaisyToolchain/0.2.0/arm/arm-none-eabi/include/c++/10.3.1/bits/stl_algo.h **** 	      if (++__p == __last2)
 176:/Library/DaisyToolchain/0.2.0/arm/arm-none-eabi/include/c++/10.3.1/bits/stl_algo.h **** 		return __first1;
 177:/Library/DaisyToolchain/0.2.0/arm/arm-none-eabi/include/c++/10.3.1/bits/stl_algo.h **** 	      if (++__current == __last1)
 178:/Library/DaisyToolchain/0.2.0/arm/arm-none-eabi/include/c++/10.3.1/bits/stl_algo.h **** 		return __last1;
 179:/Library/DaisyToolchain/0.2.0/arm/arm-none-eabi/include/c++/10.3.1/bits/stl_algo.h **** 	    }
 180:/Library/DaisyToolchain/0.2.0/arm/arm-none-eabi/include/c++/10.3.1/bits/stl_algo.h **** 	  ++__first1;
 181:/Library/DaisyToolchain/0.2.0/arm/arm-none-eabi/include/c++/10.3.1/bits/stl_algo.h **** 	}
 182:/Library/DaisyToolchain/0.2.0/arm/arm-none-eabi/include/c++/10.3.1/bits/stl_algo.h ****       return __first1;
 183:/Library/DaisyToolchain/0.2.0/arm/arm-none-eabi/include/c++/10.3.1/bits/stl_algo.h ****     }
 184:/Library/DaisyToolchain/0.2.0/arm/arm-none-eabi/include/c++/10.3.1/bits/stl_algo.h **** 
 185:/Library/DaisyToolchain/0.2.0/arm/arm-none-eabi/include/c++/10.3.1/bits/stl_algo.h ****   // search_n
 186:/Library/DaisyToolchain/0.2.0/arm/arm-none-eabi/include/c++/10.3.1/bits/stl_algo.h **** 
 187:/Library/DaisyToolchain/0.2.0/arm/arm-none-eabi/include/c++/10.3.1/bits/stl_algo.h ****   /**
 188:/Library/DaisyToolchain/0.2.0/arm/arm-none-eabi/include/c++/10.3.1/bits/stl_algo.h ****    *  This is an helper function for search_n overloaded for forward iterators.
 189:/Library/DaisyToolchain/0.2.0/arm/arm-none-eabi/include/c++/10.3.1/bits/stl_algo.h ****   */
 190:/Library/DaisyToolchain/0.2.0/arm/arm-none-eabi/include/c++/10.3.1/bits/stl_algo.h ****   template<typename _ForwardIterator, typename _Integer,
 191:/Library/DaisyToolchain/0.2.0/arm/arm-none-eabi/include/c++/10.3.1/bits/stl_algo.h **** 	   typename _UnaryPredicate>
 192:/Library/DaisyToolchain/0.2.0/arm/arm-none-eabi/include/c++/10.3.1/bits/stl_algo.h ****     _GLIBCXX20_CONSTEXPR
 193:/Library/DaisyToolchain/0.2.0/arm/arm-none-eabi/include/c++/10.3.1/bits/stl_algo.h ****     _ForwardIterator
 194:/Library/DaisyToolchain/0.2.0/arm/arm-none-eabi/include/c++/10.3.1/bits/stl_algo.h ****     __search_n_aux(_ForwardIterator __first, _ForwardIterator __last,
 195:/Library/DaisyToolchain/0.2.0/arm/arm-none-eabi/include/c++/10.3.1/bits/stl_algo.h **** 		   _Integer __count, _UnaryPredicate __unary_pred,
 196:/Library/DaisyToolchain/0.2.0/arm/arm-none-eabi/include/c++/10.3.1/bits/stl_algo.h **** 		   std::forward_iterator_tag)
 197:/Library/DaisyToolchain/0.2.0/arm/arm-none-eabi/include/c++/10.3.1/bits/stl_algo.h ****     {
 198:/Library/DaisyToolchain/0.2.0/arm/arm-none-eabi/include/c++/10.3.1/bits/stl_algo.h ****       __first = std::__find_if(__first, __last, __unary_pred);
 199:/Library/DaisyToolchain/0.2.0/arm/arm-none-eabi/include/c++/10.3.1/bits/stl_algo.h ****       while (__first != __last)
 200:/Library/DaisyToolchain/0.2.0/arm/arm-none-eabi/include/c++/10.3.1/bits/stl_algo.h **** 	{
 201:/Library/DaisyToolchain/0.2.0/arm/arm-none-eabi/include/c++/10.3.1/bits/stl_algo.h **** 	  typename iterator_traits<_ForwardIterator>::difference_type
 202:/Library/DaisyToolchain/0.2.0/arm/arm-none-eabi/include/c++/10.3.1/bits/stl_algo.h **** 	    __n = __count;
 203:/Library/DaisyToolchain/0.2.0/arm/arm-none-eabi/include/c++/10.3.1/bits/stl_algo.h **** 	  _ForwardIterator __i = __first;
 204:/Library/DaisyToolchain/0.2.0/arm/arm-none-eabi/include/c++/10.3.1/bits/stl_algo.h **** 	  ++__i;
 205:/Library/DaisyToolchain/0.2.0/arm/arm-none-eabi/include/c++/10.3.1/bits/stl_algo.h **** 	  while (__i != __last && __n != 1 && __unary_pred(__i))
 206:/Library/DaisyToolchain/0.2.0/arm/arm-none-eabi/include/c++/10.3.1/bits/stl_algo.h **** 	    {
 207:/Library/DaisyToolchain/0.2.0/arm/arm-none-eabi/include/c++/10.3.1/bits/stl_algo.h **** 	      ++__i;
 208:/Library/DaisyToolchain/0.2.0/arm/arm-none-eabi/include/c++/10.3.1/bits/stl_algo.h **** 	      --__n;
 209:/Library/DaisyToolchain/0.2.0/arm/arm-none-eabi/include/c++/10.3.1/bits/stl_algo.h **** 	    }
 210:/Library/DaisyToolchain/0.2.0/arm/arm-none-eabi/include/c++/10.3.1/bits/stl_algo.h **** 	  if (__n == 1)
 211:/Library/DaisyToolchain/0.2.0/arm/arm-none-eabi/include/c++/10.3.1/bits/stl_algo.h **** 	    return __first;
 212:/Library/DaisyToolchain/0.2.0/arm/arm-none-eabi/include/c++/10.3.1/bits/stl_algo.h **** 	  if (__i == __last)
 213:/Library/DaisyToolchain/0.2.0/arm/arm-none-eabi/include/c++/10.3.1/bits/stl_algo.h **** 	    return __last;
 214:/Library/DaisyToolchain/0.2.0/arm/arm-none-eabi/include/c++/10.3.1/bits/stl_algo.h **** 	  __first = std::__find_if(++__i, __last, __unary_pred);
 215:/Library/DaisyToolchain/0.2.0/arm/arm-none-eabi/include/c++/10.3.1/bits/stl_algo.h **** 	}
 216:/Library/DaisyToolchain/0.2.0/arm/arm-none-eabi/include/c++/10.3.1/bits/stl_algo.h ****       return __last;
 217:/Library/DaisyToolchain/0.2.0/arm/arm-none-eabi/include/c++/10.3.1/bits/stl_algo.h ****     }
 218:/Library/DaisyToolchain/0.2.0/arm/arm-none-eabi/include/c++/10.3.1/bits/stl_algo.h **** 
 219:/Library/DaisyToolchain/0.2.0/arm/arm-none-eabi/include/c++/10.3.1/bits/stl_algo.h ****   /**
 220:/Library/DaisyToolchain/0.2.0/arm/arm-none-eabi/include/c++/10.3.1/bits/stl_algo.h ****    *  This is an helper function for search_n overloaded for random access
 221:/Library/DaisyToolchain/0.2.0/arm/arm-none-eabi/include/c++/10.3.1/bits/stl_algo.h ****    *  iterators.
 222:/Library/DaisyToolchain/0.2.0/arm/arm-none-eabi/include/c++/10.3.1/bits/stl_algo.h ****   */
 223:/Library/DaisyToolchain/0.2.0/arm/arm-none-eabi/include/c++/10.3.1/bits/stl_algo.h ****   template<typename _RandomAccessIter, typename _Integer,
 224:/Library/DaisyToolchain/0.2.0/arm/arm-none-eabi/include/c++/10.3.1/bits/stl_algo.h **** 	   typename _UnaryPredicate>
 225:/Library/DaisyToolchain/0.2.0/arm/arm-none-eabi/include/c++/10.3.1/bits/stl_algo.h ****     _GLIBCXX20_CONSTEXPR
 226:/Library/DaisyToolchain/0.2.0/arm/arm-none-eabi/include/c++/10.3.1/bits/stl_algo.h ****     _RandomAccessIter
 227:/Library/DaisyToolchain/0.2.0/arm/arm-none-eabi/include/c++/10.3.1/bits/stl_algo.h ****     __search_n_aux(_RandomAccessIter __first, _RandomAccessIter __last,
ARM GAS  /var/folders/th/s5djnwg15xxc0dk87c413f_h0000gn/T//ccCW3aXI.s 			page 86


 228:/Library/DaisyToolchain/0.2.0/arm/arm-none-eabi/include/c++/10.3.1/bits/stl_algo.h **** 		   _Integer __count, _UnaryPredicate __unary_pred,
 229:/Library/DaisyToolchain/0.2.0/arm/arm-none-eabi/include/c++/10.3.1/bits/stl_algo.h **** 		   std::random_access_iterator_tag)
 230:/Library/DaisyToolchain/0.2.0/arm/arm-none-eabi/include/c++/10.3.1/bits/stl_algo.h ****     {
 231:/Library/DaisyToolchain/0.2.0/arm/arm-none-eabi/include/c++/10.3.1/bits/stl_algo.h ****       typedef typename std::iterator_traits<_RandomAccessIter>::difference_type
 232:/Library/DaisyToolchain/0.2.0/arm/arm-none-eabi/include/c++/10.3.1/bits/stl_algo.h **** 	_DistanceType;
 233:/Library/DaisyToolchain/0.2.0/arm/arm-none-eabi/include/c++/10.3.1/bits/stl_algo.h **** 
 234:/Library/DaisyToolchain/0.2.0/arm/arm-none-eabi/include/c++/10.3.1/bits/stl_algo.h ****       _DistanceType __tailSize = __last - __first;
 235:/Library/DaisyToolchain/0.2.0/arm/arm-none-eabi/include/c++/10.3.1/bits/stl_algo.h ****       _DistanceType __remainder = __count;
 236:/Library/DaisyToolchain/0.2.0/arm/arm-none-eabi/include/c++/10.3.1/bits/stl_algo.h **** 
 237:/Library/DaisyToolchain/0.2.0/arm/arm-none-eabi/include/c++/10.3.1/bits/stl_algo.h ****       while (__remainder <= __tailSize) // the main loop...
 238:/Library/DaisyToolchain/0.2.0/arm/arm-none-eabi/include/c++/10.3.1/bits/stl_algo.h **** 	{
 239:/Library/DaisyToolchain/0.2.0/arm/arm-none-eabi/include/c++/10.3.1/bits/stl_algo.h **** 	  __first += __remainder;
 240:/Library/DaisyToolchain/0.2.0/arm/arm-none-eabi/include/c++/10.3.1/bits/stl_algo.h **** 	  __tailSize -= __remainder;
 241:/Library/DaisyToolchain/0.2.0/arm/arm-none-eabi/include/c++/10.3.1/bits/stl_algo.h **** 	  // __first here is always pointing to one past the last element of
 242:/Library/DaisyToolchain/0.2.0/arm/arm-none-eabi/include/c++/10.3.1/bits/stl_algo.h **** 	  // next possible match.
 243:/Library/DaisyToolchain/0.2.0/arm/arm-none-eabi/include/c++/10.3.1/bits/stl_algo.h **** 	  _RandomAccessIter __backTrack = __first; 
 244:/Library/DaisyToolchain/0.2.0/arm/arm-none-eabi/include/c++/10.3.1/bits/stl_algo.h **** 	  while (__unary_pred(--__backTrack))
 245:/Library/DaisyToolchain/0.2.0/arm/arm-none-eabi/include/c++/10.3.1/bits/stl_algo.h **** 	    {
 246:/Library/DaisyToolchain/0.2.0/arm/arm-none-eabi/include/c++/10.3.1/bits/stl_algo.h **** 	      if (--__remainder == 0)
 247:/Library/DaisyToolchain/0.2.0/arm/arm-none-eabi/include/c++/10.3.1/bits/stl_algo.h **** 		return (__first - __count); // Success
 248:/Library/DaisyToolchain/0.2.0/arm/arm-none-eabi/include/c++/10.3.1/bits/stl_algo.h **** 	    }
 249:/Library/DaisyToolchain/0.2.0/arm/arm-none-eabi/include/c++/10.3.1/bits/stl_algo.h **** 	  __remainder = __count + 1 - (__first - __backTrack);
 250:/Library/DaisyToolchain/0.2.0/arm/arm-none-eabi/include/c++/10.3.1/bits/stl_algo.h **** 	}
 251:/Library/DaisyToolchain/0.2.0/arm/arm-none-eabi/include/c++/10.3.1/bits/stl_algo.h ****       return __last; // Failure
 252:/Library/DaisyToolchain/0.2.0/arm/arm-none-eabi/include/c++/10.3.1/bits/stl_algo.h ****     }
 253:/Library/DaisyToolchain/0.2.0/arm/arm-none-eabi/include/c++/10.3.1/bits/stl_algo.h **** 
 254:/Library/DaisyToolchain/0.2.0/arm/arm-none-eabi/include/c++/10.3.1/bits/stl_algo.h ****   template<typename _ForwardIterator, typename _Integer,
 255:/Library/DaisyToolchain/0.2.0/arm/arm-none-eabi/include/c++/10.3.1/bits/stl_algo.h **** 	   typename _UnaryPredicate>
 256:/Library/DaisyToolchain/0.2.0/arm/arm-none-eabi/include/c++/10.3.1/bits/stl_algo.h ****     _GLIBCXX20_CONSTEXPR
 257:/Library/DaisyToolchain/0.2.0/arm/arm-none-eabi/include/c++/10.3.1/bits/stl_algo.h ****     _ForwardIterator
 258:/Library/DaisyToolchain/0.2.0/arm/arm-none-eabi/include/c++/10.3.1/bits/stl_algo.h ****     __search_n(_ForwardIterator __first, _ForwardIterator __last,
 259:/Library/DaisyToolchain/0.2.0/arm/arm-none-eabi/include/c++/10.3.1/bits/stl_algo.h **** 	       _Integer __count,
 260:/Library/DaisyToolchain/0.2.0/arm/arm-none-eabi/include/c++/10.3.1/bits/stl_algo.h **** 	       _UnaryPredicate __unary_pred)
 261:/Library/DaisyToolchain/0.2.0/arm/arm-none-eabi/include/c++/10.3.1/bits/stl_algo.h ****     {
 262:/Library/DaisyToolchain/0.2.0/arm/arm-none-eabi/include/c++/10.3.1/bits/stl_algo.h ****       if (__count <= 0)
 263:/Library/DaisyToolchain/0.2.0/arm/arm-none-eabi/include/c++/10.3.1/bits/stl_algo.h **** 	return __first;
 264:/Library/DaisyToolchain/0.2.0/arm/arm-none-eabi/include/c++/10.3.1/bits/stl_algo.h **** 
 265:/Library/DaisyToolchain/0.2.0/arm/arm-none-eabi/include/c++/10.3.1/bits/stl_algo.h ****       if (__count == 1)
 266:/Library/DaisyToolchain/0.2.0/arm/arm-none-eabi/include/c++/10.3.1/bits/stl_algo.h **** 	return std::__find_if(__first, __last, __unary_pred);
 267:/Library/DaisyToolchain/0.2.0/arm/arm-none-eabi/include/c++/10.3.1/bits/stl_algo.h **** 
 268:/Library/DaisyToolchain/0.2.0/arm/arm-none-eabi/include/c++/10.3.1/bits/stl_algo.h ****       return std::__search_n_aux(__first, __last, __count, __unary_pred,
 269:/Library/DaisyToolchain/0.2.0/arm/arm-none-eabi/include/c++/10.3.1/bits/stl_algo.h **** 				 std::__iterator_category(__first));
 270:/Library/DaisyToolchain/0.2.0/arm/arm-none-eabi/include/c++/10.3.1/bits/stl_algo.h ****     }
 271:/Library/DaisyToolchain/0.2.0/arm/arm-none-eabi/include/c++/10.3.1/bits/stl_algo.h **** 
 272:/Library/DaisyToolchain/0.2.0/arm/arm-none-eabi/include/c++/10.3.1/bits/stl_algo.h ****   // find_end for forward iterators.
 273:/Library/DaisyToolchain/0.2.0/arm/arm-none-eabi/include/c++/10.3.1/bits/stl_algo.h ****   template<typename _ForwardIterator1, typename _ForwardIterator2,
 274:/Library/DaisyToolchain/0.2.0/arm/arm-none-eabi/include/c++/10.3.1/bits/stl_algo.h **** 	   typename _BinaryPredicate>
 275:/Library/DaisyToolchain/0.2.0/arm/arm-none-eabi/include/c++/10.3.1/bits/stl_algo.h ****     _GLIBCXX20_CONSTEXPR
 276:/Library/DaisyToolchain/0.2.0/arm/arm-none-eabi/include/c++/10.3.1/bits/stl_algo.h ****     _ForwardIterator1
 277:/Library/DaisyToolchain/0.2.0/arm/arm-none-eabi/include/c++/10.3.1/bits/stl_algo.h ****     __find_end(_ForwardIterator1 __first1, _ForwardIterator1 __last1,
 278:/Library/DaisyToolchain/0.2.0/arm/arm-none-eabi/include/c++/10.3.1/bits/stl_algo.h **** 	       _ForwardIterator2 __first2, _ForwardIterator2 __last2,
 279:/Library/DaisyToolchain/0.2.0/arm/arm-none-eabi/include/c++/10.3.1/bits/stl_algo.h **** 	       forward_iterator_tag, forward_iterator_tag,
 280:/Library/DaisyToolchain/0.2.0/arm/arm-none-eabi/include/c++/10.3.1/bits/stl_algo.h **** 	       _BinaryPredicate __comp)
 281:/Library/DaisyToolchain/0.2.0/arm/arm-none-eabi/include/c++/10.3.1/bits/stl_algo.h ****     {
 282:/Library/DaisyToolchain/0.2.0/arm/arm-none-eabi/include/c++/10.3.1/bits/stl_algo.h ****       if (__first2 == __last2)
 283:/Library/DaisyToolchain/0.2.0/arm/arm-none-eabi/include/c++/10.3.1/bits/stl_algo.h **** 	return __last1;
 284:/Library/DaisyToolchain/0.2.0/arm/arm-none-eabi/include/c++/10.3.1/bits/stl_algo.h **** 
ARM GAS  /var/folders/th/s5djnwg15xxc0dk87c413f_h0000gn/T//ccCW3aXI.s 			page 87


 285:/Library/DaisyToolchain/0.2.0/arm/arm-none-eabi/include/c++/10.3.1/bits/stl_algo.h ****       _ForwardIterator1 __result = __last1;
 286:/Library/DaisyToolchain/0.2.0/arm/arm-none-eabi/include/c++/10.3.1/bits/stl_algo.h ****       while (1)
 287:/Library/DaisyToolchain/0.2.0/arm/arm-none-eabi/include/c++/10.3.1/bits/stl_algo.h **** 	{
 288:/Library/DaisyToolchain/0.2.0/arm/arm-none-eabi/include/c++/10.3.1/bits/stl_algo.h **** 	  _ForwardIterator1 __new_result
 289:/Library/DaisyToolchain/0.2.0/arm/arm-none-eabi/include/c++/10.3.1/bits/stl_algo.h **** 	    = std::__search(__first1, __last1, __first2, __last2, __comp);
 290:/Library/DaisyToolchain/0.2.0/arm/arm-none-eabi/include/c++/10.3.1/bits/stl_algo.h **** 	  if (__new_result == __last1)
 291:/Library/DaisyToolchain/0.2.0/arm/arm-none-eabi/include/c++/10.3.1/bits/stl_algo.h **** 	    return __result;
 292:/Library/DaisyToolchain/0.2.0/arm/arm-none-eabi/include/c++/10.3.1/bits/stl_algo.h **** 	  else
 293:/Library/DaisyToolchain/0.2.0/arm/arm-none-eabi/include/c++/10.3.1/bits/stl_algo.h **** 	    {
 294:/Library/DaisyToolchain/0.2.0/arm/arm-none-eabi/include/c++/10.3.1/bits/stl_algo.h **** 	      __result = __new_result;
 295:/Library/DaisyToolchain/0.2.0/arm/arm-none-eabi/include/c++/10.3.1/bits/stl_algo.h **** 	      __first1 = __new_result;
 296:/Library/DaisyToolchain/0.2.0/arm/arm-none-eabi/include/c++/10.3.1/bits/stl_algo.h **** 	      ++__first1;
 297:/Library/DaisyToolchain/0.2.0/arm/arm-none-eabi/include/c++/10.3.1/bits/stl_algo.h **** 	    }
 298:/Library/DaisyToolchain/0.2.0/arm/arm-none-eabi/include/c++/10.3.1/bits/stl_algo.h **** 	}
 299:/Library/DaisyToolchain/0.2.0/arm/arm-none-eabi/include/c++/10.3.1/bits/stl_algo.h ****     }
 300:/Library/DaisyToolchain/0.2.0/arm/arm-none-eabi/include/c++/10.3.1/bits/stl_algo.h **** 
 301:/Library/DaisyToolchain/0.2.0/arm/arm-none-eabi/include/c++/10.3.1/bits/stl_algo.h ****   // find_end for bidirectional iterators (much faster).
 302:/Library/DaisyToolchain/0.2.0/arm/arm-none-eabi/include/c++/10.3.1/bits/stl_algo.h ****   template<typename _BidirectionalIterator1, typename _BidirectionalIterator2,
 303:/Library/DaisyToolchain/0.2.0/arm/arm-none-eabi/include/c++/10.3.1/bits/stl_algo.h **** 	   typename _BinaryPredicate>
 304:/Library/DaisyToolchain/0.2.0/arm/arm-none-eabi/include/c++/10.3.1/bits/stl_algo.h ****     _GLIBCXX20_CONSTEXPR
 305:/Library/DaisyToolchain/0.2.0/arm/arm-none-eabi/include/c++/10.3.1/bits/stl_algo.h ****     _BidirectionalIterator1
 306:/Library/DaisyToolchain/0.2.0/arm/arm-none-eabi/include/c++/10.3.1/bits/stl_algo.h ****     __find_end(_BidirectionalIterator1 __first1,
 307:/Library/DaisyToolchain/0.2.0/arm/arm-none-eabi/include/c++/10.3.1/bits/stl_algo.h **** 	       _BidirectionalIterator1 __last1,
 308:/Library/DaisyToolchain/0.2.0/arm/arm-none-eabi/include/c++/10.3.1/bits/stl_algo.h **** 	       _BidirectionalIterator2 __first2,
 309:/Library/DaisyToolchain/0.2.0/arm/arm-none-eabi/include/c++/10.3.1/bits/stl_algo.h **** 	       _BidirectionalIterator2 __last2,
 310:/Library/DaisyToolchain/0.2.0/arm/arm-none-eabi/include/c++/10.3.1/bits/stl_algo.h **** 	       bidirectional_iterator_tag, bidirectional_iterator_tag,
 311:/Library/DaisyToolchain/0.2.0/arm/arm-none-eabi/include/c++/10.3.1/bits/stl_algo.h **** 	       _BinaryPredicate __comp)
 312:/Library/DaisyToolchain/0.2.0/arm/arm-none-eabi/include/c++/10.3.1/bits/stl_algo.h ****     {
 313:/Library/DaisyToolchain/0.2.0/arm/arm-none-eabi/include/c++/10.3.1/bits/stl_algo.h ****       // concept requirements
 314:/Library/DaisyToolchain/0.2.0/arm/arm-none-eabi/include/c++/10.3.1/bits/stl_algo.h ****       __glibcxx_function_requires(_BidirectionalIteratorConcept<
 315:/Library/DaisyToolchain/0.2.0/arm/arm-none-eabi/include/c++/10.3.1/bits/stl_algo.h **** 				  _BidirectionalIterator1>)
 316:/Library/DaisyToolchain/0.2.0/arm/arm-none-eabi/include/c++/10.3.1/bits/stl_algo.h ****       __glibcxx_function_requires(_BidirectionalIteratorConcept<
 317:/Library/DaisyToolchain/0.2.0/arm/arm-none-eabi/include/c++/10.3.1/bits/stl_algo.h **** 				  _BidirectionalIterator2>)
 318:/Library/DaisyToolchain/0.2.0/arm/arm-none-eabi/include/c++/10.3.1/bits/stl_algo.h **** 
 319:/Library/DaisyToolchain/0.2.0/arm/arm-none-eabi/include/c++/10.3.1/bits/stl_algo.h ****       typedef reverse_iterator<_BidirectionalIterator1> _RevIterator1;
 320:/Library/DaisyToolchain/0.2.0/arm/arm-none-eabi/include/c++/10.3.1/bits/stl_algo.h ****       typedef reverse_iterator<_BidirectionalIterator2> _RevIterator2;
 321:/Library/DaisyToolchain/0.2.0/arm/arm-none-eabi/include/c++/10.3.1/bits/stl_algo.h **** 
 322:/Library/DaisyToolchain/0.2.0/arm/arm-none-eabi/include/c++/10.3.1/bits/stl_algo.h ****       _RevIterator1 __rlast1(__first1);
 323:/Library/DaisyToolchain/0.2.0/arm/arm-none-eabi/include/c++/10.3.1/bits/stl_algo.h ****       _RevIterator2 __rlast2(__first2);
 324:/Library/DaisyToolchain/0.2.0/arm/arm-none-eabi/include/c++/10.3.1/bits/stl_algo.h ****       _RevIterator1 __rresult = std::__search(_RevIterator1(__last1), __rlast1,
 325:/Library/DaisyToolchain/0.2.0/arm/arm-none-eabi/include/c++/10.3.1/bits/stl_algo.h **** 					      _RevIterator2(__last2), __rlast2,
 326:/Library/DaisyToolchain/0.2.0/arm/arm-none-eabi/include/c++/10.3.1/bits/stl_algo.h **** 					      __comp);
 327:/Library/DaisyToolchain/0.2.0/arm/arm-none-eabi/include/c++/10.3.1/bits/stl_algo.h **** 
 328:/Library/DaisyToolchain/0.2.0/arm/arm-none-eabi/include/c++/10.3.1/bits/stl_algo.h ****       if (__rresult == __rlast1)
 329:/Library/DaisyToolchain/0.2.0/arm/arm-none-eabi/include/c++/10.3.1/bits/stl_algo.h **** 	return __last1;
 330:/Library/DaisyToolchain/0.2.0/arm/arm-none-eabi/include/c++/10.3.1/bits/stl_algo.h ****       else
 331:/Library/DaisyToolchain/0.2.0/arm/arm-none-eabi/include/c++/10.3.1/bits/stl_algo.h **** 	{
 332:/Library/DaisyToolchain/0.2.0/arm/arm-none-eabi/include/c++/10.3.1/bits/stl_algo.h **** 	  _BidirectionalIterator1 __result = __rresult.base();
 333:/Library/DaisyToolchain/0.2.0/arm/arm-none-eabi/include/c++/10.3.1/bits/stl_algo.h **** 	  std::advance(__result, -std::distance(__first2, __last2));
 334:/Library/DaisyToolchain/0.2.0/arm/arm-none-eabi/include/c++/10.3.1/bits/stl_algo.h **** 	  return __result;
 335:/Library/DaisyToolchain/0.2.0/arm/arm-none-eabi/include/c++/10.3.1/bits/stl_algo.h **** 	}
 336:/Library/DaisyToolchain/0.2.0/arm/arm-none-eabi/include/c++/10.3.1/bits/stl_algo.h ****     }
 337:/Library/DaisyToolchain/0.2.0/arm/arm-none-eabi/include/c++/10.3.1/bits/stl_algo.h **** 
 338:/Library/DaisyToolchain/0.2.0/arm/arm-none-eabi/include/c++/10.3.1/bits/stl_algo.h ****   /**
 339:/Library/DaisyToolchain/0.2.0/arm/arm-none-eabi/include/c++/10.3.1/bits/stl_algo.h ****    *  @brief  Find last matching subsequence in a sequence.
 340:/Library/DaisyToolchain/0.2.0/arm/arm-none-eabi/include/c++/10.3.1/bits/stl_algo.h ****    *  @ingroup non_mutating_algorithms
 341:/Library/DaisyToolchain/0.2.0/arm/arm-none-eabi/include/c++/10.3.1/bits/stl_algo.h ****    *  @param  __first1  Start of range to search.
ARM GAS  /var/folders/th/s5djnwg15xxc0dk87c413f_h0000gn/T//ccCW3aXI.s 			page 88


 342:/Library/DaisyToolchain/0.2.0/arm/arm-none-eabi/include/c++/10.3.1/bits/stl_algo.h ****    *  @param  __last1   End of range to search.
 343:/Library/DaisyToolchain/0.2.0/arm/arm-none-eabi/include/c++/10.3.1/bits/stl_algo.h ****    *  @param  __first2  Start of sequence to match.
 344:/Library/DaisyToolchain/0.2.0/arm/arm-none-eabi/include/c++/10.3.1/bits/stl_algo.h ****    *  @param  __last2   End of sequence to match.
 345:/Library/DaisyToolchain/0.2.0/arm/arm-none-eabi/include/c++/10.3.1/bits/stl_algo.h ****    *  @return   The last iterator @c i in the range
 346:/Library/DaisyToolchain/0.2.0/arm/arm-none-eabi/include/c++/10.3.1/bits/stl_algo.h ****    *  @p [__first1,__last1-(__last2-__first2)) such that @c *(i+N) ==
 347:/Library/DaisyToolchain/0.2.0/arm/arm-none-eabi/include/c++/10.3.1/bits/stl_algo.h ****    *  @p *(__first2+N) for each @c N in the range @p
 348:/Library/DaisyToolchain/0.2.0/arm/arm-none-eabi/include/c++/10.3.1/bits/stl_algo.h ****    *  [0,__last2-__first2), or @p __last1 if no such iterator exists.
 349:/Library/DaisyToolchain/0.2.0/arm/arm-none-eabi/include/c++/10.3.1/bits/stl_algo.h ****    *
 350:/Library/DaisyToolchain/0.2.0/arm/arm-none-eabi/include/c++/10.3.1/bits/stl_algo.h ****    *  Searches the range @p [__first1,__last1) for a sub-sequence that
 351:/Library/DaisyToolchain/0.2.0/arm/arm-none-eabi/include/c++/10.3.1/bits/stl_algo.h ****    *  compares equal value-by-value with the sequence given by @p
 352:/Library/DaisyToolchain/0.2.0/arm/arm-none-eabi/include/c++/10.3.1/bits/stl_algo.h ****    *  [__first2,__last2) and returns an iterator to the __first
 353:/Library/DaisyToolchain/0.2.0/arm/arm-none-eabi/include/c++/10.3.1/bits/stl_algo.h ****    *  element of the sub-sequence, or @p __last1 if the sub-sequence
 354:/Library/DaisyToolchain/0.2.0/arm/arm-none-eabi/include/c++/10.3.1/bits/stl_algo.h ****    *  is not found.  The sub-sequence will be the last such
 355:/Library/DaisyToolchain/0.2.0/arm/arm-none-eabi/include/c++/10.3.1/bits/stl_algo.h ****    *  subsequence contained in [__first1,__last1).
 356:/Library/DaisyToolchain/0.2.0/arm/arm-none-eabi/include/c++/10.3.1/bits/stl_algo.h ****    *
 357:/Library/DaisyToolchain/0.2.0/arm/arm-none-eabi/include/c++/10.3.1/bits/stl_algo.h ****    *  Because the sub-sequence must lie completely within the range @p
 358:/Library/DaisyToolchain/0.2.0/arm/arm-none-eabi/include/c++/10.3.1/bits/stl_algo.h ****    *  [__first1,__last1) it must start at a position less than @p
 359:/Library/DaisyToolchain/0.2.0/arm/arm-none-eabi/include/c++/10.3.1/bits/stl_algo.h ****    *  __last1-(__last2-__first2) where @p __last2-__first2 is the
 360:/Library/DaisyToolchain/0.2.0/arm/arm-none-eabi/include/c++/10.3.1/bits/stl_algo.h ****    *  length of the sub-sequence.  This means that the returned
 361:/Library/DaisyToolchain/0.2.0/arm/arm-none-eabi/include/c++/10.3.1/bits/stl_algo.h ****    *  iterator @c i will be in the range @p
 362:/Library/DaisyToolchain/0.2.0/arm/arm-none-eabi/include/c++/10.3.1/bits/stl_algo.h ****    *  [__first1,__last1-(__last2-__first2))
 363:/Library/DaisyToolchain/0.2.0/arm/arm-none-eabi/include/c++/10.3.1/bits/stl_algo.h ****   */
 364:/Library/DaisyToolchain/0.2.0/arm/arm-none-eabi/include/c++/10.3.1/bits/stl_algo.h ****   template<typename _ForwardIterator1, typename _ForwardIterator2>
 365:/Library/DaisyToolchain/0.2.0/arm/arm-none-eabi/include/c++/10.3.1/bits/stl_algo.h ****     _GLIBCXX20_CONSTEXPR
 366:/Library/DaisyToolchain/0.2.0/arm/arm-none-eabi/include/c++/10.3.1/bits/stl_algo.h ****     inline _ForwardIterator1
 367:/Library/DaisyToolchain/0.2.0/arm/arm-none-eabi/include/c++/10.3.1/bits/stl_algo.h ****     find_end(_ForwardIterator1 __first1, _ForwardIterator1 __last1,
 368:/Library/DaisyToolchain/0.2.0/arm/arm-none-eabi/include/c++/10.3.1/bits/stl_algo.h **** 	     _ForwardIterator2 __first2, _ForwardIterator2 __last2)
 369:/Library/DaisyToolchain/0.2.0/arm/arm-none-eabi/include/c++/10.3.1/bits/stl_algo.h ****     {
 370:/Library/DaisyToolchain/0.2.0/arm/arm-none-eabi/include/c++/10.3.1/bits/stl_algo.h ****       // concept requirements
 371:/Library/DaisyToolchain/0.2.0/arm/arm-none-eabi/include/c++/10.3.1/bits/stl_algo.h ****       __glibcxx_function_requires(_ForwardIteratorConcept<_ForwardIterator1>)
 372:/Library/DaisyToolchain/0.2.0/arm/arm-none-eabi/include/c++/10.3.1/bits/stl_algo.h ****       __glibcxx_function_requires(_ForwardIteratorConcept<_ForwardIterator2>)
 373:/Library/DaisyToolchain/0.2.0/arm/arm-none-eabi/include/c++/10.3.1/bits/stl_algo.h ****       __glibcxx_function_requires(_EqualOpConcept<
 374:/Library/DaisyToolchain/0.2.0/arm/arm-none-eabi/include/c++/10.3.1/bits/stl_algo.h **** 	    typename iterator_traits<_ForwardIterator1>::value_type,
 375:/Library/DaisyToolchain/0.2.0/arm/arm-none-eabi/include/c++/10.3.1/bits/stl_algo.h **** 	    typename iterator_traits<_ForwardIterator2>::value_type>)
 376:/Library/DaisyToolchain/0.2.0/arm/arm-none-eabi/include/c++/10.3.1/bits/stl_algo.h ****       __glibcxx_requires_valid_range(__first1, __last1);
 377:/Library/DaisyToolchain/0.2.0/arm/arm-none-eabi/include/c++/10.3.1/bits/stl_algo.h ****       __glibcxx_requires_valid_range(__first2, __last2);
 378:/Library/DaisyToolchain/0.2.0/arm/arm-none-eabi/include/c++/10.3.1/bits/stl_algo.h **** 
 379:/Library/DaisyToolchain/0.2.0/arm/arm-none-eabi/include/c++/10.3.1/bits/stl_algo.h ****       return std::__find_end(__first1, __last1, __first2, __last2,
 380:/Library/DaisyToolchain/0.2.0/arm/arm-none-eabi/include/c++/10.3.1/bits/stl_algo.h **** 			     std::__iterator_category(__first1),
 381:/Library/DaisyToolchain/0.2.0/arm/arm-none-eabi/include/c++/10.3.1/bits/stl_algo.h **** 			     std::__iterator_category(__first2),
 382:/Library/DaisyToolchain/0.2.0/arm/arm-none-eabi/include/c++/10.3.1/bits/stl_algo.h **** 			     __gnu_cxx::__ops::__iter_equal_to_iter());
 383:/Library/DaisyToolchain/0.2.0/arm/arm-none-eabi/include/c++/10.3.1/bits/stl_algo.h ****     }
 384:/Library/DaisyToolchain/0.2.0/arm/arm-none-eabi/include/c++/10.3.1/bits/stl_algo.h **** 
 385:/Library/DaisyToolchain/0.2.0/arm/arm-none-eabi/include/c++/10.3.1/bits/stl_algo.h ****   /**
 386:/Library/DaisyToolchain/0.2.0/arm/arm-none-eabi/include/c++/10.3.1/bits/stl_algo.h ****    *  @brief  Find last matching subsequence in a sequence using a predicate.
 387:/Library/DaisyToolchain/0.2.0/arm/arm-none-eabi/include/c++/10.3.1/bits/stl_algo.h ****    *  @ingroup non_mutating_algorithms
 388:/Library/DaisyToolchain/0.2.0/arm/arm-none-eabi/include/c++/10.3.1/bits/stl_algo.h ****    *  @param  __first1  Start of range to search.
 389:/Library/DaisyToolchain/0.2.0/arm/arm-none-eabi/include/c++/10.3.1/bits/stl_algo.h ****    *  @param  __last1   End of range to search.
 390:/Library/DaisyToolchain/0.2.0/arm/arm-none-eabi/include/c++/10.3.1/bits/stl_algo.h ****    *  @param  __first2  Start of sequence to match.
 391:/Library/DaisyToolchain/0.2.0/arm/arm-none-eabi/include/c++/10.3.1/bits/stl_algo.h ****    *  @param  __last2   End of sequence to match.
 392:/Library/DaisyToolchain/0.2.0/arm/arm-none-eabi/include/c++/10.3.1/bits/stl_algo.h ****    *  @param  __comp    The predicate to use.
 393:/Library/DaisyToolchain/0.2.0/arm/arm-none-eabi/include/c++/10.3.1/bits/stl_algo.h ****    *  @return The last iterator @c i in the range @p
 394:/Library/DaisyToolchain/0.2.0/arm/arm-none-eabi/include/c++/10.3.1/bits/stl_algo.h ****    *  [__first1,__last1-(__last2-__first2)) such that @c
 395:/Library/DaisyToolchain/0.2.0/arm/arm-none-eabi/include/c++/10.3.1/bits/stl_algo.h ****    *  predicate(*(i+N), @p (__first2+N)) is true for each @c N in the
 396:/Library/DaisyToolchain/0.2.0/arm/arm-none-eabi/include/c++/10.3.1/bits/stl_algo.h ****    *  range @p [0,__last2-__first2), or @p __last1 if no such iterator
 397:/Library/DaisyToolchain/0.2.0/arm/arm-none-eabi/include/c++/10.3.1/bits/stl_algo.h ****    *  exists.
 398:/Library/DaisyToolchain/0.2.0/arm/arm-none-eabi/include/c++/10.3.1/bits/stl_algo.h ****    *
ARM GAS  /var/folders/th/s5djnwg15xxc0dk87c413f_h0000gn/T//ccCW3aXI.s 			page 89


 399:/Library/DaisyToolchain/0.2.0/arm/arm-none-eabi/include/c++/10.3.1/bits/stl_algo.h ****    *  Searches the range @p [__first1,__last1) for a sub-sequence that
 400:/Library/DaisyToolchain/0.2.0/arm/arm-none-eabi/include/c++/10.3.1/bits/stl_algo.h ****    *  compares equal value-by-value with the sequence given by @p
 401:/Library/DaisyToolchain/0.2.0/arm/arm-none-eabi/include/c++/10.3.1/bits/stl_algo.h ****    *  [__first2,__last2) using comp as a predicate and returns an
 402:/Library/DaisyToolchain/0.2.0/arm/arm-none-eabi/include/c++/10.3.1/bits/stl_algo.h ****    *  iterator to the first element of the sub-sequence, or @p __last1
 403:/Library/DaisyToolchain/0.2.0/arm/arm-none-eabi/include/c++/10.3.1/bits/stl_algo.h ****    *  if the sub-sequence is not found.  The sub-sequence will be the
 404:/Library/DaisyToolchain/0.2.0/arm/arm-none-eabi/include/c++/10.3.1/bits/stl_algo.h ****    *  last such subsequence contained in [__first,__last1).
 405:/Library/DaisyToolchain/0.2.0/arm/arm-none-eabi/include/c++/10.3.1/bits/stl_algo.h ****    *
 406:/Library/DaisyToolchain/0.2.0/arm/arm-none-eabi/include/c++/10.3.1/bits/stl_algo.h ****    *  Because the sub-sequence must lie completely within the range @p
 407:/Library/DaisyToolchain/0.2.0/arm/arm-none-eabi/include/c++/10.3.1/bits/stl_algo.h ****    *  [__first1,__last1) it must start at a position less than @p
 408:/Library/DaisyToolchain/0.2.0/arm/arm-none-eabi/include/c++/10.3.1/bits/stl_algo.h ****    *  __last1-(__last2-__first2) where @p __last2-__first2 is the
 409:/Library/DaisyToolchain/0.2.0/arm/arm-none-eabi/include/c++/10.3.1/bits/stl_algo.h ****    *  length of the sub-sequence.  This means that the returned
 410:/Library/DaisyToolchain/0.2.0/arm/arm-none-eabi/include/c++/10.3.1/bits/stl_algo.h ****    *  iterator @c i will be in the range @p
 411:/Library/DaisyToolchain/0.2.0/arm/arm-none-eabi/include/c++/10.3.1/bits/stl_algo.h ****    *  [__first1,__last1-(__last2-__first2))
 412:/Library/DaisyToolchain/0.2.0/arm/arm-none-eabi/include/c++/10.3.1/bits/stl_algo.h ****   */
 413:/Library/DaisyToolchain/0.2.0/arm/arm-none-eabi/include/c++/10.3.1/bits/stl_algo.h ****   template<typename _ForwardIterator1, typename _ForwardIterator2,
 414:/Library/DaisyToolchain/0.2.0/arm/arm-none-eabi/include/c++/10.3.1/bits/stl_algo.h **** 	   typename _BinaryPredicate>
 415:/Library/DaisyToolchain/0.2.0/arm/arm-none-eabi/include/c++/10.3.1/bits/stl_algo.h ****     _GLIBCXX20_CONSTEXPR
 416:/Library/DaisyToolchain/0.2.0/arm/arm-none-eabi/include/c++/10.3.1/bits/stl_algo.h ****     inline _ForwardIterator1
 417:/Library/DaisyToolchain/0.2.0/arm/arm-none-eabi/include/c++/10.3.1/bits/stl_algo.h ****     find_end(_ForwardIterator1 __first1, _ForwardIterator1 __last1,
 418:/Library/DaisyToolchain/0.2.0/arm/arm-none-eabi/include/c++/10.3.1/bits/stl_algo.h **** 	     _ForwardIterator2 __first2, _ForwardIterator2 __last2,
 419:/Library/DaisyToolchain/0.2.0/arm/arm-none-eabi/include/c++/10.3.1/bits/stl_algo.h **** 	     _BinaryPredicate __comp)
 420:/Library/DaisyToolchain/0.2.0/arm/arm-none-eabi/include/c++/10.3.1/bits/stl_algo.h ****     {
 421:/Library/DaisyToolchain/0.2.0/arm/arm-none-eabi/include/c++/10.3.1/bits/stl_algo.h ****       // concept requirements
 422:/Library/DaisyToolchain/0.2.0/arm/arm-none-eabi/include/c++/10.3.1/bits/stl_algo.h ****       __glibcxx_function_requires(_ForwardIteratorConcept<_ForwardIterator1>)
 423:/Library/DaisyToolchain/0.2.0/arm/arm-none-eabi/include/c++/10.3.1/bits/stl_algo.h ****       __glibcxx_function_requires(_ForwardIteratorConcept<_ForwardIterator2>)
 424:/Library/DaisyToolchain/0.2.0/arm/arm-none-eabi/include/c++/10.3.1/bits/stl_algo.h ****       __glibcxx_function_requires(_BinaryPredicateConcept<_BinaryPredicate,
 425:/Library/DaisyToolchain/0.2.0/arm/arm-none-eabi/include/c++/10.3.1/bits/stl_algo.h **** 	    typename iterator_traits<_ForwardIterator1>::value_type,
 426:/Library/DaisyToolchain/0.2.0/arm/arm-none-eabi/include/c++/10.3.1/bits/stl_algo.h **** 	    typename iterator_traits<_ForwardIterator2>::value_type>)
 427:/Library/DaisyToolchain/0.2.0/arm/arm-none-eabi/include/c++/10.3.1/bits/stl_algo.h ****       __glibcxx_requires_valid_range(__first1, __last1);
 428:/Library/DaisyToolchain/0.2.0/arm/arm-none-eabi/include/c++/10.3.1/bits/stl_algo.h ****       __glibcxx_requires_valid_range(__first2, __last2);
 429:/Library/DaisyToolchain/0.2.0/arm/arm-none-eabi/include/c++/10.3.1/bits/stl_algo.h **** 
 430:/Library/DaisyToolchain/0.2.0/arm/arm-none-eabi/include/c++/10.3.1/bits/stl_algo.h ****       return std::__find_end(__first1, __last1, __first2, __last2,
 431:/Library/DaisyToolchain/0.2.0/arm/arm-none-eabi/include/c++/10.3.1/bits/stl_algo.h **** 			     std::__iterator_category(__first1),
 432:/Library/DaisyToolchain/0.2.0/arm/arm-none-eabi/include/c++/10.3.1/bits/stl_algo.h **** 			     std::__iterator_category(__first2),
 433:/Library/DaisyToolchain/0.2.0/arm/arm-none-eabi/include/c++/10.3.1/bits/stl_algo.h **** 			     __gnu_cxx::__ops::__iter_comp_iter(__comp));
 434:/Library/DaisyToolchain/0.2.0/arm/arm-none-eabi/include/c++/10.3.1/bits/stl_algo.h ****     }
 435:/Library/DaisyToolchain/0.2.0/arm/arm-none-eabi/include/c++/10.3.1/bits/stl_algo.h **** 
 436:/Library/DaisyToolchain/0.2.0/arm/arm-none-eabi/include/c++/10.3.1/bits/stl_algo.h **** #if __cplusplus >= 201103L
 437:/Library/DaisyToolchain/0.2.0/arm/arm-none-eabi/include/c++/10.3.1/bits/stl_algo.h ****   /**
 438:/Library/DaisyToolchain/0.2.0/arm/arm-none-eabi/include/c++/10.3.1/bits/stl_algo.h ****    *  @brief  Checks that a predicate is true for all the elements
 439:/Library/DaisyToolchain/0.2.0/arm/arm-none-eabi/include/c++/10.3.1/bits/stl_algo.h ****    *          of a sequence.
 440:/Library/DaisyToolchain/0.2.0/arm/arm-none-eabi/include/c++/10.3.1/bits/stl_algo.h ****    *  @ingroup non_mutating_algorithms
 441:/Library/DaisyToolchain/0.2.0/arm/arm-none-eabi/include/c++/10.3.1/bits/stl_algo.h ****    *  @param  __first   An input iterator.
 442:/Library/DaisyToolchain/0.2.0/arm/arm-none-eabi/include/c++/10.3.1/bits/stl_algo.h ****    *  @param  __last    An input iterator.
 443:/Library/DaisyToolchain/0.2.0/arm/arm-none-eabi/include/c++/10.3.1/bits/stl_algo.h ****    *  @param  __pred    A predicate.
 444:/Library/DaisyToolchain/0.2.0/arm/arm-none-eabi/include/c++/10.3.1/bits/stl_algo.h ****    *  @return  True if the check is true, false otherwise.
 445:/Library/DaisyToolchain/0.2.0/arm/arm-none-eabi/include/c++/10.3.1/bits/stl_algo.h ****    *
 446:/Library/DaisyToolchain/0.2.0/arm/arm-none-eabi/include/c++/10.3.1/bits/stl_algo.h ****    *  Returns true if @p __pred is true for each element in the range
 447:/Library/DaisyToolchain/0.2.0/arm/arm-none-eabi/include/c++/10.3.1/bits/stl_algo.h ****    *  @p [__first,__last), and false otherwise.
 448:/Library/DaisyToolchain/0.2.0/arm/arm-none-eabi/include/c++/10.3.1/bits/stl_algo.h ****   */
 449:/Library/DaisyToolchain/0.2.0/arm/arm-none-eabi/include/c++/10.3.1/bits/stl_algo.h ****   template<typename _InputIterator, typename _Predicate>
 450:/Library/DaisyToolchain/0.2.0/arm/arm-none-eabi/include/c++/10.3.1/bits/stl_algo.h ****     _GLIBCXX20_CONSTEXPR
 451:/Library/DaisyToolchain/0.2.0/arm/arm-none-eabi/include/c++/10.3.1/bits/stl_algo.h ****     inline bool
 452:/Library/DaisyToolchain/0.2.0/arm/arm-none-eabi/include/c++/10.3.1/bits/stl_algo.h ****     all_of(_InputIterator __first, _InputIterator __last, _Predicate __pred)
 453:/Library/DaisyToolchain/0.2.0/arm/arm-none-eabi/include/c++/10.3.1/bits/stl_algo.h ****     { return __last == std::find_if_not(__first, __last, __pred); }
 454:/Library/DaisyToolchain/0.2.0/arm/arm-none-eabi/include/c++/10.3.1/bits/stl_algo.h **** 
 455:/Library/DaisyToolchain/0.2.0/arm/arm-none-eabi/include/c++/10.3.1/bits/stl_algo.h ****   /**
ARM GAS  /var/folders/th/s5djnwg15xxc0dk87c413f_h0000gn/T//ccCW3aXI.s 			page 90


 456:/Library/DaisyToolchain/0.2.0/arm/arm-none-eabi/include/c++/10.3.1/bits/stl_algo.h ****    *  @brief  Checks that a predicate is false for all the elements
 457:/Library/DaisyToolchain/0.2.0/arm/arm-none-eabi/include/c++/10.3.1/bits/stl_algo.h ****    *          of a sequence.
 458:/Library/DaisyToolchain/0.2.0/arm/arm-none-eabi/include/c++/10.3.1/bits/stl_algo.h ****    *  @ingroup non_mutating_algorithms
 459:/Library/DaisyToolchain/0.2.0/arm/arm-none-eabi/include/c++/10.3.1/bits/stl_algo.h ****    *  @param  __first   An input iterator.
 460:/Library/DaisyToolchain/0.2.0/arm/arm-none-eabi/include/c++/10.3.1/bits/stl_algo.h ****    *  @param  __last    An input iterator.
 461:/Library/DaisyToolchain/0.2.0/arm/arm-none-eabi/include/c++/10.3.1/bits/stl_algo.h ****    *  @param  __pred    A predicate.
 462:/Library/DaisyToolchain/0.2.0/arm/arm-none-eabi/include/c++/10.3.1/bits/stl_algo.h ****    *  @return  True if the check is true, false otherwise.
 463:/Library/DaisyToolchain/0.2.0/arm/arm-none-eabi/include/c++/10.3.1/bits/stl_algo.h ****    *
 464:/Library/DaisyToolchain/0.2.0/arm/arm-none-eabi/include/c++/10.3.1/bits/stl_algo.h ****    *  Returns true if @p __pred is false for each element in the range
 465:/Library/DaisyToolchain/0.2.0/arm/arm-none-eabi/include/c++/10.3.1/bits/stl_algo.h ****    *  @p [__first,__last), and false otherwise.
 466:/Library/DaisyToolchain/0.2.0/arm/arm-none-eabi/include/c++/10.3.1/bits/stl_algo.h ****   */
 467:/Library/DaisyToolchain/0.2.0/arm/arm-none-eabi/include/c++/10.3.1/bits/stl_algo.h ****   template<typename _InputIterator, typename _Predicate>
 468:/Library/DaisyToolchain/0.2.0/arm/arm-none-eabi/include/c++/10.3.1/bits/stl_algo.h ****     _GLIBCXX20_CONSTEXPR
 469:/Library/DaisyToolchain/0.2.0/arm/arm-none-eabi/include/c++/10.3.1/bits/stl_algo.h ****     inline bool
 470:/Library/DaisyToolchain/0.2.0/arm/arm-none-eabi/include/c++/10.3.1/bits/stl_algo.h ****     none_of(_InputIterator __first, _InputIterator __last, _Predicate __pred)
 471:/Library/DaisyToolchain/0.2.0/arm/arm-none-eabi/include/c++/10.3.1/bits/stl_algo.h ****     { return __last == _GLIBCXX_STD_A::find_if(__first, __last, __pred); }
 472:/Library/DaisyToolchain/0.2.0/arm/arm-none-eabi/include/c++/10.3.1/bits/stl_algo.h **** 
 473:/Library/DaisyToolchain/0.2.0/arm/arm-none-eabi/include/c++/10.3.1/bits/stl_algo.h ****   /**
 474:/Library/DaisyToolchain/0.2.0/arm/arm-none-eabi/include/c++/10.3.1/bits/stl_algo.h ****    *  @brief  Checks that a predicate is true for at least one element
 475:/Library/DaisyToolchain/0.2.0/arm/arm-none-eabi/include/c++/10.3.1/bits/stl_algo.h ****    *          of a sequence.
 476:/Library/DaisyToolchain/0.2.0/arm/arm-none-eabi/include/c++/10.3.1/bits/stl_algo.h ****    *  @ingroup non_mutating_algorithms
 477:/Library/DaisyToolchain/0.2.0/arm/arm-none-eabi/include/c++/10.3.1/bits/stl_algo.h ****    *  @param  __first   An input iterator.
 478:/Library/DaisyToolchain/0.2.0/arm/arm-none-eabi/include/c++/10.3.1/bits/stl_algo.h ****    *  @param  __last    An input iterator.
 479:/Library/DaisyToolchain/0.2.0/arm/arm-none-eabi/include/c++/10.3.1/bits/stl_algo.h ****    *  @param  __pred    A predicate.
 480:/Library/DaisyToolchain/0.2.0/arm/arm-none-eabi/include/c++/10.3.1/bits/stl_algo.h ****    *  @return  True if the check is true, false otherwise.
 481:/Library/DaisyToolchain/0.2.0/arm/arm-none-eabi/include/c++/10.3.1/bits/stl_algo.h ****    *
 482:/Library/DaisyToolchain/0.2.0/arm/arm-none-eabi/include/c++/10.3.1/bits/stl_algo.h ****    *  Returns true if an element exists in the range @p
 483:/Library/DaisyToolchain/0.2.0/arm/arm-none-eabi/include/c++/10.3.1/bits/stl_algo.h ****    *  [__first,__last) such that @p __pred is true, and false
 484:/Library/DaisyToolchain/0.2.0/arm/arm-none-eabi/include/c++/10.3.1/bits/stl_algo.h ****    *  otherwise.
 485:/Library/DaisyToolchain/0.2.0/arm/arm-none-eabi/include/c++/10.3.1/bits/stl_algo.h ****   */
 486:/Library/DaisyToolchain/0.2.0/arm/arm-none-eabi/include/c++/10.3.1/bits/stl_algo.h ****   template<typename _InputIterator, typename _Predicate>
 487:/Library/DaisyToolchain/0.2.0/arm/arm-none-eabi/include/c++/10.3.1/bits/stl_algo.h ****     _GLIBCXX20_CONSTEXPR
 488:/Library/DaisyToolchain/0.2.0/arm/arm-none-eabi/include/c++/10.3.1/bits/stl_algo.h ****     inline bool
 489:/Library/DaisyToolchain/0.2.0/arm/arm-none-eabi/include/c++/10.3.1/bits/stl_algo.h ****     any_of(_InputIterator __first, _InputIterator __last, _Predicate __pred)
 490:/Library/DaisyToolchain/0.2.0/arm/arm-none-eabi/include/c++/10.3.1/bits/stl_algo.h ****     { return !std::none_of(__first, __last, __pred); }
 491:/Library/DaisyToolchain/0.2.0/arm/arm-none-eabi/include/c++/10.3.1/bits/stl_algo.h **** 
 492:/Library/DaisyToolchain/0.2.0/arm/arm-none-eabi/include/c++/10.3.1/bits/stl_algo.h ****   /**
 493:/Library/DaisyToolchain/0.2.0/arm/arm-none-eabi/include/c++/10.3.1/bits/stl_algo.h ****    *  @brief  Find the first element in a sequence for which a
 494:/Library/DaisyToolchain/0.2.0/arm/arm-none-eabi/include/c++/10.3.1/bits/stl_algo.h ****    *          predicate is false.
 495:/Library/DaisyToolchain/0.2.0/arm/arm-none-eabi/include/c++/10.3.1/bits/stl_algo.h ****    *  @ingroup non_mutating_algorithms
 496:/Library/DaisyToolchain/0.2.0/arm/arm-none-eabi/include/c++/10.3.1/bits/stl_algo.h ****    *  @param  __first  An input iterator.
 497:/Library/DaisyToolchain/0.2.0/arm/arm-none-eabi/include/c++/10.3.1/bits/stl_algo.h ****    *  @param  __last   An input iterator.
 498:/Library/DaisyToolchain/0.2.0/arm/arm-none-eabi/include/c++/10.3.1/bits/stl_algo.h ****    *  @param  __pred   A predicate.
 499:/Library/DaisyToolchain/0.2.0/arm/arm-none-eabi/include/c++/10.3.1/bits/stl_algo.h ****    *  @return   The first iterator @c i in the range @p [__first,__last)
 500:/Library/DaisyToolchain/0.2.0/arm/arm-none-eabi/include/c++/10.3.1/bits/stl_algo.h ****    *  such that @p __pred(*i) is false, or @p __last if no such iterator exists.
 501:/Library/DaisyToolchain/0.2.0/arm/arm-none-eabi/include/c++/10.3.1/bits/stl_algo.h ****   */
 502:/Library/DaisyToolchain/0.2.0/arm/arm-none-eabi/include/c++/10.3.1/bits/stl_algo.h ****   template<typename _InputIterator, typename _Predicate>
 503:/Library/DaisyToolchain/0.2.0/arm/arm-none-eabi/include/c++/10.3.1/bits/stl_algo.h ****     _GLIBCXX20_CONSTEXPR
 504:/Library/DaisyToolchain/0.2.0/arm/arm-none-eabi/include/c++/10.3.1/bits/stl_algo.h ****     inline _InputIterator
 505:/Library/DaisyToolchain/0.2.0/arm/arm-none-eabi/include/c++/10.3.1/bits/stl_algo.h ****     find_if_not(_InputIterator __first, _InputIterator __last,
 506:/Library/DaisyToolchain/0.2.0/arm/arm-none-eabi/include/c++/10.3.1/bits/stl_algo.h **** 		_Predicate __pred)
 507:/Library/DaisyToolchain/0.2.0/arm/arm-none-eabi/include/c++/10.3.1/bits/stl_algo.h ****     {
 508:/Library/DaisyToolchain/0.2.0/arm/arm-none-eabi/include/c++/10.3.1/bits/stl_algo.h ****       // concept requirements
 509:/Library/DaisyToolchain/0.2.0/arm/arm-none-eabi/include/c++/10.3.1/bits/stl_algo.h ****       __glibcxx_function_requires(_InputIteratorConcept<_InputIterator>)
 510:/Library/DaisyToolchain/0.2.0/arm/arm-none-eabi/include/c++/10.3.1/bits/stl_algo.h ****       __glibcxx_function_requires(_UnaryPredicateConcept<_Predicate,
 511:/Library/DaisyToolchain/0.2.0/arm/arm-none-eabi/include/c++/10.3.1/bits/stl_algo.h **** 	      typename iterator_traits<_InputIterator>::value_type>)
 512:/Library/DaisyToolchain/0.2.0/arm/arm-none-eabi/include/c++/10.3.1/bits/stl_algo.h ****       __glibcxx_requires_valid_range(__first, __last);
ARM GAS  /var/folders/th/s5djnwg15xxc0dk87c413f_h0000gn/T//ccCW3aXI.s 			page 91


 513:/Library/DaisyToolchain/0.2.0/arm/arm-none-eabi/include/c++/10.3.1/bits/stl_algo.h ****       return std::__find_if_not(__first, __last,
 514:/Library/DaisyToolchain/0.2.0/arm/arm-none-eabi/include/c++/10.3.1/bits/stl_algo.h **** 				__gnu_cxx::__ops::__pred_iter(__pred));
 515:/Library/DaisyToolchain/0.2.0/arm/arm-none-eabi/include/c++/10.3.1/bits/stl_algo.h ****     }
 516:/Library/DaisyToolchain/0.2.0/arm/arm-none-eabi/include/c++/10.3.1/bits/stl_algo.h **** 
 517:/Library/DaisyToolchain/0.2.0/arm/arm-none-eabi/include/c++/10.3.1/bits/stl_algo.h ****   /**
 518:/Library/DaisyToolchain/0.2.0/arm/arm-none-eabi/include/c++/10.3.1/bits/stl_algo.h ****    *  @brief  Checks whether the sequence is partitioned.
 519:/Library/DaisyToolchain/0.2.0/arm/arm-none-eabi/include/c++/10.3.1/bits/stl_algo.h ****    *  @ingroup mutating_algorithms
 520:/Library/DaisyToolchain/0.2.0/arm/arm-none-eabi/include/c++/10.3.1/bits/stl_algo.h ****    *  @param  __first  An input iterator.
 521:/Library/DaisyToolchain/0.2.0/arm/arm-none-eabi/include/c++/10.3.1/bits/stl_algo.h ****    *  @param  __last   An input iterator.
 522:/Library/DaisyToolchain/0.2.0/arm/arm-none-eabi/include/c++/10.3.1/bits/stl_algo.h ****    *  @param  __pred   A predicate.
 523:/Library/DaisyToolchain/0.2.0/arm/arm-none-eabi/include/c++/10.3.1/bits/stl_algo.h ****    *  @return  True if the range @p [__first,__last) is partioned by @p __pred,
 524:/Library/DaisyToolchain/0.2.0/arm/arm-none-eabi/include/c++/10.3.1/bits/stl_algo.h ****    *  i.e. if all elements that satisfy @p __pred appear before those that
 525:/Library/DaisyToolchain/0.2.0/arm/arm-none-eabi/include/c++/10.3.1/bits/stl_algo.h ****    *  do not.
 526:/Library/DaisyToolchain/0.2.0/arm/arm-none-eabi/include/c++/10.3.1/bits/stl_algo.h ****   */
 527:/Library/DaisyToolchain/0.2.0/arm/arm-none-eabi/include/c++/10.3.1/bits/stl_algo.h ****   template<typename _InputIterator, typename _Predicate>
 528:/Library/DaisyToolchain/0.2.0/arm/arm-none-eabi/include/c++/10.3.1/bits/stl_algo.h ****     _GLIBCXX20_CONSTEXPR
 529:/Library/DaisyToolchain/0.2.0/arm/arm-none-eabi/include/c++/10.3.1/bits/stl_algo.h ****     inline bool
 530:/Library/DaisyToolchain/0.2.0/arm/arm-none-eabi/include/c++/10.3.1/bits/stl_algo.h ****     is_partitioned(_InputIterator __first, _InputIterator __last,
 531:/Library/DaisyToolchain/0.2.0/arm/arm-none-eabi/include/c++/10.3.1/bits/stl_algo.h **** 		   _Predicate __pred)
 532:/Library/DaisyToolchain/0.2.0/arm/arm-none-eabi/include/c++/10.3.1/bits/stl_algo.h ****     {
 533:/Library/DaisyToolchain/0.2.0/arm/arm-none-eabi/include/c++/10.3.1/bits/stl_algo.h ****       __first = std::find_if_not(__first, __last, __pred);
 534:/Library/DaisyToolchain/0.2.0/arm/arm-none-eabi/include/c++/10.3.1/bits/stl_algo.h ****       if (__first == __last)
 535:/Library/DaisyToolchain/0.2.0/arm/arm-none-eabi/include/c++/10.3.1/bits/stl_algo.h **** 	return true;
 536:/Library/DaisyToolchain/0.2.0/arm/arm-none-eabi/include/c++/10.3.1/bits/stl_algo.h ****       ++__first;
 537:/Library/DaisyToolchain/0.2.0/arm/arm-none-eabi/include/c++/10.3.1/bits/stl_algo.h ****       return std::none_of(__first, __last, __pred);
 538:/Library/DaisyToolchain/0.2.0/arm/arm-none-eabi/include/c++/10.3.1/bits/stl_algo.h ****     }
 539:/Library/DaisyToolchain/0.2.0/arm/arm-none-eabi/include/c++/10.3.1/bits/stl_algo.h **** 
 540:/Library/DaisyToolchain/0.2.0/arm/arm-none-eabi/include/c++/10.3.1/bits/stl_algo.h ****   /**
 541:/Library/DaisyToolchain/0.2.0/arm/arm-none-eabi/include/c++/10.3.1/bits/stl_algo.h ****    *  @brief  Find the partition point of a partitioned range.
 542:/Library/DaisyToolchain/0.2.0/arm/arm-none-eabi/include/c++/10.3.1/bits/stl_algo.h ****    *  @ingroup mutating_algorithms
 543:/Library/DaisyToolchain/0.2.0/arm/arm-none-eabi/include/c++/10.3.1/bits/stl_algo.h ****    *  @param  __first   An iterator.
 544:/Library/DaisyToolchain/0.2.0/arm/arm-none-eabi/include/c++/10.3.1/bits/stl_algo.h ****    *  @param  __last    Another iterator.
 545:/Library/DaisyToolchain/0.2.0/arm/arm-none-eabi/include/c++/10.3.1/bits/stl_algo.h ****    *  @param  __pred    A predicate.
 546:/Library/DaisyToolchain/0.2.0/arm/arm-none-eabi/include/c++/10.3.1/bits/stl_algo.h ****    *  @return  An iterator @p mid such that @p all_of(__first, mid, __pred)
 547:/Library/DaisyToolchain/0.2.0/arm/arm-none-eabi/include/c++/10.3.1/bits/stl_algo.h ****    *           and @p none_of(mid, __last, __pred) are both true.
 548:/Library/DaisyToolchain/0.2.0/arm/arm-none-eabi/include/c++/10.3.1/bits/stl_algo.h ****   */
 549:/Library/DaisyToolchain/0.2.0/arm/arm-none-eabi/include/c++/10.3.1/bits/stl_algo.h ****   template<typename _ForwardIterator, typename _Predicate>
 550:/Library/DaisyToolchain/0.2.0/arm/arm-none-eabi/include/c++/10.3.1/bits/stl_algo.h ****     _GLIBCXX20_CONSTEXPR
 551:/Library/DaisyToolchain/0.2.0/arm/arm-none-eabi/include/c++/10.3.1/bits/stl_algo.h ****     _ForwardIterator
 552:/Library/DaisyToolchain/0.2.0/arm/arm-none-eabi/include/c++/10.3.1/bits/stl_algo.h ****     partition_point(_ForwardIterator __first, _ForwardIterator __last,
 553:/Library/DaisyToolchain/0.2.0/arm/arm-none-eabi/include/c++/10.3.1/bits/stl_algo.h **** 		    _Predicate __pred)
 554:/Library/DaisyToolchain/0.2.0/arm/arm-none-eabi/include/c++/10.3.1/bits/stl_algo.h ****     {
 555:/Library/DaisyToolchain/0.2.0/arm/arm-none-eabi/include/c++/10.3.1/bits/stl_algo.h ****       // concept requirements
 556:/Library/DaisyToolchain/0.2.0/arm/arm-none-eabi/include/c++/10.3.1/bits/stl_algo.h ****       __glibcxx_function_requires(_ForwardIteratorConcept<_ForwardIterator>)
 557:/Library/DaisyToolchain/0.2.0/arm/arm-none-eabi/include/c++/10.3.1/bits/stl_algo.h ****       __glibcxx_function_requires(_UnaryPredicateConcept<_Predicate,
 558:/Library/DaisyToolchain/0.2.0/arm/arm-none-eabi/include/c++/10.3.1/bits/stl_algo.h **** 	      typename iterator_traits<_ForwardIterator>::value_type>)
 559:/Library/DaisyToolchain/0.2.0/arm/arm-none-eabi/include/c++/10.3.1/bits/stl_algo.h **** 
 560:/Library/DaisyToolchain/0.2.0/arm/arm-none-eabi/include/c++/10.3.1/bits/stl_algo.h ****       // A specific debug-mode test will be necessary...
 561:/Library/DaisyToolchain/0.2.0/arm/arm-none-eabi/include/c++/10.3.1/bits/stl_algo.h ****       __glibcxx_requires_valid_range(__first, __last);
 562:/Library/DaisyToolchain/0.2.0/arm/arm-none-eabi/include/c++/10.3.1/bits/stl_algo.h **** 
 563:/Library/DaisyToolchain/0.2.0/arm/arm-none-eabi/include/c++/10.3.1/bits/stl_algo.h ****       typedef typename iterator_traits<_ForwardIterator>::difference_type
 564:/Library/DaisyToolchain/0.2.0/arm/arm-none-eabi/include/c++/10.3.1/bits/stl_algo.h **** 	_DistanceType;
 565:/Library/DaisyToolchain/0.2.0/arm/arm-none-eabi/include/c++/10.3.1/bits/stl_algo.h **** 
 566:/Library/DaisyToolchain/0.2.0/arm/arm-none-eabi/include/c++/10.3.1/bits/stl_algo.h ****       _DistanceType __len = std::distance(__first, __last);
 567:/Library/DaisyToolchain/0.2.0/arm/arm-none-eabi/include/c++/10.3.1/bits/stl_algo.h **** 
 568:/Library/DaisyToolchain/0.2.0/arm/arm-none-eabi/include/c++/10.3.1/bits/stl_algo.h ****       while (__len > 0)
 569:/Library/DaisyToolchain/0.2.0/arm/arm-none-eabi/include/c++/10.3.1/bits/stl_algo.h **** 	{
ARM GAS  /var/folders/th/s5djnwg15xxc0dk87c413f_h0000gn/T//ccCW3aXI.s 			page 92


 570:/Library/DaisyToolchain/0.2.0/arm/arm-none-eabi/include/c++/10.3.1/bits/stl_algo.h **** 	  _DistanceType __half = __len >> 1;
 571:/Library/DaisyToolchain/0.2.0/arm/arm-none-eabi/include/c++/10.3.1/bits/stl_algo.h **** 	  _ForwardIterator __middle = __first;
 572:/Library/DaisyToolchain/0.2.0/arm/arm-none-eabi/include/c++/10.3.1/bits/stl_algo.h **** 	  std::advance(__middle, __half);
 573:/Library/DaisyToolchain/0.2.0/arm/arm-none-eabi/include/c++/10.3.1/bits/stl_algo.h **** 	  if (__pred(*__middle))
 574:/Library/DaisyToolchain/0.2.0/arm/arm-none-eabi/include/c++/10.3.1/bits/stl_algo.h **** 	    {
 575:/Library/DaisyToolchain/0.2.0/arm/arm-none-eabi/include/c++/10.3.1/bits/stl_algo.h **** 	      __first = __middle;
 576:/Library/DaisyToolchain/0.2.0/arm/arm-none-eabi/include/c++/10.3.1/bits/stl_algo.h **** 	      ++__first;
 577:/Library/DaisyToolchain/0.2.0/arm/arm-none-eabi/include/c++/10.3.1/bits/stl_algo.h **** 	      __len = __len - __half - 1;
 578:/Library/DaisyToolchain/0.2.0/arm/arm-none-eabi/include/c++/10.3.1/bits/stl_algo.h **** 	    }
 579:/Library/DaisyToolchain/0.2.0/arm/arm-none-eabi/include/c++/10.3.1/bits/stl_algo.h **** 	  else
 580:/Library/DaisyToolchain/0.2.0/arm/arm-none-eabi/include/c++/10.3.1/bits/stl_algo.h **** 	    __len = __half;
 581:/Library/DaisyToolchain/0.2.0/arm/arm-none-eabi/include/c++/10.3.1/bits/stl_algo.h **** 	}
 582:/Library/DaisyToolchain/0.2.0/arm/arm-none-eabi/include/c++/10.3.1/bits/stl_algo.h ****       return __first;
 583:/Library/DaisyToolchain/0.2.0/arm/arm-none-eabi/include/c++/10.3.1/bits/stl_algo.h ****     }
 584:/Library/DaisyToolchain/0.2.0/arm/arm-none-eabi/include/c++/10.3.1/bits/stl_algo.h **** #endif
 585:/Library/DaisyToolchain/0.2.0/arm/arm-none-eabi/include/c++/10.3.1/bits/stl_algo.h **** 
 586:/Library/DaisyToolchain/0.2.0/arm/arm-none-eabi/include/c++/10.3.1/bits/stl_algo.h ****   template<typename _InputIterator, typename _OutputIterator,
 587:/Library/DaisyToolchain/0.2.0/arm/arm-none-eabi/include/c++/10.3.1/bits/stl_algo.h **** 	   typename _Predicate>
 588:/Library/DaisyToolchain/0.2.0/arm/arm-none-eabi/include/c++/10.3.1/bits/stl_algo.h ****     _GLIBCXX20_CONSTEXPR
 589:/Library/DaisyToolchain/0.2.0/arm/arm-none-eabi/include/c++/10.3.1/bits/stl_algo.h ****     _OutputIterator
 590:/Library/DaisyToolchain/0.2.0/arm/arm-none-eabi/include/c++/10.3.1/bits/stl_algo.h ****     __remove_copy_if(_InputIterator __first, _InputIterator __last,
 591:/Library/DaisyToolchain/0.2.0/arm/arm-none-eabi/include/c++/10.3.1/bits/stl_algo.h **** 		     _OutputIterator __result, _Predicate __pred)
 592:/Library/DaisyToolchain/0.2.0/arm/arm-none-eabi/include/c++/10.3.1/bits/stl_algo.h ****     {
 593:/Library/DaisyToolchain/0.2.0/arm/arm-none-eabi/include/c++/10.3.1/bits/stl_algo.h ****       for (; __first != __last; ++__first)
 594:/Library/DaisyToolchain/0.2.0/arm/arm-none-eabi/include/c++/10.3.1/bits/stl_algo.h **** 	if (!__pred(__first))
 595:/Library/DaisyToolchain/0.2.0/arm/arm-none-eabi/include/c++/10.3.1/bits/stl_algo.h **** 	  {
 596:/Library/DaisyToolchain/0.2.0/arm/arm-none-eabi/include/c++/10.3.1/bits/stl_algo.h **** 	    *__result = *__first;
 597:/Library/DaisyToolchain/0.2.0/arm/arm-none-eabi/include/c++/10.3.1/bits/stl_algo.h **** 	    ++__result;
 598:/Library/DaisyToolchain/0.2.0/arm/arm-none-eabi/include/c++/10.3.1/bits/stl_algo.h **** 	  }
 599:/Library/DaisyToolchain/0.2.0/arm/arm-none-eabi/include/c++/10.3.1/bits/stl_algo.h ****       return __result;
 600:/Library/DaisyToolchain/0.2.0/arm/arm-none-eabi/include/c++/10.3.1/bits/stl_algo.h ****     }
 601:/Library/DaisyToolchain/0.2.0/arm/arm-none-eabi/include/c++/10.3.1/bits/stl_algo.h **** 
 602:/Library/DaisyToolchain/0.2.0/arm/arm-none-eabi/include/c++/10.3.1/bits/stl_algo.h ****   /**
 603:/Library/DaisyToolchain/0.2.0/arm/arm-none-eabi/include/c++/10.3.1/bits/stl_algo.h ****    *  @brief Copy a sequence, removing elements of a given value.
 604:/Library/DaisyToolchain/0.2.0/arm/arm-none-eabi/include/c++/10.3.1/bits/stl_algo.h ****    *  @ingroup mutating_algorithms
 605:/Library/DaisyToolchain/0.2.0/arm/arm-none-eabi/include/c++/10.3.1/bits/stl_algo.h ****    *  @param  __first   An input iterator.
 606:/Library/DaisyToolchain/0.2.0/arm/arm-none-eabi/include/c++/10.3.1/bits/stl_algo.h ****    *  @param  __last    An input iterator.
 607:/Library/DaisyToolchain/0.2.0/arm/arm-none-eabi/include/c++/10.3.1/bits/stl_algo.h ****    *  @param  __result  An output iterator.
 608:/Library/DaisyToolchain/0.2.0/arm/arm-none-eabi/include/c++/10.3.1/bits/stl_algo.h ****    *  @param  __value   The value to be removed.
 609:/Library/DaisyToolchain/0.2.0/arm/arm-none-eabi/include/c++/10.3.1/bits/stl_algo.h ****    *  @return   An iterator designating the end of the resulting sequence.
 610:/Library/DaisyToolchain/0.2.0/arm/arm-none-eabi/include/c++/10.3.1/bits/stl_algo.h ****    *
 611:/Library/DaisyToolchain/0.2.0/arm/arm-none-eabi/include/c++/10.3.1/bits/stl_algo.h ****    *  Copies each element in the range @p [__first,__last) not equal
 612:/Library/DaisyToolchain/0.2.0/arm/arm-none-eabi/include/c++/10.3.1/bits/stl_algo.h ****    *  to @p __value to the range beginning at @p __result.
 613:/Library/DaisyToolchain/0.2.0/arm/arm-none-eabi/include/c++/10.3.1/bits/stl_algo.h ****    *  remove_copy() is stable, so the relative order of elements that
 614:/Library/DaisyToolchain/0.2.0/arm/arm-none-eabi/include/c++/10.3.1/bits/stl_algo.h ****    *  are copied is unchanged.
 615:/Library/DaisyToolchain/0.2.0/arm/arm-none-eabi/include/c++/10.3.1/bits/stl_algo.h ****   */
 616:/Library/DaisyToolchain/0.2.0/arm/arm-none-eabi/include/c++/10.3.1/bits/stl_algo.h ****   template<typename _InputIterator, typename _OutputIterator, typename _Tp>
 617:/Library/DaisyToolchain/0.2.0/arm/arm-none-eabi/include/c++/10.3.1/bits/stl_algo.h ****     _GLIBCXX20_CONSTEXPR
 618:/Library/DaisyToolchain/0.2.0/arm/arm-none-eabi/include/c++/10.3.1/bits/stl_algo.h ****     inline _OutputIterator
 619:/Library/DaisyToolchain/0.2.0/arm/arm-none-eabi/include/c++/10.3.1/bits/stl_algo.h ****     remove_copy(_InputIterator __first, _InputIterator __last,
 620:/Library/DaisyToolchain/0.2.0/arm/arm-none-eabi/include/c++/10.3.1/bits/stl_algo.h **** 		_OutputIterator __result, const _Tp& __value)
 621:/Library/DaisyToolchain/0.2.0/arm/arm-none-eabi/include/c++/10.3.1/bits/stl_algo.h ****     {
 622:/Library/DaisyToolchain/0.2.0/arm/arm-none-eabi/include/c++/10.3.1/bits/stl_algo.h ****       // concept requirements
 623:/Library/DaisyToolchain/0.2.0/arm/arm-none-eabi/include/c++/10.3.1/bits/stl_algo.h ****       __glibcxx_function_requires(_InputIteratorConcept<_InputIterator>)
 624:/Library/DaisyToolchain/0.2.0/arm/arm-none-eabi/include/c++/10.3.1/bits/stl_algo.h ****       __glibcxx_function_requires(_OutputIteratorConcept<_OutputIterator,
 625:/Library/DaisyToolchain/0.2.0/arm/arm-none-eabi/include/c++/10.3.1/bits/stl_algo.h **** 	    typename iterator_traits<_InputIterator>::value_type>)
 626:/Library/DaisyToolchain/0.2.0/arm/arm-none-eabi/include/c++/10.3.1/bits/stl_algo.h ****       __glibcxx_function_requires(_EqualOpConcept<
ARM GAS  /var/folders/th/s5djnwg15xxc0dk87c413f_h0000gn/T//ccCW3aXI.s 			page 93


 627:/Library/DaisyToolchain/0.2.0/arm/arm-none-eabi/include/c++/10.3.1/bits/stl_algo.h **** 	    typename iterator_traits<_InputIterator>::value_type, _Tp>)
 628:/Library/DaisyToolchain/0.2.0/arm/arm-none-eabi/include/c++/10.3.1/bits/stl_algo.h ****       __glibcxx_requires_valid_range(__first, __last);
 629:/Library/DaisyToolchain/0.2.0/arm/arm-none-eabi/include/c++/10.3.1/bits/stl_algo.h **** 
 630:/Library/DaisyToolchain/0.2.0/arm/arm-none-eabi/include/c++/10.3.1/bits/stl_algo.h ****       return std::__remove_copy_if(__first, __last, __result,
 631:/Library/DaisyToolchain/0.2.0/arm/arm-none-eabi/include/c++/10.3.1/bits/stl_algo.h **** 	__gnu_cxx::__ops::__iter_equals_val(__value));
 632:/Library/DaisyToolchain/0.2.0/arm/arm-none-eabi/include/c++/10.3.1/bits/stl_algo.h ****     }
 633:/Library/DaisyToolchain/0.2.0/arm/arm-none-eabi/include/c++/10.3.1/bits/stl_algo.h **** 
 634:/Library/DaisyToolchain/0.2.0/arm/arm-none-eabi/include/c++/10.3.1/bits/stl_algo.h ****   /**
 635:/Library/DaisyToolchain/0.2.0/arm/arm-none-eabi/include/c++/10.3.1/bits/stl_algo.h ****    *  @brief Copy a sequence, removing elements for which a predicate is true.
 636:/Library/DaisyToolchain/0.2.0/arm/arm-none-eabi/include/c++/10.3.1/bits/stl_algo.h ****    *  @ingroup mutating_algorithms
 637:/Library/DaisyToolchain/0.2.0/arm/arm-none-eabi/include/c++/10.3.1/bits/stl_algo.h ****    *  @param  __first   An input iterator.
 638:/Library/DaisyToolchain/0.2.0/arm/arm-none-eabi/include/c++/10.3.1/bits/stl_algo.h ****    *  @param  __last    An input iterator.
 639:/Library/DaisyToolchain/0.2.0/arm/arm-none-eabi/include/c++/10.3.1/bits/stl_algo.h ****    *  @param  __result  An output iterator.
 640:/Library/DaisyToolchain/0.2.0/arm/arm-none-eabi/include/c++/10.3.1/bits/stl_algo.h ****    *  @param  __pred    A predicate.
 641:/Library/DaisyToolchain/0.2.0/arm/arm-none-eabi/include/c++/10.3.1/bits/stl_algo.h ****    *  @return   An iterator designating the end of the resulting sequence.
 642:/Library/DaisyToolchain/0.2.0/arm/arm-none-eabi/include/c++/10.3.1/bits/stl_algo.h ****    *
 643:/Library/DaisyToolchain/0.2.0/arm/arm-none-eabi/include/c++/10.3.1/bits/stl_algo.h ****    *  Copies each element in the range @p [__first,__last) for which
 644:/Library/DaisyToolchain/0.2.0/arm/arm-none-eabi/include/c++/10.3.1/bits/stl_algo.h ****    *  @p __pred returns false to the range beginning at @p __result.
 645:/Library/DaisyToolchain/0.2.0/arm/arm-none-eabi/include/c++/10.3.1/bits/stl_algo.h ****    *
 646:/Library/DaisyToolchain/0.2.0/arm/arm-none-eabi/include/c++/10.3.1/bits/stl_algo.h ****    *  remove_copy_if() is stable, so the relative order of elements that are
 647:/Library/DaisyToolchain/0.2.0/arm/arm-none-eabi/include/c++/10.3.1/bits/stl_algo.h ****    *  copied is unchanged.
 648:/Library/DaisyToolchain/0.2.0/arm/arm-none-eabi/include/c++/10.3.1/bits/stl_algo.h ****   */
 649:/Library/DaisyToolchain/0.2.0/arm/arm-none-eabi/include/c++/10.3.1/bits/stl_algo.h ****   template<typename _InputIterator, typename _OutputIterator,
 650:/Library/DaisyToolchain/0.2.0/arm/arm-none-eabi/include/c++/10.3.1/bits/stl_algo.h **** 	   typename _Predicate>
 651:/Library/DaisyToolchain/0.2.0/arm/arm-none-eabi/include/c++/10.3.1/bits/stl_algo.h ****     _GLIBCXX20_CONSTEXPR
 652:/Library/DaisyToolchain/0.2.0/arm/arm-none-eabi/include/c++/10.3.1/bits/stl_algo.h ****     inline _OutputIterator
 653:/Library/DaisyToolchain/0.2.0/arm/arm-none-eabi/include/c++/10.3.1/bits/stl_algo.h ****     remove_copy_if(_InputIterator __first, _InputIterator __last,
 654:/Library/DaisyToolchain/0.2.0/arm/arm-none-eabi/include/c++/10.3.1/bits/stl_algo.h **** 		   _OutputIterator __result, _Predicate __pred)
 655:/Library/DaisyToolchain/0.2.0/arm/arm-none-eabi/include/c++/10.3.1/bits/stl_algo.h ****     {
 656:/Library/DaisyToolchain/0.2.0/arm/arm-none-eabi/include/c++/10.3.1/bits/stl_algo.h ****       // concept requirements
 657:/Library/DaisyToolchain/0.2.0/arm/arm-none-eabi/include/c++/10.3.1/bits/stl_algo.h ****       __glibcxx_function_requires(_InputIteratorConcept<_InputIterator>)
 658:/Library/DaisyToolchain/0.2.0/arm/arm-none-eabi/include/c++/10.3.1/bits/stl_algo.h ****       __glibcxx_function_requires(_OutputIteratorConcept<_OutputIterator,
 659:/Library/DaisyToolchain/0.2.0/arm/arm-none-eabi/include/c++/10.3.1/bits/stl_algo.h **** 	    typename iterator_traits<_InputIterator>::value_type>)
 660:/Library/DaisyToolchain/0.2.0/arm/arm-none-eabi/include/c++/10.3.1/bits/stl_algo.h ****       __glibcxx_function_requires(_UnaryPredicateConcept<_Predicate,
 661:/Library/DaisyToolchain/0.2.0/arm/arm-none-eabi/include/c++/10.3.1/bits/stl_algo.h **** 	    typename iterator_traits<_InputIterator>::value_type>)
 662:/Library/DaisyToolchain/0.2.0/arm/arm-none-eabi/include/c++/10.3.1/bits/stl_algo.h ****       __glibcxx_requires_valid_range(__first, __last);
 663:/Library/DaisyToolchain/0.2.0/arm/arm-none-eabi/include/c++/10.3.1/bits/stl_algo.h **** 
 664:/Library/DaisyToolchain/0.2.0/arm/arm-none-eabi/include/c++/10.3.1/bits/stl_algo.h ****       return std::__remove_copy_if(__first, __last, __result,
 665:/Library/DaisyToolchain/0.2.0/arm/arm-none-eabi/include/c++/10.3.1/bits/stl_algo.h **** 				   __gnu_cxx::__ops::__pred_iter(__pred));
 666:/Library/DaisyToolchain/0.2.0/arm/arm-none-eabi/include/c++/10.3.1/bits/stl_algo.h ****     }
 667:/Library/DaisyToolchain/0.2.0/arm/arm-none-eabi/include/c++/10.3.1/bits/stl_algo.h **** 
 668:/Library/DaisyToolchain/0.2.0/arm/arm-none-eabi/include/c++/10.3.1/bits/stl_algo.h **** #if __cplusplus >= 201103L
 669:/Library/DaisyToolchain/0.2.0/arm/arm-none-eabi/include/c++/10.3.1/bits/stl_algo.h ****   /**
 670:/Library/DaisyToolchain/0.2.0/arm/arm-none-eabi/include/c++/10.3.1/bits/stl_algo.h ****    *  @brief Copy the elements of a sequence for which a predicate is true.
 671:/Library/DaisyToolchain/0.2.0/arm/arm-none-eabi/include/c++/10.3.1/bits/stl_algo.h ****    *  @ingroup mutating_algorithms
 672:/Library/DaisyToolchain/0.2.0/arm/arm-none-eabi/include/c++/10.3.1/bits/stl_algo.h ****    *  @param  __first   An input iterator.
 673:/Library/DaisyToolchain/0.2.0/arm/arm-none-eabi/include/c++/10.3.1/bits/stl_algo.h ****    *  @param  __last    An input iterator.
 674:/Library/DaisyToolchain/0.2.0/arm/arm-none-eabi/include/c++/10.3.1/bits/stl_algo.h ****    *  @param  __result  An output iterator.
 675:/Library/DaisyToolchain/0.2.0/arm/arm-none-eabi/include/c++/10.3.1/bits/stl_algo.h ****    *  @param  __pred    A predicate.
 676:/Library/DaisyToolchain/0.2.0/arm/arm-none-eabi/include/c++/10.3.1/bits/stl_algo.h ****    *  @return   An iterator designating the end of the resulting sequence.
 677:/Library/DaisyToolchain/0.2.0/arm/arm-none-eabi/include/c++/10.3.1/bits/stl_algo.h ****    *
 678:/Library/DaisyToolchain/0.2.0/arm/arm-none-eabi/include/c++/10.3.1/bits/stl_algo.h ****    *  Copies each element in the range @p [__first,__last) for which
 679:/Library/DaisyToolchain/0.2.0/arm/arm-none-eabi/include/c++/10.3.1/bits/stl_algo.h ****    *  @p __pred returns true to the range beginning at @p __result.
 680:/Library/DaisyToolchain/0.2.0/arm/arm-none-eabi/include/c++/10.3.1/bits/stl_algo.h ****    *
 681:/Library/DaisyToolchain/0.2.0/arm/arm-none-eabi/include/c++/10.3.1/bits/stl_algo.h ****    *  copy_if() is stable, so the relative order of elements that are
 682:/Library/DaisyToolchain/0.2.0/arm/arm-none-eabi/include/c++/10.3.1/bits/stl_algo.h ****    *  copied is unchanged.
 683:/Library/DaisyToolchain/0.2.0/arm/arm-none-eabi/include/c++/10.3.1/bits/stl_algo.h ****   */
ARM GAS  /var/folders/th/s5djnwg15xxc0dk87c413f_h0000gn/T//ccCW3aXI.s 			page 94


 684:/Library/DaisyToolchain/0.2.0/arm/arm-none-eabi/include/c++/10.3.1/bits/stl_algo.h ****   template<typename _InputIterator, typename _OutputIterator,
 685:/Library/DaisyToolchain/0.2.0/arm/arm-none-eabi/include/c++/10.3.1/bits/stl_algo.h **** 	   typename _Predicate>
 686:/Library/DaisyToolchain/0.2.0/arm/arm-none-eabi/include/c++/10.3.1/bits/stl_algo.h ****     _GLIBCXX20_CONSTEXPR
 687:/Library/DaisyToolchain/0.2.0/arm/arm-none-eabi/include/c++/10.3.1/bits/stl_algo.h ****     _OutputIterator
 688:/Library/DaisyToolchain/0.2.0/arm/arm-none-eabi/include/c++/10.3.1/bits/stl_algo.h ****     copy_if(_InputIterator __first, _InputIterator __last,
 689:/Library/DaisyToolchain/0.2.0/arm/arm-none-eabi/include/c++/10.3.1/bits/stl_algo.h **** 	    _OutputIterator __result, _Predicate __pred)
 690:/Library/DaisyToolchain/0.2.0/arm/arm-none-eabi/include/c++/10.3.1/bits/stl_algo.h ****     {
 691:/Library/DaisyToolchain/0.2.0/arm/arm-none-eabi/include/c++/10.3.1/bits/stl_algo.h ****       // concept requirements
 692:/Library/DaisyToolchain/0.2.0/arm/arm-none-eabi/include/c++/10.3.1/bits/stl_algo.h ****       __glibcxx_function_requires(_InputIteratorConcept<_InputIterator>)
 693:/Library/DaisyToolchain/0.2.0/arm/arm-none-eabi/include/c++/10.3.1/bits/stl_algo.h ****       __glibcxx_function_requires(_OutputIteratorConcept<_OutputIterator,
 694:/Library/DaisyToolchain/0.2.0/arm/arm-none-eabi/include/c++/10.3.1/bits/stl_algo.h **** 	    typename iterator_traits<_InputIterator>::value_type>)
 695:/Library/DaisyToolchain/0.2.0/arm/arm-none-eabi/include/c++/10.3.1/bits/stl_algo.h ****       __glibcxx_function_requires(_UnaryPredicateConcept<_Predicate,
 696:/Library/DaisyToolchain/0.2.0/arm/arm-none-eabi/include/c++/10.3.1/bits/stl_algo.h **** 	    typename iterator_traits<_InputIterator>::value_type>)
 697:/Library/DaisyToolchain/0.2.0/arm/arm-none-eabi/include/c++/10.3.1/bits/stl_algo.h ****       __glibcxx_requires_valid_range(__first, __last);
 698:/Library/DaisyToolchain/0.2.0/arm/arm-none-eabi/include/c++/10.3.1/bits/stl_algo.h **** 
 699:/Library/DaisyToolchain/0.2.0/arm/arm-none-eabi/include/c++/10.3.1/bits/stl_algo.h ****       for (; __first != __last; ++__first)
 700:/Library/DaisyToolchain/0.2.0/arm/arm-none-eabi/include/c++/10.3.1/bits/stl_algo.h **** 	if (__pred(*__first))
 701:/Library/DaisyToolchain/0.2.0/arm/arm-none-eabi/include/c++/10.3.1/bits/stl_algo.h **** 	  {
 702:/Library/DaisyToolchain/0.2.0/arm/arm-none-eabi/include/c++/10.3.1/bits/stl_algo.h **** 	    *__result = *__first;
 703:/Library/DaisyToolchain/0.2.0/arm/arm-none-eabi/include/c++/10.3.1/bits/stl_algo.h **** 	    ++__result;
 704:/Library/DaisyToolchain/0.2.0/arm/arm-none-eabi/include/c++/10.3.1/bits/stl_algo.h **** 	  }
 705:/Library/DaisyToolchain/0.2.0/arm/arm-none-eabi/include/c++/10.3.1/bits/stl_algo.h ****       return __result;
 706:/Library/DaisyToolchain/0.2.0/arm/arm-none-eabi/include/c++/10.3.1/bits/stl_algo.h ****     }
 707:/Library/DaisyToolchain/0.2.0/arm/arm-none-eabi/include/c++/10.3.1/bits/stl_algo.h **** 
 708:/Library/DaisyToolchain/0.2.0/arm/arm-none-eabi/include/c++/10.3.1/bits/stl_algo.h ****   template<typename _InputIterator, typename _Size, typename _OutputIterator>
 709:/Library/DaisyToolchain/0.2.0/arm/arm-none-eabi/include/c++/10.3.1/bits/stl_algo.h ****     _GLIBCXX20_CONSTEXPR
 710:/Library/DaisyToolchain/0.2.0/arm/arm-none-eabi/include/c++/10.3.1/bits/stl_algo.h ****     _OutputIterator
 711:/Library/DaisyToolchain/0.2.0/arm/arm-none-eabi/include/c++/10.3.1/bits/stl_algo.h ****     __copy_n_a(_InputIterator __first, _Size __n, _OutputIterator __result)
 712:/Library/DaisyToolchain/0.2.0/arm/arm-none-eabi/include/c++/10.3.1/bits/stl_algo.h ****     {
 713:/Library/DaisyToolchain/0.2.0/arm/arm-none-eabi/include/c++/10.3.1/bits/stl_algo.h ****       if (__n > 0)
 714:/Library/DaisyToolchain/0.2.0/arm/arm-none-eabi/include/c++/10.3.1/bits/stl_algo.h **** 	{
 715:/Library/DaisyToolchain/0.2.0/arm/arm-none-eabi/include/c++/10.3.1/bits/stl_algo.h **** 	  while (true)
 716:/Library/DaisyToolchain/0.2.0/arm/arm-none-eabi/include/c++/10.3.1/bits/stl_algo.h **** 	    {
 717:/Library/DaisyToolchain/0.2.0/arm/arm-none-eabi/include/c++/10.3.1/bits/stl_algo.h **** 	      *__result = *__first;
 718:/Library/DaisyToolchain/0.2.0/arm/arm-none-eabi/include/c++/10.3.1/bits/stl_algo.h **** 	      ++__result;
 719:/Library/DaisyToolchain/0.2.0/arm/arm-none-eabi/include/c++/10.3.1/bits/stl_algo.h **** 	      if (--__n > 0)
 720:/Library/DaisyToolchain/0.2.0/arm/arm-none-eabi/include/c++/10.3.1/bits/stl_algo.h **** 		++__first;
 721:/Library/DaisyToolchain/0.2.0/arm/arm-none-eabi/include/c++/10.3.1/bits/stl_algo.h **** 	      else
 722:/Library/DaisyToolchain/0.2.0/arm/arm-none-eabi/include/c++/10.3.1/bits/stl_algo.h **** 		break;
 723:/Library/DaisyToolchain/0.2.0/arm/arm-none-eabi/include/c++/10.3.1/bits/stl_algo.h **** 	    }
 724:/Library/DaisyToolchain/0.2.0/arm/arm-none-eabi/include/c++/10.3.1/bits/stl_algo.h **** 	}
 725:/Library/DaisyToolchain/0.2.0/arm/arm-none-eabi/include/c++/10.3.1/bits/stl_algo.h ****       return __result;
 726:/Library/DaisyToolchain/0.2.0/arm/arm-none-eabi/include/c++/10.3.1/bits/stl_algo.h ****     }
 727:/Library/DaisyToolchain/0.2.0/arm/arm-none-eabi/include/c++/10.3.1/bits/stl_algo.h ****  
 728:/Library/DaisyToolchain/0.2.0/arm/arm-none-eabi/include/c++/10.3.1/bits/stl_algo.h ****   template<typename _CharT, typename _Size>
 729:/Library/DaisyToolchain/0.2.0/arm/arm-none-eabi/include/c++/10.3.1/bits/stl_algo.h ****     __enable_if_t<__is_char<_CharT>::__value, _CharT*>
 730:/Library/DaisyToolchain/0.2.0/arm/arm-none-eabi/include/c++/10.3.1/bits/stl_algo.h ****     __copy_n_a(istreambuf_iterator<_CharT, char_traits<_CharT>>,
 731:/Library/DaisyToolchain/0.2.0/arm/arm-none-eabi/include/c++/10.3.1/bits/stl_algo.h **** 	       _Size, _CharT*);
 732:/Library/DaisyToolchain/0.2.0/arm/arm-none-eabi/include/c++/10.3.1/bits/stl_algo.h **** 
 733:/Library/DaisyToolchain/0.2.0/arm/arm-none-eabi/include/c++/10.3.1/bits/stl_algo.h ****   template<typename _InputIterator, typename _Size, typename _OutputIterator>
 734:/Library/DaisyToolchain/0.2.0/arm/arm-none-eabi/include/c++/10.3.1/bits/stl_algo.h ****     _GLIBCXX20_CONSTEXPR
 735:/Library/DaisyToolchain/0.2.0/arm/arm-none-eabi/include/c++/10.3.1/bits/stl_algo.h ****     _OutputIterator
 736:/Library/DaisyToolchain/0.2.0/arm/arm-none-eabi/include/c++/10.3.1/bits/stl_algo.h ****     __copy_n(_InputIterator __first, _Size __n,
 737:/Library/DaisyToolchain/0.2.0/arm/arm-none-eabi/include/c++/10.3.1/bits/stl_algo.h **** 	     _OutputIterator __result, input_iterator_tag)
 738:/Library/DaisyToolchain/0.2.0/arm/arm-none-eabi/include/c++/10.3.1/bits/stl_algo.h ****     {
 739:/Library/DaisyToolchain/0.2.0/arm/arm-none-eabi/include/c++/10.3.1/bits/stl_algo.h ****       return std::__niter_wrap(__result,
 740:/Library/DaisyToolchain/0.2.0/arm/arm-none-eabi/include/c++/10.3.1/bits/stl_algo.h **** 			       __copy_n_a(__first, __n,
ARM GAS  /var/folders/th/s5djnwg15xxc0dk87c413f_h0000gn/T//ccCW3aXI.s 			page 95


 741:/Library/DaisyToolchain/0.2.0/arm/arm-none-eabi/include/c++/10.3.1/bits/stl_algo.h **** 					  std::__niter_base(__result)));
 742:/Library/DaisyToolchain/0.2.0/arm/arm-none-eabi/include/c++/10.3.1/bits/stl_algo.h ****     }
 743:/Library/DaisyToolchain/0.2.0/arm/arm-none-eabi/include/c++/10.3.1/bits/stl_algo.h **** 
 744:/Library/DaisyToolchain/0.2.0/arm/arm-none-eabi/include/c++/10.3.1/bits/stl_algo.h ****   template<typename _RandomAccessIterator, typename _Size,
 745:/Library/DaisyToolchain/0.2.0/arm/arm-none-eabi/include/c++/10.3.1/bits/stl_algo.h **** 	   typename _OutputIterator>
 746:/Library/DaisyToolchain/0.2.0/arm/arm-none-eabi/include/c++/10.3.1/bits/stl_algo.h ****     _GLIBCXX20_CONSTEXPR
 747:/Library/DaisyToolchain/0.2.0/arm/arm-none-eabi/include/c++/10.3.1/bits/stl_algo.h ****     inline _OutputIterator
 748:/Library/DaisyToolchain/0.2.0/arm/arm-none-eabi/include/c++/10.3.1/bits/stl_algo.h ****     __copy_n(_RandomAccessIterator __first, _Size __n,
 749:/Library/DaisyToolchain/0.2.0/arm/arm-none-eabi/include/c++/10.3.1/bits/stl_algo.h **** 	     _OutputIterator __result, random_access_iterator_tag)
 750:/Library/DaisyToolchain/0.2.0/arm/arm-none-eabi/include/c++/10.3.1/bits/stl_algo.h ****     { return std::copy(__first, __first + __n, __result); }
 751:/Library/DaisyToolchain/0.2.0/arm/arm-none-eabi/include/c++/10.3.1/bits/stl_algo.h **** 
 752:/Library/DaisyToolchain/0.2.0/arm/arm-none-eabi/include/c++/10.3.1/bits/stl_algo.h ****   /**
 753:/Library/DaisyToolchain/0.2.0/arm/arm-none-eabi/include/c++/10.3.1/bits/stl_algo.h ****    *  @brief Copies the range [first,first+n) into [result,result+n).
 754:/Library/DaisyToolchain/0.2.0/arm/arm-none-eabi/include/c++/10.3.1/bits/stl_algo.h ****    *  @ingroup mutating_algorithms
 755:/Library/DaisyToolchain/0.2.0/arm/arm-none-eabi/include/c++/10.3.1/bits/stl_algo.h ****    *  @param  __first  An input iterator.
 756:/Library/DaisyToolchain/0.2.0/arm/arm-none-eabi/include/c++/10.3.1/bits/stl_algo.h ****    *  @param  __n      The number of elements to copy.
 757:/Library/DaisyToolchain/0.2.0/arm/arm-none-eabi/include/c++/10.3.1/bits/stl_algo.h ****    *  @param  __result An output iterator.
 758:/Library/DaisyToolchain/0.2.0/arm/arm-none-eabi/include/c++/10.3.1/bits/stl_algo.h ****    *  @return  result+n.
 759:/Library/DaisyToolchain/0.2.0/arm/arm-none-eabi/include/c++/10.3.1/bits/stl_algo.h ****    *
 760:/Library/DaisyToolchain/0.2.0/arm/arm-none-eabi/include/c++/10.3.1/bits/stl_algo.h ****    *  This inline function will boil down to a call to @c memmove whenever
 761:/Library/DaisyToolchain/0.2.0/arm/arm-none-eabi/include/c++/10.3.1/bits/stl_algo.h ****    *  possible.  Failing that, if random access iterators are passed, then the
 762:/Library/DaisyToolchain/0.2.0/arm/arm-none-eabi/include/c++/10.3.1/bits/stl_algo.h ****    *  loop count will be known (and therefore a candidate for compiler
 763:/Library/DaisyToolchain/0.2.0/arm/arm-none-eabi/include/c++/10.3.1/bits/stl_algo.h ****    *  optimizations such as unrolling).
 764:/Library/DaisyToolchain/0.2.0/arm/arm-none-eabi/include/c++/10.3.1/bits/stl_algo.h ****   */
 765:/Library/DaisyToolchain/0.2.0/arm/arm-none-eabi/include/c++/10.3.1/bits/stl_algo.h ****   template<typename _InputIterator, typename _Size, typename _OutputIterator>
 766:/Library/DaisyToolchain/0.2.0/arm/arm-none-eabi/include/c++/10.3.1/bits/stl_algo.h ****     _GLIBCXX20_CONSTEXPR
 767:/Library/DaisyToolchain/0.2.0/arm/arm-none-eabi/include/c++/10.3.1/bits/stl_algo.h ****     inline _OutputIterator
 768:/Library/DaisyToolchain/0.2.0/arm/arm-none-eabi/include/c++/10.3.1/bits/stl_algo.h ****     copy_n(_InputIterator __first, _Size __n, _OutputIterator __result)
 769:/Library/DaisyToolchain/0.2.0/arm/arm-none-eabi/include/c++/10.3.1/bits/stl_algo.h ****     {
 770:/Library/DaisyToolchain/0.2.0/arm/arm-none-eabi/include/c++/10.3.1/bits/stl_algo.h ****       // concept requirements
 771:/Library/DaisyToolchain/0.2.0/arm/arm-none-eabi/include/c++/10.3.1/bits/stl_algo.h ****       __glibcxx_function_requires(_InputIteratorConcept<_InputIterator>)
 772:/Library/DaisyToolchain/0.2.0/arm/arm-none-eabi/include/c++/10.3.1/bits/stl_algo.h ****       __glibcxx_function_requires(_OutputIteratorConcept<_OutputIterator,
 773:/Library/DaisyToolchain/0.2.0/arm/arm-none-eabi/include/c++/10.3.1/bits/stl_algo.h **** 	    typename iterator_traits<_InputIterator>::value_type>)
 774:/Library/DaisyToolchain/0.2.0/arm/arm-none-eabi/include/c++/10.3.1/bits/stl_algo.h **** 
 775:/Library/DaisyToolchain/0.2.0/arm/arm-none-eabi/include/c++/10.3.1/bits/stl_algo.h ****       const auto __n2 = std::__size_to_integer(__n);
 776:/Library/DaisyToolchain/0.2.0/arm/arm-none-eabi/include/c++/10.3.1/bits/stl_algo.h ****       if (__n2 <= 0)
 777:/Library/DaisyToolchain/0.2.0/arm/arm-none-eabi/include/c++/10.3.1/bits/stl_algo.h **** 	return __result;
 778:/Library/DaisyToolchain/0.2.0/arm/arm-none-eabi/include/c++/10.3.1/bits/stl_algo.h **** 
 779:/Library/DaisyToolchain/0.2.0/arm/arm-none-eabi/include/c++/10.3.1/bits/stl_algo.h ****       __glibcxx_requires_can_increment(__first, __n2);
 780:/Library/DaisyToolchain/0.2.0/arm/arm-none-eabi/include/c++/10.3.1/bits/stl_algo.h ****       __glibcxx_requires_can_increment(__result, __n2);
 781:/Library/DaisyToolchain/0.2.0/arm/arm-none-eabi/include/c++/10.3.1/bits/stl_algo.h **** 
 782:/Library/DaisyToolchain/0.2.0/arm/arm-none-eabi/include/c++/10.3.1/bits/stl_algo.h ****       return std::__copy_n(__first, __n2, __result,
 783:/Library/DaisyToolchain/0.2.0/arm/arm-none-eabi/include/c++/10.3.1/bits/stl_algo.h **** 			   std::__iterator_category(__first));
 784:/Library/DaisyToolchain/0.2.0/arm/arm-none-eabi/include/c++/10.3.1/bits/stl_algo.h ****     }
 785:/Library/DaisyToolchain/0.2.0/arm/arm-none-eabi/include/c++/10.3.1/bits/stl_algo.h **** 
 786:/Library/DaisyToolchain/0.2.0/arm/arm-none-eabi/include/c++/10.3.1/bits/stl_algo.h ****   /**
 787:/Library/DaisyToolchain/0.2.0/arm/arm-none-eabi/include/c++/10.3.1/bits/stl_algo.h ****    *  @brief Copy the elements of a sequence to separate output sequences
 788:/Library/DaisyToolchain/0.2.0/arm/arm-none-eabi/include/c++/10.3.1/bits/stl_algo.h ****    *         depending on the truth value of a predicate.
 789:/Library/DaisyToolchain/0.2.0/arm/arm-none-eabi/include/c++/10.3.1/bits/stl_algo.h ****    *  @ingroup mutating_algorithms
 790:/Library/DaisyToolchain/0.2.0/arm/arm-none-eabi/include/c++/10.3.1/bits/stl_algo.h ****    *  @param  __first   An input iterator.
 791:/Library/DaisyToolchain/0.2.0/arm/arm-none-eabi/include/c++/10.3.1/bits/stl_algo.h ****    *  @param  __last    An input iterator.
 792:/Library/DaisyToolchain/0.2.0/arm/arm-none-eabi/include/c++/10.3.1/bits/stl_algo.h ****    *  @param  __out_true   An output iterator.
 793:/Library/DaisyToolchain/0.2.0/arm/arm-none-eabi/include/c++/10.3.1/bits/stl_algo.h ****    *  @param  __out_false  An output iterator.
 794:/Library/DaisyToolchain/0.2.0/arm/arm-none-eabi/include/c++/10.3.1/bits/stl_algo.h ****    *  @param  __pred    A predicate.
 795:/Library/DaisyToolchain/0.2.0/arm/arm-none-eabi/include/c++/10.3.1/bits/stl_algo.h ****    *  @return   A pair designating the ends of the resulting sequences.
 796:/Library/DaisyToolchain/0.2.0/arm/arm-none-eabi/include/c++/10.3.1/bits/stl_algo.h ****    *
 797:/Library/DaisyToolchain/0.2.0/arm/arm-none-eabi/include/c++/10.3.1/bits/stl_algo.h ****    *  Copies each element in the range @p [__first,__last) for which
ARM GAS  /var/folders/th/s5djnwg15xxc0dk87c413f_h0000gn/T//ccCW3aXI.s 			page 96


 798:/Library/DaisyToolchain/0.2.0/arm/arm-none-eabi/include/c++/10.3.1/bits/stl_algo.h ****    *  @p __pred returns true to the range beginning at @p out_true
 799:/Library/DaisyToolchain/0.2.0/arm/arm-none-eabi/include/c++/10.3.1/bits/stl_algo.h ****    *  and each element for which @p __pred returns false to @p __out_false.
 800:/Library/DaisyToolchain/0.2.0/arm/arm-none-eabi/include/c++/10.3.1/bits/stl_algo.h ****   */
 801:/Library/DaisyToolchain/0.2.0/arm/arm-none-eabi/include/c++/10.3.1/bits/stl_algo.h ****   template<typename _InputIterator, typename _OutputIterator1,
 802:/Library/DaisyToolchain/0.2.0/arm/arm-none-eabi/include/c++/10.3.1/bits/stl_algo.h **** 	   typename _OutputIterator2, typename _Predicate>
 803:/Library/DaisyToolchain/0.2.0/arm/arm-none-eabi/include/c++/10.3.1/bits/stl_algo.h ****     _GLIBCXX20_CONSTEXPR
 804:/Library/DaisyToolchain/0.2.0/arm/arm-none-eabi/include/c++/10.3.1/bits/stl_algo.h ****     pair<_OutputIterator1, _OutputIterator2>
 805:/Library/DaisyToolchain/0.2.0/arm/arm-none-eabi/include/c++/10.3.1/bits/stl_algo.h ****     partition_copy(_InputIterator __first, _InputIterator __last,
 806:/Library/DaisyToolchain/0.2.0/arm/arm-none-eabi/include/c++/10.3.1/bits/stl_algo.h **** 		   _OutputIterator1 __out_true, _OutputIterator2 __out_false,
 807:/Library/DaisyToolchain/0.2.0/arm/arm-none-eabi/include/c++/10.3.1/bits/stl_algo.h **** 		   _Predicate __pred)
 808:/Library/DaisyToolchain/0.2.0/arm/arm-none-eabi/include/c++/10.3.1/bits/stl_algo.h ****     {
 809:/Library/DaisyToolchain/0.2.0/arm/arm-none-eabi/include/c++/10.3.1/bits/stl_algo.h ****       // concept requirements
 810:/Library/DaisyToolchain/0.2.0/arm/arm-none-eabi/include/c++/10.3.1/bits/stl_algo.h ****       __glibcxx_function_requires(_InputIteratorConcept<_InputIterator>)
 811:/Library/DaisyToolchain/0.2.0/arm/arm-none-eabi/include/c++/10.3.1/bits/stl_algo.h ****       __glibcxx_function_requires(_OutputIteratorConcept<_OutputIterator1,
 812:/Library/DaisyToolchain/0.2.0/arm/arm-none-eabi/include/c++/10.3.1/bits/stl_algo.h **** 	    typename iterator_traits<_InputIterator>::value_type>)
 813:/Library/DaisyToolchain/0.2.0/arm/arm-none-eabi/include/c++/10.3.1/bits/stl_algo.h ****       __glibcxx_function_requires(_OutputIteratorConcept<_OutputIterator2,
 814:/Library/DaisyToolchain/0.2.0/arm/arm-none-eabi/include/c++/10.3.1/bits/stl_algo.h **** 	    typename iterator_traits<_InputIterator>::value_type>)
 815:/Library/DaisyToolchain/0.2.0/arm/arm-none-eabi/include/c++/10.3.1/bits/stl_algo.h ****       __glibcxx_function_requires(_UnaryPredicateConcept<_Predicate,
 816:/Library/DaisyToolchain/0.2.0/arm/arm-none-eabi/include/c++/10.3.1/bits/stl_algo.h **** 	    typename iterator_traits<_InputIterator>::value_type>)
 817:/Library/DaisyToolchain/0.2.0/arm/arm-none-eabi/include/c++/10.3.1/bits/stl_algo.h ****       __glibcxx_requires_valid_range(__first, __last);
 818:/Library/DaisyToolchain/0.2.0/arm/arm-none-eabi/include/c++/10.3.1/bits/stl_algo.h ****       
 819:/Library/DaisyToolchain/0.2.0/arm/arm-none-eabi/include/c++/10.3.1/bits/stl_algo.h ****       for (; __first != __last; ++__first)
 820:/Library/DaisyToolchain/0.2.0/arm/arm-none-eabi/include/c++/10.3.1/bits/stl_algo.h **** 	if (__pred(*__first))
 821:/Library/DaisyToolchain/0.2.0/arm/arm-none-eabi/include/c++/10.3.1/bits/stl_algo.h **** 	  {
 822:/Library/DaisyToolchain/0.2.0/arm/arm-none-eabi/include/c++/10.3.1/bits/stl_algo.h **** 	    *__out_true = *__first;
 823:/Library/DaisyToolchain/0.2.0/arm/arm-none-eabi/include/c++/10.3.1/bits/stl_algo.h **** 	    ++__out_true;
 824:/Library/DaisyToolchain/0.2.0/arm/arm-none-eabi/include/c++/10.3.1/bits/stl_algo.h **** 	  }
 825:/Library/DaisyToolchain/0.2.0/arm/arm-none-eabi/include/c++/10.3.1/bits/stl_algo.h **** 	else
 826:/Library/DaisyToolchain/0.2.0/arm/arm-none-eabi/include/c++/10.3.1/bits/stl_algo.h **** 	  {
 827:/Library/DaisyToolchain/0.2.0/arm/arm-none-eabi/include/c++/10.3.1/bits/stl_algo.h **** 	    *__out_false = *__first;
 828:/Library/DaisyToolchain/0.2.0/arm/arm-none-eabi/include/c++/10.3.1/bits/stl_algo.h **** 	    ++__out_false;
 829:/Library/DaisyToolchain/0.2.0/arm/arm-none-eabi/include/c++/10.3.1/bits/stl_algo.h **** 	  }
 830:/Library/DaisyToolchain/0.2.0/arm/arm-none-eabi/include/c++/10.3.1/bits/stl_algo.h **** 
 831:/Library/DaisyToolchain/0.2.0/arm/arm-none-eabi/include/c++/10.3.1/bits/stl_algo.h ****       return pair<_OutputIterator1, _OutputIterator2>(__out_true, __out_false);
 832:/Library/DaisyToolchain/0.2.0/arm/arm-none-eabi/include/c++/10.3.1/bits/stl_algo.h ****     }
 833:/Library/DaisyToolchain/0.2.0/arm/arm-none-eabi/include/c++/10.3.1/bits/stl_algo.h **** #endif // C++11
 834:/Library/DaisyToolchain/0.2.0/arm/arm-none-eabi/include/c++/10.3.1/bits/stl_algo.h **** 
 835:/Library/DaisyToolchain/0.2.0/arm/arm-none-eabi/include/c++/10.3.1/bits/stl_algo.h ****   template<typename _ForwardIterator, typename _Predicate>
 836:/Library/DaisyToolchain/0.2.0/arm/arm-none-eabi/include/c++/10.3.1/bits/stl_algo.h ****     _GLIBCXX20_CONSTEXPR
 837:/Library/DaisyToolchain/0.2.0/arm/arm-none-eabi/include/c++/10.3.1/bits/stl_algo.h ****     _ForwardIterator
 838:/Library/DaisyToolchain/0.2.0/arm/arm-none-eabi/include/c++/10.3.1/bits/stl_algo.h ****     __remove_if(_ForwardIterator __first, _ForwardIterator __last,
 839:/Library/DaisyToolchain/0.2.0/arm/arm-none-eabi/include/c++/10.3.1/bits/stl_algo.h **** 		_Predicate __pred)
 840:/Library/DaisyToolchain/0.2.0/arm/arm-none-eabi/include/c++/10.3.1/bits/stl_algo.h ****     {
 841:/Library/DaisyToolchain/0.2.0/arm/arm-none-eabi/include/c++/10.3.1/bits/stl_algo.h ****       __first = std::__find_if(__first, __last, __pred);
 842:/Library/DaisyToolchain/0.2.0/arm/arm-none-eabi/include/c++/10.3.1/bits/stl_algo.h ****       if (__first == __last)
 843:/Library/DaisyToolchain/0.2.0/arm/arm-none-eabi/include/c++/10.3.1/bits/stl_algo.h **** 	return __first;
 844:/Library/DaisyToolchain/0.2.0/arm/arm-none-eabi/include/c++/10.3.1/bits/stl_algo.h ****       _ForwardIterator __result = __first;
 845:/Library/DaisyToolchain/0.2.0/arm/arm-none-eabi/include/c++/10.3.1/bits/stl_algo.h ****       ++__first;
 846:/Library/DaisyToolchain/0.2.0/arm/arm-none-eabi/include/c++/10.3.1/bits/stl_algo.h ****       for (; __first != __last; ++__first)
 847:/Library/DaisyToolchain/0.2.0/arm/arm-none-eabi/include/c++/10.3.1/bits/stl_algo.h **** 	if (!__pred(__first))
 848:/Library/DaisyToolchain/0.2.0/arm/arm-none-eabi/include/c++/10.3.1/bits/stl_algo.h **** 	  {
 849:/Library/DaisyToolchain/0.2.0/arm/arm-none-eabi/include/c++/10.3.1/bits/stl_algo.h **** 	    *__result = _GLIBCXX_MOVE(*__first);
 850:/Library/DaisyToolchain/0.2.0/arm/arm-none-eabi/include/c++/10.3.1/bits/stl_algo.h **** 	    ++__result;
 851:/Library/DaisyToolchain/0.2.0/arm/arm-none-eabi/include/c++/10.3.1/bits/stl_algo.h **** 	  }
 852:/Library/DaisyToolchain/0.2.0/arm/arm-none-eabi/include/c++/10.3.1/bits/stl_algo.h ****       return __result;
 853:/Library/DaisyToolchain/0.2.0/arm/arm-none-eabi/include/c++/10.3.1/bits/stl_algo.h ****     }
 854:/Library/DaisyToolchain/0.2.0/arm/arm-none-eabi/include/c++/10.3.1/bits/stl_algo.h **** 
ARM GAS  /var/folders/th/s5djnwg15xxc0dk87c413f_h0000gn/T//ccCW3aXI.s 			page 97


 855:/Library/DaisyToolchain/0.2.0/arm/arm-none-eabi/include/c++/10.3.1/bits/stl_algo.h ****   /**
 856:/Library/DaisyToolchain/0.2.0/arm/arm-none-eabi/include/c++/10.3.1/bits/stl_algo.h ****    *  @brief Remove elements from a sequence.
 857:/Library/DaisyToolchain/0.2.0/arm/arm-none-eabi/include/c++/10.3.1/bits/stl_algo.h ****    *  @ingroup mutating_algorithms
 858:/Library/DaisyToolchain/0.2.0/arm/arm-none-eabi/include/c++/10.3.1/bits/stl_algo.h ****    *  @param  __first  An input iterator.
 859:/Library/DaisyToolchain/0.2.0/arm/arm-none-eabi/include/c++/10.3.1/bits/stl_algo.h ****    *  @param  __last   An input iterator.
 860:/Library/DaisyToolchain/0.2.0/arm/arm-none-eabi/include/c++/10.3.1/bits/stl_algo.h ****    *  @param  __value  The value to be removed.
 861:/Library/DaisyToolchain/0.2.0/arm/arm-none-eabi/include/c++/10.3.1/bits/stl_algo.h ****    *  @return   An iterator designating the end of the resulting sequence.
 862:/Library/DaisyToolchain/0.2.0/arm/arm-none-eabi/include/c++/10.3.1/bits/stl_algo.h ****    *
 863:/Library/DaisyToolchain/0.2.0/arm/arm-none-eabi/include/c++/10.3.1/bits/stl_algo.h ****    *  All elements equal to @p __value are removed from the range
 864:/Library/DaisyToolchain/0.2.0/arm/arm-none-eabi/include/c++/10.3.1/bits/stl_algo.h ****    *  @p [__first,__last).
 865:/Library/DaisyToolchain/0.2.0/arm/arm-none-eabi/include/c++/10.3.1/bits/stl_algo.h ****    *
 866:/Library/DaisyToolchain/0.2.0/arm/arm-none-eabi/include/c++/10.3.1/bits/stl_algo.h ****    *  remove() is stable, so the relative order of elements that are
 867:/Library/DaisyToolchain/0.2.0/arm/arm-none-eabi/include/c++/10.3.1/bits/stl_algo.h ****    *  not removed is unchanged.
 868:/Library/DaisyToolchain/0.2.0/arm/arm-none-eabi/include/c++/10.3.1/bits/stl_algo.h ****    *
 869:/Library/DaisyToolchain/0.2.0/arm/arm-none-eabi/include/c++/10.3.1/bits/stl_algo.h ****    *  Elements between the end of the resulting sequence and @p __last
 870:/Library/DaisyToolchain/0.2.0/arm/arm-none-eabi/include/c++/10.3.1/bits/stl_algo.h ****    *  are still present, but their value is unspecified.
 871:/Library/DaisyToolchain/0.2.0/arm/arm-none-eabi/include/c++/10.3.1/bits/stl_algo.h ****   */
 872:/Library/DaisyToolchain/0.2.0/arm/arm-none-eabi/include/c++/10.3.1/bits/stl_algo.h ****   template<typename _ForwardIterator, typename _Tp>
 873:/Library/DaisyToolchain/0.2.0/arm/arm-none-eabi/include/c++/10.3.1/bits/stl_algo.h ****     _GLIBCXX20_CONSTEXPR
 874:/Library/DaisyToolchain/0.2.0/arm/arm-none-eabi/include/c++/10.3.1/bits/stl_algo.h ****     inline _ForwardIterator
 875:/Library/DaisyToolchain/0.2.0/arm/arm-none-eabi/include/c++/10.3.1/bits/stl_algo.h ****     remove(_ForwardIterator __first, _ForwardIterator __last,
 876:/Library/DaisyToolchain/0.2.0/arm/arm-none-eabi/include/c++/10.3.1/bits/stl_algo.h **** 	   const _Tp& __value)
 877:/Library/DaisyToolchain/0.2.0/arm/arm-none-eabi/include/c++/10.3.1/bits/stl_algo.h ****     {
 878:/Library/DaisyToolchain/0.2.0/arm/arm-none-eabi/include/c++/10.3.1/bits/stl_algo.h ****       // concept requirements
 879:/Library/DaisyToolchain/0.2.0/arm/arm-none-eabi/include/c++/10.3.1/bits/stl_algo.h ****       __glibcxx_function_requires(_Mutable_ForwardIteratorConcept<
 880:/Library/DaisyToolchain/0.2.0/arm/arm-none-eabi/include/c++/10.3.1/bits/stl_algo.h **** 				  _ForwardIterator>)
 881:/Library/DaisyToolchain/0.2.0/arm/arm-none-eabi/include/c++/10.3.1/bits/stl_algo.h ****       __glibcxx_function_requires(_EqualOpConcept<
 882:/Library/DaisyToolchain/0.2.0/arm/arm-none-eabi/include/c++/10.3.1/bits/stl_algo.h **** 	    typename iterator_traits<_ForwardIterator>::value_type, _Tp>)
 883:/Library/DaisyToolchain/0.2.0/arm/arm-none-eabi/include/c++/10.3.1/bits/stl_algo.h ****       __glibcxx_requires_valid_range(__first, __last);
 884:/Library/DaisyToolchain/0.2.0/arm/arm-none-eabi/include/c++/10.3.1/bits/stl_algo.h **** 
 885:/Library/DaisyToolchain/0.2.0/arm/arm-none-eabi/include/c++/10.3.1/bits/stl_algo.h ****       return std::__remove_if(__first, __last,
 886:/Library/DaisyToolchain/0.2.0/arm/arm-none-eabi/include/c++/10.3.1/bits/stl_algo.h **** 		__gnu_cxx::__ops::__iter_equals_val(__value));
 887:/Library/DaisyToolchain/0.2.0/arm/arm-none-eabi/include/c++/10.3.1/bits/stl_algo.h ****     }
 888:/Library/DaisyToolchain/0.2.0/arm/arm-none-eabi/include/c++/10.3.1/bits/stl_algo.h **** 
 889:/Library/DaisyToolchain/0.2.0/arm/arm-none-eabi/include/c++/10.3.1/bits/stl_algo.h ****   /**
 890:/Library/DaisyToolchain/0.2.0/arm/arm-none-eabi/include/c++/10.3.1/bits/stl_algo.h ****    *  @brief Remove elements from a sequence using a predicate.
 891:/Library/DaisyToolchain/0.2.0/arm/arm-none-eabi/include/c++/10.3.1/bits/stl_algo.h ****    *  @ingroup mutating_algorithms
 892:/Library/DaisyToolchain/0.2.0/arm/arm-none-eabi/include/c++/10.3.1/bits/stl_algo.h ****    *  @param  __first  A forward iterator.
 893:/Library/DaisyToolchain/0.2.0/arm/arm-none-eabi/include/c++/10.3.1/bits/stl_algo.h ****    *  @param  __last   A forward iterator.
 894:/Library/DaisyToolchain/0.2.0/arm/arm-none-eabi/include/c++/10.3.1/bits/stl_algo.h ****    *  @param  __pred   A predicate.
 895:/Library/DaisyToolchain/0.2.0/arm/arm-none-eabi/include/c++/10.3.1/bits/stl_algo.h ****    *  @return   An iterator designating the end of the resulting sequence.
 896:/Library/DaisyToolchain/0.2.0/arm/arm-none-eabi/include/c++/10.3.1/bits/stl_algo.h ****    *
 897:/Library/DaisyToolchain/0.2.0/arm/arm-none-eabi/include/c++/10.3.1/bits/stl_algo.h ****    *  All elements for which @p __pred returns true are removed from the range
 898:/Library/DaisyToolchain/0.2.0/arm/arm-none-eabi/include/c++/10.3.1/bits/stl_algo.h ****    *  @p [__first,__last).
 899:/Library/DaisyToolchain/0.2.0/arm/arm-none-eabi/include/c++/10.3.1/bits/stl_algo.h ****    *
 900:/Library/DaisyToolchain/0.2.0/arm/arm-none-eabi/include/c++/10.3.1/bits/stl_algo.h ****    *  remove_if() is stable, so the relative order of elements that are
 901:/Library/DaisyToolchain/0.2.0/arm/arm-none-eabi/include/c++/10.3.1/bits/stl_algo.h ****    *  not removed is unchanged.
 902:/Library/DaisyToolchain/0.2.0/arm/arm-none-eabi/include/c++/10.3.1/bits/stl_algo.h ****    *
 903:/Library/DaisyToolchain/0.2.0/arm/arm-none-eabi/include/c++/10.3.1/bits/stl_algo.h ****    *  Elements between the end of the resulting sequence and @p __last
 904:/Library/DaisyToolchain/0.2.0/arm/arm-none-eabi/include/c++/10.3.1/bits/stl_algo.h ****    *  are still present, but their value is unspecified.
 905:/Library/DaisyToolchain/0.2.0/arm/arm-none-eabi/include/c++/10.3.1/bits/stl_algo.h ****   */
 906:/Library/DaisyToolchain/0.2.0/arm/arm-none-eabi/include/c++/10.3.1/bits/stl_algo.h ****   template<typename _ForwardIterator, typename _Predicate>
 907:/Library/DaisyToolchain/0.2.0/arm/arm-none-eabi/include/c++/10.3.1/bits/stl_algo.h ****     _GLIBCXX20_CONSTEXPR
 908:/Library/DaisyToolchain/0.2.0/arm/arm-none-eabi/include/c++/10.3.1/bits/stl_algo.h ****     inline _ForwardIterator
 909:/Library/DaisyToolchain/0.2.0/arm/arm-none-eabi/include/c++/10.3.1/bits/stl_algo.h ****     remove_if(_ForwardIterator __first, _ForwardIterator __last,
 910:/Library/DaisyToolchain/0.2.0/arm/arm-none-eabi/include/c++/10.3.1/bits/stl_algo.h **** 	      _Predicate __pred)
 911:/Library/DaisyToolchain/0.2.0/arm/arm-none-eabi/include/c++/10.3.1/bits/stl_algo.h ****     {
ARM GAS  /var/folders/th/s5djnwg15xxc0dk87c413f_h0000gn/T//ccCW3aXI.s 			page 98


 912:/Library/DaisyToolchain/0.2.0/arm/arm-none-eabi/include/c++/10.3.1/bits/stl_algo.h ****       // concept requirements
 913:/Library/DaisyToolchain/0.2.0/arm/arm-none-eabi/include/c++/10.3.1/bits/stl_algo.h ****       __glibcxx_function_requires(_Mutable_ForwardIteratorConcept<
 914:/Library/DaisyToolchain/0.2.0/arm/arm-none-eabi/include/c++/10.3.1/bits/stl_algo.h **** 				  _ForwardIterator>)
 915:/Library/DaisyToolchain/0.2.0/arm/arm-none-eabi/include/c++/10.3.1/bits/stl_algo.h ****       __glibcxx_function_requires(_UnaryPredicateConcept<_Predicate,
 916:/Library/DaisyToolchain/0.2.0/arm/arm-none-eabi/include/c++/10.3.1/bits/stl_algo.h **** 	    typename iterator_traits<_ForwardIterator>::value_type>)
 917:/Library/DaisyToolchain/0.2.0/arm/arm-none-eabi/include/c++/10.3.1/bits/stl_algo.h ****       __glibcxx_requires_valid_range(__first, __last);
 918:/Library/DaisyToolchain/0.2.0/arm/arm-none-eabi/include/c++/10.3.1/bits/stl_algo.h **** 
 919:/Library/DaisyToolchain/0.2.0/arm/arm-none-eabi/include/c++/10.3.1/bits/stl_algo.h ****       return std::__remove_if(__first, __last,
 920:/Library/DaisyToolchain/0.2.0/arm/arm-none-eabi/include/c++/10.3.1/bits/stl_algo.h **** 			      __gnu_cxx::__ops::__pred_iter(__pred));
 921:/Library/DaisyToolchain/0.2.0/arm/arm-none-eabi/include/c++/10.3.1/bits/stl_algo.h ****     }
 922:/Library/DaisyToolchain/0.2.0/arm/arm-none-eabi/include/c++/10.3.1/bits/stl_algo.h **** 
 923:/Library/DaisyToolchain/0.2.0/arm/arm-none-eabi/include/c++/10.3.1/bits/stl_algo.h ****   template<typename _ForwardIterator, typename _BinaryPredicate>
 924:/Library/DaisyToolchain/0.2.0/arm/arm-none-eabi/include/c++/10.3.1/bits/stl_algo.h ****     _GLIBCXX20_CONSTEXPR
 925:/Library/DaisyToolchain/0.2.0/arm/arm-none-eabi/include/c++/10.3.1/bits/stl_algo.h ****     _ForwardIterator
 926:/Library/DaisyToolchain/0.2.0/arm/arm-none-eabi/include/c++/10.3.1/bits/stl_algo.h ****     __adjacent_find(_ForwardIterator __first, _ForwardIterator __last,
 927:/Library/DaisyToolchain/0.2.0/arm/arm-none-eabi/include/c++/10.3.1/bits/stl_algo.h **** 		    _BinaryPredicate __binary_pred)
 928:/Library/DaisyToolchain/0.2.0/arm/arm-none-eabi/include/c++/10.3.1/bits/stl_algo.h ****     {
 929:/Library/DaisyToolchain/0.2.0/arm/arm-none-eabi/include/c++/10.3.1/bits/stl_algo.h ****       if (__first == __last)
 930:/Library/DaisyToolchain/0.2.0/arm/arm-none-eabi/include/c++/10.3.1/bits/stl_algo.h **** 	return __last;
 931:/Library/DaisyToolchain/0.2.0/arm/arm-none-eabi/include/c++/10.3.1/bits/stl_algo.h ****       _ForwardIterator __next = __first;
 932:/Library/DaisyToolchain/0.2.0/arm/arm-none-eabi/include/c++/10.3.1/bits/stl_algo.h ****       while (++__next != __last)
 933:/Library/DaisyToolchain/0.2.0/arm/arm-none-eabi/include/c++/10.3.1/bits/stl_algo.h **** 	{
 934:/Library/DaisyToolchain/0.2.0/arm/arm-none-eabi/include/c++/10.3.1/bits/stl_algo.h **** 	  if (__binary_pred(__first, __next))
 935:/Library/DaisyToolchain/0.2.0/arm/arm-none-eabi/include/c++/10.3.1/bits/stl_algo.h **** 	    return __first;
 936:/Library/DaisyToolchain/0.2.0/arm/arm-none-eabi/include/c++/10.3.1/bits/stl_algo.h **** 	  __first = __next;
 937:/Library/DaisyToolchain/0.2.0/arm/arm-none-eabi/include/c++/10.3.1/bits/stl_algo.h **** 	}
 938:/Library/DaisyToolchain/0.2.0/arm/arm-none-eabi/include/c++/10.3.1/bits/stl_algo.h ****       return __last;
 939:/Library/DaisyToolchain/0.2.0/arm/arm-none-eabi/include/c++/10.3.1/bits/stl_algo.h ****     }
 940:/Library/DaisyToolchain/0.2.0/arm/arm-none-eabi/include/c++/10.3.1/bits/stl_algo.h **** 
 941:/Library/DaisyToolchain/0.2.0/arm/arm-none-eabi/include/c++/10.3.1/bits/stl_algo.h ****   template<typename _ForwardIterator, typename _BinaryPredicate>
 942:/Library/DaisyToolchain/0.2.0/arm/arm-none-eabi/include/c++/10.3.1/bits/stl_algo.h ****     _GLIBCXX20_CONSTEXPR
 943:/Library/DaisyToolchain/0.2.0/arm/arm-none-eabi/include/c++/10.3.1/bits/stl_algo.h ****     _ForwardIterator
 944:/Library/DaisyToolchain/0.2.0/arm/arm-none-eabi/include/c++/10.3.1/bits/stl_algo.h ****     __unique(_ForwardIterator __first, _ForwardIterator __last,
 945:/Library/DaisyToolchain/0.2.0/arm/arm-none-eabi/include/c++/10.3.1/bits/stl_algo.h **** 	     _BinaryPredicate __binary_pred)
 946:/Library/DaisyToolchain/0.2.0/arm/arm-none-eabi/include/c++/10.3.1/bits/stl_algo.h ****     {
 947:/Library/DaisyToolchain/0.2.0/arm/arm-none-eabi/include/c++/10.3.1/bits/stl_algo.h ****       // Skip the beginning, if already unique.
 948:/Library/DaisyToolchain/0.2.0/arm/arm-none-eabi/include/c++/10.3.1/bits/stl_algo.h ****       __first = std::__adjacent_find(__first, __last, __binary_pred);
 949:/Library/DaisyToolchain/0.2.0/arm/arm-none-eabi/include/c++/10.3.1/bits/stl_algo.h ****       if (__first == __last)
 950:/Library/DaisyToolchain/0.2.0/arm/arm-none-eabi/include/c++/10.3.1/bits/stl_algo.h **** 	return __last;
 951:/Library/DaisyToolchain/0.2.0/arm/arm-none-eabi/include/c++/10.3.1/bits/stl_algo.h **** 
 952:/Library/DaisyToolchain/0.2.0/arm/arm-none-eabi/include/c++/10.3.1/bits/stl_algo.h ****       // Do the real copy work.
 953:/Library/DaisyToolchain/0.2.0/arm/arm-none-eabi/include/c++/10.3.1/bits/stl_algo.h ****       _ForwardIterator __dest = __first;
 954:/Library/DaisyToolchain/0.2.0/arm/arm-none-eabi/include/c++/10.3.1/bits/stl_algo.h ****       ++__first;
 955:/Library/DaisyToolchain/0.2.0/arm/arm-none-eabi/include/c++/10.3.1/bits/stl_algo.h ****       while (++__first != __last)
 956:/Library/DaisyToolchain/0.2.0/arm/arm-none-eabi/include/c++/10.3.1/bits/stl_algo.h **** 	if (!__binary_pred(__dest, __first))
 957:/Library/DaisyToolchain/0.2.0/arm/arm-none-eabi/include/c++/10.3.1/bits/stl_algo.h **** 	  *++__dest = _GLIBCXX_MOVE(*__first);
 958:/Library/DaisyToolchain/0.2.0/arm/arm-none-eabi/include/c++/10.3.1/bits/stl_algo.h ****       return ++__dest;
 959:/Library/DaisyToolchain/0.2.0/arm/arm-none-eabi/include/c++/10.3.1/bits/stl_algo.h ****     }
 960:/Library/DaisyToolchain/0.2.0/arm/arm-none-eabi/include/c++/10.3.1/bits/stl_algo.h **** 
 961:/Library/DaisyToolchain/0.2.0/arm/arm-none-eabi/include/c++/10.3.1/bits/stl_algo.h ****   /**
 962:/Library/DaisyToolchain/0.2.0/arm/arm-none-eabi/include/c++/10.3.1/bits/stl_algo.h ****    *  @brief Remove consecutive duplicate values from a sequence.
 963:/Library/DaisyToolchain/0.2.0/arm/arm-none-eabi/include/c++/10.3.1/bits/stl_algo.h ****    *  @ingroup mutating_algorithms
 964:/Library/DaisyToolchain/0.2.0/arm/arm-none-eabi/include/c++/10.3.1/bits/stl_algo.h ****    *  @param  __first  A forward iterator.
 965:/Library/DaisyToolchain/0.2.0/arm/arm-none-eabi/include/c++/10.3.1/bits/stl_algo.h ****    *  @param  __last   A forward iterator.
 966:/Library/DaisyToolchain/0.2.0/arm/arm-none-eabi/include/c++/10.3.1/bits/stl_algo.h ****    *  @return  An iterator designating the end of the resulting sequence.
 967:/Library/DaisyToolchain/0.2.0/arm/arm-none-eabi/include/c++/10.3.1/bits/stl_algo.h ****    *
 968:/Library/DaisyToolchain/0.2.0/arm/arm-none-eabi/include/c++/10.3.1/bits/stl_algo.h ****    *  Removes all but the first element from each group of consecutive
ARM GAS  /var/folders/th/s5djnwg15xxc0dk87c413f_h0000gn/T//ccCW3aXI.s 			page 99


 969:/Library/DaisyToolchain/0.2.0/arm/arm-none-eabi/include/c++/10.3.1/bits/stl_algo.h ****    *  values that compare equal.
 970:/Library/DaisyToolchain/0.2.0/arm/arm-none-eabi/include/c++/10.3.1/bits/stl_algo.h ****    *  unique() is stable, so the relative order of elements that are
 971:/Library/DaisyToolchain/0.2.0/arm/arm-none-eabi/include/c++/10.3.1/bits/stl_algo.h ****    *  not removed is unchanged.
 972:/Library/DaisyToolchain/0.2.0/arm/arm-none-eabi/include/c++/10.3.1/bits/stl_algo.h ****    *  Elements between the end of the resulting sequence and @p __last
 973:/Library/DaisyToolchain/0.2.0/arm/arm-none-eabi/include/c++/10.3.1/bits/stl_algo.h ****    *  are still present, but their value is unspecified.
 974:/Library/DaisyToolchain/0.2.0/arm/arm-none-eabi/include/c++/10.3.1/bits/stl_algo.h ****   */
 975:/Library/DaisyToolchain/0.2.0/arm/arm-none-eabi/include/c++/10.3.1/bits/stl_algo.h ****   template<typename _ForwardIterator>
 976:/Library/DaisyToolchain/0.2.0/arm/arm-none-eabi/include/c++/10.3.1/bits/stl_algo.h ****     _GLIBCXX20_CONSTEXPR
 977:/Library/DaisyToolchain/0.2.0/arm/arm-none-eabi/include/c++/10.3.1/bits/stl_algo.h ****     inline _ForwardIterator
 978:/Library/DaisyToolchain/0.2.0/arm/arm-none-eabi/include/c++/10.3.1/bits/stl_algo.h ****     unique(_ForwardIterator __first, _ForwardIterator __last)
 979:/Library/DaisyToolchain/0.2.0/arm/arm-none-eabi/include/c++/10.3.1/bits/stl_algo.h ****     {
 980:/Library/DaisyToolchain/0.2.0/arm/arm-none-eabi/include/c++/10.3.1/bits/stl_algo.h ****       // concept requirements
 981:/Library/DaisyToolchain/0.2.0/arm/arm-none-eabi/include/c++/10.3.1/bits/stl_algo.h ****       __glibcxx_function_requires(_Mutable_ForwardIteratorConcept<
 982:/Library/DaisyToolchain/0.2.0/arm/arm-none-eabi/include/c++/10.3.1/bits/stl_algo.h **** 				  _ForwardIterator>)
 983:/Library/DaisyToolchain/0.2.0/arm/arm-none-eabi/include/c++/10.3.1/bits/stl_algo.h ****       __glibcxx_function_requires(_EqualityComparableConcept<
 984:/Library/DaisyToolchain/0.2.0/arm/arm-none-eabi/include/c++/10.3.1/bits/stl_algo.h **** 		     typename iterator_traits<_ForwardIterator>::value_type>)
 985:/Library/DaisyToolchain/0.2.0/arm/arm-none-eabi/include/c++/10.3.1/bits/stl_algo.h ****       __glibcxx_requires_valid_range(__first, __last);
 986:/Library/DaisyToolchain/0.2.0/arm/arm-none-eabi/include/c++/10.3.1/bits/stl_algo.h **** 
 987:/Library/DaisyToolchain/0.2.0/arm/arm-none-eabi/include/c++/10.3.1/bits/stl_algo.h ****       return std::__unique(__first, __last,
 988:/Library/DaisyToolchain/0.2.0/arm/arm-none-eabi/include/c++/10.3.1/bits/stl_algo.h **** 			   __gnu_cxx::__ops::__iter_equal_to_iter());
 989:/Library/DaisyToolchain/0.2.0/arm/arm-none-eabi/include/c++/10.3.1/bits/stl_algo.h ****     }
 990:/Library/DaisyToolchain/0.2.0/arm/arm-none-eabi/include/c++/10.3.1/bits/stl_algo.h **** 
 991:/Library/DaisyToolchain/0.2.0/arm/arm-none-eabi/include/c++/10.3.1/bits/stl_algo.h ****   /**
 992:/Library/DaisyToolchain/0.2.0/arm/arm-none-eabi/include/c++/10.3.1/bits/stl_algo.h ****    *  @brief Remove consecutive values from a sequence using a predicate.
 993:/Library/DaisyToolchain/0.2.0/arm/arm-none-eabi/include/c++/10.3.1/bits/stl_algo.h ****    *  @ingroup mutating_algorithms
 994:/Library/DaisyToolchain/0.2.0/arm/arm-none-eabi/include/c++/10.3.1/bits/stl_algo.h ****    *  @param  __first        A forward iterator.
 995:/Library/DaisyToolchain/0.2.0/arm/arm-none-eabi/include/c++/10.3.1/bits/stl_algo.h ****    *  @param  __last         A forward iterator.
 996:/Library/DaisyToolchain/0.2.0/arm/arm-none-eabi/include/c++/10.3.1/bits/stl_algo.h ****    *  @param  __binary_pred  A binary predicate.
 997:/Library/DaisyToolchain/0.2.0/arm/arm-none-eabi/include/c++/10.3.1/bits/stl_algo.h ****    *  @return  An iterator designating the end of the resulting sequence.
 998:/Library/DaisyToolchain/0.2.0/arm/arm-none-eabi/include/c++/10.3.1/bits/stl_algo.h ****    *
 999:/Library/DaisyToolchain/0.2.0/arm/arm-none-eabi/include/c++/10.3.1/bits/stl_algo.h ****    *  Removes all but the first element from each group of consecutive
1000:/Library/DaisyToolchain/0.2.0/arm/arm-none-eabi/include/c++/10.3.1/bits/stl_algo.h ****    *  values for which @p __binary_pred returns true.
1001:/Library/DaisyToolchain/0.2.0/arm/arm-none-eabi/include/c++/10.3.1/bits/stl_algo.h ****    *  unique() is stable, so the relative order of elements that are
1002:/Library/DaisyToolchain/0.2.0/arm/arm-none-eabi/include/c++/10.3.1/bits/stl_algo.h ****    *  not removed is unchanged.
1003:/Library/DaisyToolchain/0.2.0/arm/arm-none-eabi/include/c++/10.3.1/bits/stl_algo.h ****    *  Elements between the end of the resulting sequence and @p __last
1004:/Library/DaisyToolchain/0.2.0/arm/arm-none-eabi/include/c++/10.3.1/bits/stl_algo.h ****    *  are still present, but their value is unspecified.
1005:/Library/DaisyToolchain/0.2.0/arm/arm-none-eabi/include/c++/10.3.1/bits/stl_algo.h ****   */
1006:/Library/DaisyToolchain/0.2.0/arm/arm-none-eabi/include/c++/10.3.1/bits/stl_algo.h ****   template<typename _ForwardIterator, typename _BinaryPredicate>
1007:/Library/DaisyToolchain/0.2.0/arm/arm-none-eabi/include/c++/10.3.1/bits/stl_algo.h ****     _GLIBCXX20_CONSTEXPR
1008:/Library/DaisyToolchain/0.2.0/arm/arm-none-eabi/include/c++/10.3.1/bits/stl_algo.h ****     inline _ForwardIterator
1009:/Library/DaisyToolchain/0.2.0/arm/arm-none-eabi/include/c++/10.3.1/bits/stl_algo.h ****     unique(_ForwardIterator __first, _ForwardIterator __last,
1010:/Library/DaisyToolchain/0.2.0/arm/arm-none-eabi/include/c++/10.3.1/bits/stl_algo.h **** 	   _BinaryPredicate __binary_pred)
1011:/Library/DaisyToolchain/0.2.0/arm/arm-none-eabi/include/c++/10.3.1/bits/stl_algo.h ****     {
1012:/Library/DaisyToolchain/0.2.0/arm/arm-none-eabi/include/c++/10.3.1/bits/stl_algo.h ****       // concept requirements
1013:/Library/DaisyToolchain/0.2.0/arm/arm-none-eabi/include/c++/10.3.1/bits/stl_algo.h ****       __glibcxx_function_requires(_Mutable_ForwardIteratorConcept<
1014:/Library/DaisyToolchain/0.2.0/arm/arm-none-eabi/include/c++/10.3.1/bits/stl_algo.h **** 				  _ForwardIterator>)
1015:/Library/DaisyToolchain/0.2.0/arm/arm-none-eabi/include/c++/10.3.1/bits/stl_algo.h ****       __glibcxx_function_requires(_BinaryPredicateConcept<_BinaryPredicate,
1016:/Library/DaisyToolchain/0.2.0/arm/arm-none-eabi/include/c++/10.3.1/bits/stl_algo.h **** 		typename iterator_traits<_ForwardIterator>::value_type,
1017:/Library/DaisyToolchain/0.2.0/arm/arm-none-eabi/include/c++/10.3.1/bits/stl_algo.h **** 		typename iterator_traits<_ForwardIterator>::value_type>)
1018:/Library/DaisyToolchain/0.2.0/arm/arm-none-eabi/include/c++/10.3.1/bits/stl_algo.h ****       __glibcxx_requires_valid_range(__first, __last);
1019:/Library/DaisyToolchain/0.2.0/arm/arm-none-eabi/include/c++/10.3.1/bits/stl_algo.h **** 
1020:/Library/DaisyToolchain/0.2.0/arm/arm-none-eabi/include/c++/10.3.1/bits/stl_algo.h ****       return std::__unique(__first, __last,
1021:/Library/DaisyToolchain/0.2.0/arm/arm-none-eabi/include/c++/10.3.1/bits/stl_algo.h **** 			   __gnu_cxx::__ops::__iter_comp_iter(__binary_pred));
1022:/Library/DaisyToolchain/0.2.0/arm/arm-none-eabi/include/c++/10.3.1/bits/stl_algo.h ****     }
1023:/Library/DaisyToolchain/0.2.0/arm/arm-none-eabi/include/c++/10.3.1/bits/stl_algo.h **** 
1024:/Library/DaisyToolchain/0.2.0/arm/arm-none-eabi/include/c++/10.3.1/bits/stl_algo.h ****   /**
1025:/Library/DaisyToolchain/0.2.0/arm/arm-none-eabi/include/c++/10.3.1/bits/stl_algo.h ****    *  This is an uglified
ARM GAS  /var/folders/th/s5djnwg15xxc0dk87c413f_h0000gn/T//ccCW3aXI.s 			page 100


1026:/Library/DaisyToolchain/0.2.0/arm/arm-none-eabi/include/c++/10.3.1/bits/stl_algo.h ****    *  unique_copy(_InputIterator, _InputIterator, _OutputIterator,
1027:/Library/DaisyToolchain/0.2.0/arm/arm-none-eabi/include/c++/10.3.1/bits/stl_algo.h ****    *              _BinaryPredicate)
1028:/Library/DaisyToolchain/0.2.0/arm/arm-none-eabi/include/c++/10.3.1/bits/stl_algo.h ****    *  overloaded for forward iterators and output iterator as result.
1029:/Library/DaisyToolchain/0.2.0/arm/arm-none-eabi/include/c++/10.3.1/bits/stl_algo.h ****   */
1030:/Library/DaisyToolchain/0.2.0/arm/arm-none-eabi/include/c++/10.3.1/bits/stl_algo.h ****   template<typename _ForwardIterator, typename _OutputIterator,
1031:/Library/DaisyToolchain/0.2.0/arm/arm-none-eabi/include/c++/10.3.1/bits/stl_algo.h **** 	   typename _BinaryPredicate>
1032:/Library/DaisyToolchain/0.2.0/arm/arm-none-eabi/include/c++/10.3.1/bits/stl_algo.h ****     _GLIBCXX20_CONSTEXPR
1033:/Library/DaisyToolchain/0.2.0/arm/arm-none-eabi/include/c++/10.3.1/bits/stl_algo.h ****     _OutputIterator
1034:/Library/DaisyToolchain/0.2.0/arm/arm-none-eabi/include/c++/10.3.1/bits/stl_algo.h ****     __unique_copy(_ForwardIterator __first, _ForwardIterator __last,
1035:/Library/DaisyToolchain/0.2.0/arm/arm-none-eabi/include/c++/10.3.1/bits/stl_algo.h **** 		  _OutputIterator __result, _BinaryPredicate __binary_pred,
1036:/Library/DaisyToolchain/0.2.0/arm/arm-none-eabi/include/c++/10.3.1/bits/stl_algo.h **** 		  forward_iterator_tag, output_iterator_tag)
1037:/Library/DaisyToolchain/0.2.0/arm/arm-none-eabi/include/c++/10.3.1/bits/stl_algo.h ****     {
1038:/Library/DaisyToolchain/0.2.0/arm/arm-none-eabi/include/c++/10.3.1/bits/stl_algo.h ****       // concept requirements -- iterators already checked
1039:/Library/DaisyToolchain/0.2.0/arm/arm-none-eabi/include/c++/10.3.1/bits/stl_algo.h ****       __glibcxx_function_requires(_BinaryPredicateConcept<_BinaryPredicate,
1040:/Library/DaisyToolchain/0.2.0/arm/arm-none-eabi/include/c++/10.3.1/bits/stl_algo.h **** 	  typename iterator_traits<_ForwardIterator>::value_type,
1041:/Library/DaisyToolchain/0.2.0/arm/arm-none-eabi/include/c++/10.3.1/bits/stl_algo.h **** 	  typename iterator_traits<_ForwardIterator>::value_type>)
1042:/Library/DaisyToolchain/0.2.0/arm/arm-none-eabi/include/c++/10.3.1/bits/stl_algo.h **** 
1043:/Library/DaisyToolchain/0.2.0/arm/arm-none-eabi/include/c++/10.3.1/bits/stl_algo.h ****       _ForwardIterator __next = __first;
1044:/Library/DaisyToolchain/0.2.0/arm/arm-none-eabi/include/c++/10.3.1/bits/stl_algo.h ****       *__result = *__first;
1045:/Library/DaisyToolchain/0.2.0/arm/arm-none-eabi/include/c++/10.3.1/bits/stl_algo.h ****       while (++__next != __last)
1046:/Library/DaisyToolchain/0.2.0/arm/arm-none-eabi/include/c++/10.3.1/bits/stl_algo.h **** 	if (!__binary_pred(__first, __next))
1047:/Library/DaisyToolchain/0.2.0/arm/arm-none-eabi/include/c++/10.3.1/bits/stl_algo.h **** 	  {
1048:/Library/DaisyToolchain/0.2.0/arm/arm-none-eabi/include/c++/10.3.1/bits/stl_algo.h **** 	    __first = __next;
1049:/Library/DaisyToolchain/0.2.0/arm/arm-none-eabi/include/c++/10.3.1/bits/stl_algo.h **** 	    *++__result = *__first;
1050:/Library/DaisyToolchain/0.2.0/arm/arm-none-eabi/include/c++/10.3.1/bits/stl_algo.h **** 	  }
1051:/Library/DaisyToolchain/0.2.0/arm/arm-none-eabi/include/c++/10.3.1/bits/stl_algo.h ****       return ++__result;
1052:/Library/DaisyToolchain/0.2.0/arm/arm-none-eabi/include/c++/10.3.1/bits/stl_algo.h ****     }
1053:/Library/DaisyToolchain/0.2.0/arm/arm-none-eabi/include/c++/10.3.1/bits/stl_algo.h **** 
1054:/Library/DaisyToolchain/0.2.0/arm/arm-none-eabi/include/c++/10.3.1/bits/stl_algo.h ****   /**
1055:/Library/DaisyToolchain/0.2.0/arm/arm-none-eabi/include/c++/10.3.1/bits/stl_algo.h ****    *  This is an uglified
1056:/Library/DaisyToolchain/0.2.0/arm/arm-none-eabi/include/c++/10.3.1/bits/stl_algo.h ****    *  unique_copy(_InputIterator, _InputIterator, _OutputIterator,
1057:/Library/DaisyToolchain/0.2.0/arm/arm-none-eabi/include/c++/10.3.1/bits/stl_algo.h ****    *              _BinaryPredicate)
1058:/Library/DaisyToolchain/0.2.0/arm/arm-none-eabi/include/c++/10.3.1/bits/stl_algo.h ****    *  overloaded for input iterators and output iterator as result.
1059:/Library/DaisyToolchain/0.2.0/arm/arm-none-eabi/include/c++/10.3.1/bits/stl_algo.h ****   */
1060:/Library/DaisyToolchain/0.2.0/arm/arm-none-eabi/include/c++/10.3.1/bits/stl_algo.h ****   template<typename _InputIterator, typename _OutputIterator,
1061:/Library/DaisyToolchain/0.2.0/arm/arm-none-eabi/include/c++/10.3.1/bits/stl_algo.h **** 	   typename _BinaryPredicate>
1062:/Library/DaisyToolchain/0.2.0/arm/arm-none-eabi/include/c++/10.3.1/bits/stl_algo.h ****     _GLIBCXX20_CONSTEXPR
1063:/Library/DaisyToolchain/0.2.0/arm/arm-none-eabi/include/c++/10.3.1/bits/stl_algo.h ****     _OutputIterator
1064:/Library/DaisyToolchain/0.2.0/arm/arm-none-eabi/include/c++/10.3.1/bits/stl_algo.h ****     __unique_copy(_InputIterator __first, _InputIterator __last,
1065:/Library/DaisyToolchain/0.2.0/arm/arm-none-eabi/include/c++/10.3.1/bits/stl_algo.h **** 		  _OutputIterator __result, _BinaryPredicate __binary_pred,
1066:/Library/DaisyToolchain/0.2.0/arm/arm-none-eabi/include/c++/10.3.1/bits/stl_algo.h **** 		  input_iterator_tag, output_iterator_tag)
1067:/Library/DaisyToolchain/0.2.0/arm/arm-none-eabi/include/c++/10.3.1/bits/stl_algo.h ****     {
1068:/Library/DaisyToolchain/0.2.0/arm/arm-none-eabi/include/c++/10.3.1/bits/stl_algo.h ****       // concept requirements -- iterators already checked
1069:/Library/DaisyToolchain/0.2.0/arm/arm-none-eabi/include/c++/10.3.1/bits/stl_algo.h ****       __glibcxx_function_requires(_BinaryPredicateConcept<_BinaryPredicate,
1070:/Library/DaisyToolchain/0.2.0/arm/arm-none-eabi/include/c++/10.3.1/bits/stl_algo.h **** 	  typename iterator_traits<_InputIterator>::value_type,
1071:/Library/DaisyToolchain/0.2.0/arm/arm-none-eabi/include/c++/10.3.1/bits/stl_algo.h **** 	  typename iterator_traits<_InputIterator>::value_type>)
1072:/Library/DaisyToolchain/0.2.0/arm/arm-none-eabi/include/c++/10.3.1/bits/stl_algo.h **** 
1073:/Library/DaisyToolchain/0.2.0/arm/arm-none-eabi/include/c++/10.3.1/bits/stl_algo.h ****       typename iterator_traits<_InputIterator>::value_type __value = *__first;
1074:/Library/DaisyToolchain/0.2.0/arm/arm-none-eabi/include/c++/10.3.1/bits/stl_algo.h ****       __decltype(__gnu_cxx::__ops::__iter_comp_val(__binary_pred))
1075:/Library/DaisyToolchain/0.2.0/arm/arm-none-eabi/include/c++/10.3.1/bits/stl_algo.h **** 	__rebound_pred
1076:/Library/DaisyToolchain/0.2.0/arm/arm-none-eabi/include/c++/10.3.1/bits/stl_algo.h **** 	= __gnu_cxx::__ops::__iter_comp_val(__binary_pred);
1077:/Library/DaisyToolchain/0.2.0/arm/arm-none-eabi/include/c++/10.3.1/bits/stl_algo.h ****       *__result = __value;
1078:/Library/DaisyToolchain/0.2.0/arm/arm-none-eabi/include/c++/10.3.1/bits/stl_algo.h ****       while (++__first != __last)
1079:/Library/DaisyToolchain/0.2.0/arm/arm-none-eabi/include/c++/10.3.1/bits/stl_algo.h **** 	if (!__rebound_pred(__first, __value))
1080:/Library/DaisyToolchain/0.2.0/arm/arm-none-eabi/include/c++/10.3.1/bits/stl_algo.h **** 	  {
1081:/Library/DaisyToolchain/0.2.0/arm/arm-none-eabi/include/c++/10.3.1/bits/stl_algo.h **** 	    __value = *__first;
1082:/Library/DaisyToolchain/0.2.0/arm/arm-none-eabi/include/c++/10.3.1/bits/stl_algo.h **** 	    *++__result = __value;
ARM GAS  /var/folders/th/s5djnwg15xxc0dk87c413f_h0000gn/T//ccCW3aXI.s 			page 101


1083:/Library/DaisyToolchain/0.2.0/arm/arm-none-eabi/include/c++/10.3.1/bits/stl_algo.h **** 	  }
1084:/Library/DaisyToolchain/0.2.0/arm/arm-none-eabi/include/c++/10.3.1/bits/stl_algo.h ****       return ++__result;
1085:/Library/DaisyToolchain/0.2.0/arm/arm-none-eabi/include/c++/10.3.1/bits/stl_algo.h ****     }
1086:/Library/DaisyToolchain/0.2.0/arm/arm-none-eabi/include/c++/10.3.1/bits/stl_algo.h **** 
1087:/Library/DaisyToolchain/0.2.0/arm/arm-none-eabi/include/c++/10.3.1/bits/stl_algo.h ****   /**
1088:/Library/DaisyToolchain/0.2.0/arm/arm-none-eabi/include/c++/10.3.1/bits/stl_algo.h ****    *  This is an uglified
1089:/Library/DaisyToolchain/0.2.0/arm/arm-none-eabi/include/c++/10.3.1/bits/stl_algo.h ****    *  unique_copy(_InputIterator, _InputIterator, _OutputIterator,
1090:/Library/DaisyToolchain/0.2.0/arm/arm-none-eabi/include/c++/10.3.1/bits/stl_algo.h ****    *              _BinaryPredicate)
1091:/Library/DaisyToolchain/0.2.0/arm/arm-none-eabi/include/c++/10.3.1/bits/stl_algo.h ****    *  overloaded for input iterators and forward iterator as result.
1092:/Library/DaisyToolchain/0.2.0/arm/arm-none-eabi/include/c++/10.3.1/bits/stl_algo.h ****   */
1093:/Library/DaisyToolchain/0.2.0/arm/arm-none-eabi/include/c++/10.3.1/bits/stl_algo.h ****   template<typename _InputIterator, typename _ForwardIterator,
1094:/Library/DaisyToolchain/0.2.0/arm/arm-none-eabi/include/c++/10.3.1/bits/stl_algo.h **** 	   typename _BinaryPredicate>
1095:/Library/DaisyToolchain/0.2.0/arm/arm-none-eabi/include/c++/10.3.1/bits/stl_algo.h ****     _GLIBCXX20_CONSTEXPR
1096:/Library/DaisyToolchain/0.2.0/arm/arm-none-eabi/include/c++/10.3.1/bits/stl_algo.h ****     _ForwardIterator
1097:/Library/DaisyToolchain/0.2.0/arm/arm-none-eabi/include/c++/10.3.1/bits/stl_algo.h ****     __unique_copy(_InputIterator __first, _InputIterator __last,
1098:/Library/DaisyToolchain/0.2.0/arm/arm-none-eabi/include/c++/10.3.1/bits/stl_algo.h **** 		  _ForwardIterator __result, _BinaryPredicate __binary_pred,
1099:/Library/DaisyToolchain/0.2.0/arm/arm-none-eabi/include/c++/10.3.1/bits/stl_algo.h **** 		  input_iterator_tag, forward_iterator_tag)
1100:/Library/DaisyToolchain/0.2.0/arm/arm-none-eabi/include/c++/10.3.1/bits/stl_algo.h ****     {
1101:/Library/DaisyToolchain/0.2.0/arm/arm-none-eabi/include/c++/10.3.1/bits/stl_algo.h ****       // concept requirements -- iterators already checked
1102:/Library/DaisyToolchain/0.2.0/arm/arm-none-eabi/include/c++/10.3.1/bits/stl_algo.h ****       __glibcxx_function_requires(_BinaryPredicateConcept<_BinaryPredicate,
1103:/Library/DaisyToolchain/0.2.0/arm/arm-none-eabi/include/c++/10.3.1/bits/stl_algo.h **** 	  typename iterator_traits<_ForwardIterator>::value_type,
1104:/Library/DaisyToolchain/0.2.0/arm/arm-none-eabi/include/c++/10.3.1/bits/stl_algo.h **** 	  typename iterator_traits<_InputIterator>::value_type>)
1105:/Library/DaisyToolchain/0.2.0/arm/arm-none-eabi/include/c++/10.3.1/bits/stl_algo.h ****       *__result = *__first;
1106:/Library/DaisyToolchain/0.2.0/arm/arm-none-eabi/include/c++/10.3.1/bits/stl_algo.h ****       while (++__first != __last)
1107:/Library/DaisyToolchain/0.2.0/arm/arm-none-eabi/include/c++/10.3.1/bits/stl_algo.h **** 	if (!__binary_pred(__result, __first))
1108:/Library/DaisyToolchain/0.2.0/arm/arm-none-eabi/include/c++/10.3.1/bits/stl_algo.h **** 	  *++__result = *__first;
1109:/Library/DaisyToolchain/0.2.0/arm/arm-none-eabi/include/c++/10.3.1/bits/stl_algo.h ****       return ++__result;
1110:/Library/DaisyToolchain/0.2.0/arm/arm-none-eabi/include/c++/10.3.1/bits/stl_algo.h ****     }
1111:/Library/DaisyToolchain/0.2.0/arm/arm-none-eabi/include/c++/10.3.1/bits/stl_algo.h **** 
1112:/Library/DaisyToolchain/0.2.0/arm/arm-none-eabi/include/c++/10.3.1/bits/stl_algo.h ****   /**
1113:/Library/DaisyToolchain/0.2.0/arm/arm-none-eabi/include/c++/10.3.1/bits/stl_algo.h ****    *  This is an uglified reverse(_BidirectionalIterator,
1114:/Library/DaisyToolchain/0.2.0/arm/arm-none-eabi/include/c++/10.3.1/bits/stl_algo.h ****    *                              _BidirectionalIterator)
1115:/Library/DaisyToolchain/0.2.0/arm/arm-none-eabi/include/c++/10.3.1/bits/stl_algo.h ****    *  overloaded for bidirectional iterators.
1116:/Library/DaisyToolchain/0.2.0/arm/arm-none-eabi/include/c++/10.3.1/bits/stl_algo.h ****   */
1117:/Library/DaisyToolchain/0.2.0/arm/arm-none-eabi/include/c++/10.3.1/bits/stl_algo.h ****   template<typename _BidirectionalIterator>
1118:/Library/DaisyToolchain/0.2.0/arm/arm-none-eabi/include/c++/10.3.1/bits/stl_algo.h ****     _GLIBCXX20_CONSTEXPR
1119:/Library/DaisyToolchain/0.2.0/arm/arm-none-eabi/include/c++/10.3.1/bits/stl_algo.h ****     void
1120:/Library/DaisyToolchain/0.2.0/arm/arm-none-eabi/include/c++/10.3.1/bits/stl_algo.h ****     __reverse(_BidirectionalIterator __first, _BidirectionalIterator __last,
1121:/Library/DaisyToolchain/0.2.0/arm/arm-none-eabi/include/c++/10.3.1/bits/stl_algo.h **** 	      bidirectional_iterator_tag)
1122:/Library/DaisyToolchain/0.2.0/arm/arm-none-eabi/include/c++/10.3.1/bits/stl_algo.h ****     {
1123:/Library/DaisyToolchain/0.2.0/arm/arm-none-eabi/include/c++/10.3.1/bits/stl_algo.h ****       while (true)
1124:/Library/DaisyToolchain/0.2.0/arm/arm-none-eabi/include/c++/10.3.1/bits/stl_algo.h **** 	if (__first == __last || __first == --__last)
1125:/Library/DaisyToolchain/0.2.0/arm/arm-none-eabi/include/c++/10.3.1/bits/stl_algo.h **** 	  return;
1126:/Library/DaisyToolchain/0.2.0/arm/arm-none-eabi/include/c++/10.3.1/bits/stl_algo.h **** 	else
1127:/Library/DaisyToolchain/0.2.0/arm/arm-none-eabi/include/c++/10.3.1/bits/stl_algo.h **** 	  {
1128:/Library/DaisyToolchain/0.2.0/arm/arm-none-eabi/include/c++/10.3.1/bits/stl_algo.h **** 	    std::iter_swap(__first, __last);
1129:/Library/DaisyToolchain/0.2.0/arm/arm-none-eabi/include/c++/10.3.1/bits/stl_algo.h **** 	    ++__first;
1130:/Library/DaisyToolchain/0.2.0/arm/arm-none-eabi/include/c++/10.3.1/bits/stl_algo.h **** 	  }
1131:/Library/DaisyToolchain/0.2.0/arm/arm-none-eabi/include/c++/10.3.1/bits/stl_algo.h ****     }
1132:/Library/DaisyToolchain/0.2.0/arm/arm-none-eabi/include/c++/10.3.1/bits/stl_algo.h **** 
1133:/Library/DaisyToolchain/0.2.0/arm/arm-none-eabi/include/c++/10.3.1/bits/stl_algo.h ****   /**
1134:/Library/DaisyToolchain/0.2.0/arm/arm-none-eabi/include/c++/10.3.1/bits/stl_algo.h ****    *  This is an uglified reverse(_BidirectionalIterator,
1135:/Library/DaisyToolchain/0.2.0/arm/arm-none-eabi/include/c++/10.3.1/bits/stl_algo.h ****    *                              _BidirectionalIterator)
1136:/Library/DaisyToolchain/0.2.0/arm/arm-none-eabi/include/c++/10.3.1/bits/stl_algo.h ****    *  overloaded for random access iterators.
1137:/Library/DaisyToolchain/0.2.0/arm/arm-none-eabi/include/c++/10.3.1/bits/stl_algo.h ****   */
1138:/Library/DaisyToolchain/0.2.0/arm/arm-none-eabi/include/c++/10.3.1/bits/stl_algo.h ****   template<typename _RandomAccessIterator>
1139:/Library/DaisyToolchain/0.2.0/arm/arm-none-eabi/include/c++/10.3.1/bits/stl_algo.h ****     _GLIBCXX20_CONSTEXPR
ARM GAS  /var/folders/th/s5djnwg15xxc0dk87c413f_h0000gn/T//ccCW3aXI.s 			page 102


1140:/Library/DaisyToolchain/0.2.0/arm/arm-none-eabi/include/c++/10.3.1/bits/stl_algo.h ****     void
1141:/Library/DaisyToolchain/0.2.0/arm/arm-none-eabi/include/c++/10.3.1/bits/stl_algo.h ****     __reverse(_RandomAccessIterator __first, _RandomAccessIterator __last,
1142:/Library/DaisyToolchain/0.2.0/arm/arm-none-eabi/include/c++/10.3.1/bits/stl_algo.h **** 	      random_access_iterator_tag)
1143:/Library/DaisyToolchain/0.2.0/arm/arm-none-eabi/include/c++/10.3.1/bits/stl_algo.h ****     {
1144:/Library/DaisyToolchain/0.2.0/arm/arm-none-eabi/include/c++/10.3.1/bits/stl_algo.h ****       if (__first == __last)
1145:/Library/DaisyToolchain/0.2.0/arm/arm-none-eabi/include/c++/10.3.1/bits/stl_algo.h **** 	return;
1146:/Library/DaisyToolchain/0.2.0/arm/arm-none-eabi/include/c++/10.3.1/bits/stl_algo.h ****       --__last;
1147:/Library/DaisyToolchain/0.2.0/arm/arm-none-eabi/include/c++/10.3.1/bits/stl_algo.h ****       while (__first < __last)
1148:/Library/DaisyToolchain/0.2.0/arm/arm-none-eabi/include/c++/10.3.1/bits/stl_algo.h **** 	{
1149:/Library/DaisyToolchain/0.2.0/arm/arm-none-eabi/include/c++/10.3.1/bits/stl_algo.h **** 	  std::iter_swap(__first, __last);
1150:/Library/DaisyToolchain/0.2.0/arm/arm-none-eabi/include/c++/10.3.1/bits/stl_algo.h **** 	  ++__first;
1151:/Library/DaisyToolchain/0.2.0/arm/arm-none-eabi/include/c++/10.3.1/bits/stl_algo.h **** 	  --__last;
1152:/Library/DaisyToolchain/0.2.0/arm/arm-none-eabi/include/c++/10.3.1/bits/stl_algo.h **** 	}
1153:/Library/DaisyToolchain/0.2.0/arm/arm-none-eabi/include/c++/10.3.1/bits/stl_algo.h ****     }
1154:/Library/DaisyToolchain/0.2.0/arm/arm-none-eabi/include/c++/10.3.1/bits/stl_algo.h **** 
1155:/Library/DaisyToolchain/0.2.0/arm/arm-none-eabi/include/c++/10.3.1/bits/stl_algo.h ****   /**
1156:/Library/DaisyToolchain/0.2.0/arm/arm-none-eabi/include/c++/10.3.1/bits/stl_algo.h ****    *  @brief Reverse a sequence.
1157:/Library/DaisyToolchain/0.2.0/arm/arm-none-eabi/include/c++/10.3.1/bits/stl_algo.h ****    *  @ingroup mutating_algorithms
1158:/Library/DaisyToolchain/0.2.0/arm/arm-none-eabi/include/c++/10.3.1/bits/stl_algo.h ****    *  @param  __first  A bidirectional iterator.
1159:/Library/DaisyToolchain/0.2.0/arm/arm-none-eabi/include/c++/10.3.1/bits/stl_algo.h ****    *  @param  __last   A bidirectional iterator.
1160:/Library/DaisyToolchain/0.2.0/arm/arm-none-eabi/include/c++/10.3.1/bits/stl_algo.h ****    *  @return   reverse() returns no value.
1161:/Library/DaisyToolchain/0.2.0/arm/arm-none-eabi/include/c++/10.3.1/bits/stl_algo.h ****    *
1162:/Library/DaisyToolchain/0.2.0/arm/arm-none-eabi/include/c++/10.3.1/bits/stl_algo.h ****    *  Reverses the order of the elements in the range @p [__first,__last),
1163:/Library/DaisyToolchain/0.2.0/arm/arm-none-eabi/include/c++/10.3.1/bits/stl_algo.h ****    *  so that the first element becomes the last etc.
1164:/Library/DaisyToolchain/0.2.0/arm/arm-none-eabi/include/c++/10.3.1/bits/stl_algo.h ****    *  For every @c i such that @p 0<=i<=(__last-__first)/2), @p reverse()
1165:/Library/DaisyToolchain/0.2.0/arm/arm-none-eabi/include/c++/10.3.1/bits/stl_algo.h ****    *  swaps @p *(__first+i) and @p *(__last-(i+1))
1166:/Library/DaisyToolchain/0.2.0/arm/arm-none-eabi/include/c++/10.3.1/bits/stl_algo.h ****   */
1167:/Library/DaisyToolchain/0.2.0/arm/arm-none-eabi/include/c++/10.3.1/bits/stl_algo.h ****   template<typename _BidirectionalIterator>
1168:/Library/DaisyToolchain/0.2.0/arm/arm-none-eabi/include/c++/10.3.1/bits/stl_algo.h ****     _GLIBCXX20_CONSTEXPR
1169:/Library/DaisyToolchain/0.2.0/arm/arm-none-eabi/include/c++/10.3.1/bits/stl_algo.h ****     inline void
1170:/Library/DaisyToolchain/0.2.0/arm/arm-none-eabi/include/c++/10.3.1/bits/stl_algo.h ****     reverse(_BidirectionalIterator __first, _BidirectionalIterator __last)
1171:/Library/DaisyToolchain/0.2.0/arm/arm-none-eabi/include/c++/10.3.1/bits/stl_algo.h ****     {
1172:/Library/DaisyToolchain/0.2.0/arm/arm-none-eabi/include/c++/10.3.1/bits/stl_algo.h ****       // concept requirements
1173:/Library/DaisyToolchain/0.2.0/arm/arm-none-eabi/include/c++/10.3.1/bits/stl_algo.h ****       __glibcxx_function_requires(_Mutable_BidirectionalIteratorConcept<
1174:/Library/DaisyToolchain/0.2.0/arm/arm-none-eabi/include/c++/10.3.1/bits/stl_algo.h **** 				  _BidirectionalIterator>)
1175:/Library/DaisyToolchain/0.2.0/arm/arm-none-eabi/include/c++/10.3.1/bits/stl_algo.h ****       __glibcxx_requires_valid_range(__first, __last);
1176:/Library/DaisyToolchain/0.2.0/arm/arm-none-eabi/include/c++/10.3.1/bits/stl_algo.h ****       std::__reverse(__first, __last, std::__iterator_category(__first));
1177:/Library/DaisyToolchain/0.2.0/arm/arm-none-eabi/include/c++/10.3.1/bits/stl_algo.h ****     }
1178:/Library/DaisyToolchain/0.2.0/arm/arm-none-eabi/include/c++/10.3.1/bits/stl_algo.h **** 
1179:/Library/DaisyToolchain/0.2.0/arm/arm-none-eabi/include/c++/10.3.1/bits/stl_algo.h ****   /**
1180:/Library/DaisyToolchain/0.2.0/arm/arm-none-eabi/include/c++/10.3.1/bits/stl_algo.h ****    *  @brief Copy a sequence, reversing its elements.
1181:/Library/DaisyToolchain/0.2.0/arm/arm-none-eabi/include/c++/10.3.1/bits/stl_algo.h ****    *  @ingroup mutating_algorithms
1182:/Library/DaisyToolchain/0.2.0/arm/arm-none-eabi/include/c++/10.3.1/bits/stl_algo.h ****    *  @param  __first   A bidirectional iterator.
1183:/Library/DaisyToolchain/0.2.0/arm/arm-none-eabi/include/c++/10.3.1/bits/stl_algo.h ****    *  @param  __last    A bidirectional iterator.
1184:/Library/DaisyToolchain/0.2.0/arm/arm-none-eabi/include/c++/10.3.1/bits/stl_algo.h ****    *  @param  __result  An output iterator.
1185:/Library/DaisyToolchain/0.2.0/arm/arm-none-eabi/include/c++/10.3.1/bits/stl_algo.h ****    *  @return  An iterator designating the end of the resulting sequence.
1186:/Library/DaisyToolchain/0.2.0/arm/arm-none-eabi/include/c++/10.3.1/bits/stl_algo.h ****    *
1187:/Library/DaisyToolchain/0.2.0/arm/arm-none-eabi/include/c++/10.3.1/bits/stl_algo.h ****    *  Copies the elements in the range @p [__first,__last) to the
1188:/Library/DaisyToolchain/0.2.0/arm/arm-none-eabi/include/c++/10.3.1/bits/stl_algo.h ****    *  range @p [__result,__result+(__last-__first)) such that the
1189:/Library/DaisyToolchain/0.2.0/arm/arm-none-eabi/include/c++/10.3.1/bits/stl_algo.h ****    *  order of the elements is reversed.  For every @c i such that @p
1190:/Library/DaisyToolchain/0.2.0/arm/arm-none-eabi/include/c++/10.3.1/bits/stl_algo.h ****    *  0<=i<=(__last-__first), @p reverse_copy() performs the
1191:/Library/DaisyToolchain/0.2.0/arm/arm-none-eabi/include/c++/10.3.1/bits/stl_algo.h ****    *  assignment @p *(__result+(__last-__first)-1-i) = *(__first+i).
1192:/Library/DaisyToolchain/0.2.0/arm/arm-none-eabi/include/c++/10.3.1/bits/stl_algo.h ****    *  The ranges @p [__first,__last) and @p
1193:/Library/DaisyToolchain/0.2.0/arm/arm-none-eabi/include/c++/10.3.1/bits/stl_algo.h ****    *  [__result,__result+(__last-__first)) must not overlap.
1194:/Library/DaisyToolchain/0.2.0/arm/arm-none-eabi/include/c++/10.3.1/bits/stl_algo.h ****   */
1195:/Library/DaisyToolchain/0.2.0/arm/arm-none-eabi/include/c++/10.3.1/bits/stl_algo.h ****   template<typename _BidirectionalIterator, typename _OutputIterator>
1196:/Library/DaisyToolchain/0.2.0/arm/arm-none-eabi/include/c++/10.3.1/bits/stl_algo.h ****     _GLIBCXX20_CONSTEXPR
ARM GAS  /var/folders/th/s5djnwg15xxc0dk87c413f_h0000gn/T//ccCW3aXI.s 			page 103


1197:/Library/DaisyToolchain/0.2.0/arm/arm-none-eabi/include/c++/10.3.1/bits/stl_algo.h ****     _OutputIterator
1198:/Library/DaisyToolchain/0.2.0/arm/arm-none-eabi/include/c++/10.3.1/bits/stl_algo.h ****     reverse_copy(_BidirectionalIterator __first, _BidirectionalIterator __last,
1199:/Library/DaisyToolchain/0.2.0/arm/arm-none-eabi/include/c++/10.3.1/bits/stl_algo.h **** 		 _OutputIterator __result)
1200:/Library/DaisyToolchain/0.2.0/arm/arm-none-eabi/include/c++/10.3.1/bits/stl_algo.h ****     {
1201:/Library/DaisyToolchain/0.2.0/arm/arm-none-eabi/include/c++/10.3.1/bits/stl_algo.h ****       // concept requirements
1202:/Library/DaisyToolchain/0.2.0/arm/arm-none-eabi/include/c++/10.3.1/bits/stl_algo.h ****       __glibcxx_function_requires(_BidirectionalIteratorConcept<
1203:/Library/DaisyToolchain/0.2.0/arm/arm-none-eabi/include/c++/10.3.1/bits/stl_algo.h **** 				  _BidirectionalIterator>)
1204:/Library/DaisyToolchain/0.2.0/arm/arm-none-eabi/include/c++/10.3.1/bits/stl_algo.h ****       __glibcxx_function_requires(_OutputIteratorConcept<_OutputIterator,
1205:/Library/DaisyToolchain/0.2.0/arm/arm-none-eabi/include/c++/10.3.1/bits/stl_algo.h **** 		typename iterator_traits<_BidirectionalIterator>::value_type>)
1206:/Library/DaisyToolchain/0.2.0/arm/arm-none-eabi/include/c++/10.3.1/bits/stl_algo.h ****       __glibcxx_requires_valid_range(__first, __last);
1207:/Library/DaisyToolchain/0.2.0/arm/arm-none-eabi/include/c++/10.3.1/bits/stl_algo.h **** 
1208:/Library/DaisyToolchain/0.2.0/arm/arm-none-eabi/include/c++/10.3.1/bits/stl_algo.h ****       while (__first != __last)
1209:/Library/DaisyToolchain/0.2.0/arm/arm-none-eabi/include/c++/10.3.1/bits/stl_algo.h **** 	{
1210:/Library/DaisyToolchain/0.2.0/arm/arm-none-eabi/include/c++/10.3.1/bits/stl_algo.h **** 	  --__last;
1211:/Library/DaisyToolchain/0.2.0/arm/arm-none-eabi/include/c++/10.3.1/bits/stl_algo.h **** 	  *__result = *__last;
1212:/Library/DaisyToolchain/0.2.0/arm/arm-none-eabi/include/c++/10.3.1/bits/stl_algo.h **** 	  ++__result;
1213:/Library/DaisyToolchain/0.2.0/arm/arm-none-eabi/include/c++/10.3.1/bits/stl_algo.h **** 	}
1214:/Library/DaisyToolchain/0.2.0/arm/arm-none-eabi/include/c++/10.3.1/bits/stl_algo.h ****       return __result;
1215:/Library/DaisyToolchain/0.2.0/arm/arm-none-eabi/include/c++/10.3.1/bits/stl_algo.h ****     }
1216:/Library/DaisyToolchain/0.2.0/arm/arm-none-eabi/include/c++/10.3.1/bits/stl_algo.h **** 
1217:/Library/DaisyToolchain/0.2.0/arm/arm-none-eabi/include/c++/10.3.1/bits/stl_algo.h ****   /**
1218:/Library/DaisyToolchain/0.2.0/arm/arm-none-eabi/include/c++/10.3.1/bits/stl_algo.h ****    *  This is a helper function for the rotate algorithm specialized on RAIs.
1219:/Library/DaisyToolchain/0.2.0/arm/arm-none-eabi/include/c++/10.3.1/bits/stl_algo.h ****    *  It returns the greatest common divisor of two integer values.
1220:/Library/DaisyToolchain/0.2.0/arm/arm-none-eabi/include/c++/10.3.1/bits/stl_algo.h ****   */
1221:/Library/DaisyToolchain/0.2.0/arm/arm-none-eabi/include/c++/10.3.1/bits/stl_algo.h ****   template<typename _EuclideanRingElement>
1222:/Library/DaisyToolchain/0.2.0/arm/arm-none-eabi/include/c++/10.3.1/bits/stl_algo.h ****     _GLIBCXX20_CONSTEXPR
1223:/Library/DaisyToolchain/0.2.0/arm/arm-none-eabi/include/c++/10.3.1/bits/stl_algo.h ****     _EuclideanRingElement
1224:/Library/DaisyToolchain/0.2.0/arm/arm-none-eabi/include/c++/10.3.1/bits/stl_algo.h ****     __gcd(_EuclideanRingElement __m, _EuclideanRingElement __n)
1225:/Library/DaisyToolchain/0.2.0/arm/arm-none-eabi/include/c++/10.3.1/bits/stl_algo.h ****     {
1226:/Library/DaisyToolchain/0.2.0/arm/arm-none-eabi/include/c++/10.3.1/bits/stl_algo.h ****       while (__n != 0)
1227:/Library/DaisyToolchain/0.2.0/arm/arm-none-eabi/include/c++/10.3.1/bits/stl_algo.h **** 	{
1228:/Library/DaisyToolchain/0.2.0/arm/arm-none-eabi/include/c++/10.3.1/bits/stl_algo.h **** 	  _EuclideanRingElement __t = __m % __n;
1229:/Library/DaisyToolchain/0.2.0/arm/arm-none-eabi/include/c++/10.3.1/bits/stl_algo.h **** 	  __m = __n;
1230:/Library/DaisyToolchain/0.2.0/arm/arm-none-eabi/include/c++/10.3.1/bits/stl_algo.h **** 	  __n = __t;
1231:/Library/DaisyToolchain/0.2.0/arm/arm-none-eabi/include/c++/10.3.1/bits/stl_algo.h **** 	}
1232:/Library/DaisyToolchain/0.2.0/arm/arm-none-eabi/include/c++/10.3.1/bits/stl_algo.h ****       return __m;
1233:/Library/DaisyToolchain/0.2.0/arm/arm-none-eabi/include/c++/10.3.1/bits/stl_algo.h ****     }
1234:/Library/DaisyToolchain/0.2.0/arm/arm-none-eabi/include/c++/10.3.1/bits/stl_algo.h **** 
1235:/Library/DaisyToolchain/0.2.0/arm/arm-none-eabi/include/c++/10.3.1/bits/stl_algo.h ****   inline namespace _V2
1236:/Library/DaisyToolchain/0.2.0/arm/arm-none-eabi/include/c++/10.3.1/bits/stl_algo.h ****   {
1237:/Library/DaisyToolchain/0.2.0/arm/arm-none-eabi/include/c++/10.3.1/bits/stl_algo.h **** 
1238:/Library/DaisyToolchain/0.2.0/arm/arm-none-eabi/include/c++/10.3.1/bits/stl_algo.h ****   /// This is a helper function for the rotate algorithm.
1239:/Library/DaisyToolchain/0.2.0/arm/arm-none-eabi/include/c++/10.3.1/bits/stl_algo.h ****   template<typename _ForwardIterator>
1240:/Library/DaisyToolchain/0.2.0/arm/arm-none-eabi/include/c++/10.3.1/bits/stl_algo.h ****     _GLIBCXX20_CONSTEXPR
1241:/Library/DaisyToolchain/0.2.0/arm/arm-none-eabi/include/c++/10.3.1/bits/stl_algo.h ****     _ForwardIterator
1242:/Library/DaisyToolchain/0.2.0/arm/arm-none-eabi/include/c++/10.3.1/bits/stl_algo.h ****     __rotate(_ForwardIterator __first,
1243:/Library/DaisyToolchain/0.2.0/arm/arm-none-eabi/include/c++/10.3.1/bits/stl_algo.h **** 	     _ForwardIterator __middle,
1244:/Library/DaisyToolchain/0.2.0/arm/arm-none-eabi/include/c++/10.3.1/bits/stl_algo.h **** 	     _ForwardIterator __last,
1245:/Library/DaisyToolchain/0.2.0/arm/arm-none-eabi/include/c++/10.3.1/bits/stl_algo.h **** 	     forward_iterator_tag)
1246:/Library/DaisyToolchain/0.2.0/arm/arm-none-eabi/include/c++/10.3.1/bits/stl_algo.h ****     {
1247:/Library/DaisyToolchain/0.2.0/arm/arm-none-eabi/include/c++/10.3.1/bits/stl_algo.h ****       if (__first == __middle)
1248:/Library/DaisyToolchain/0.2.0/arm/arm-none-eabi/include/c++/10.3.1/bits/stl_algo.h **** 	return __last;
1249:/Library/DaisyToolchain/0.2.0/arm/arm-none-eabi/include/c++/10.3.1/bits/stl_algo.h ****       else if (__last == __middle)
1250:/Library/DaisyToolchain/0.2.0/arm/arm-none-eabi/include/c++/10.3.1/bits/stl_algo.h **** 	return __first;
1251:/Library/DaisyToolchain/0.2.0/arm/arm-none-eabi/include/c++/10.3.1/bits/stl_algo.h **** 
1252:/Library/DaisyToolchain/0.2.0/arm/arm-none-eabi/include/c++/10.3.1/bits/stl_algo.h ****       _ForwardIterator __first2 = __middle;
1253:/Library/DaisyToolchain/0.2.0/arm/arm-none-eabi/include/c++/10.3.1/bits/stl_algo.h ****       do
ARM GAS  /var/folders/th/s5djnwg15xxc0dk87c413f_h0000gn/T//ccCW3aXI.s 			page 104


1254:/Library/DaisyToolchain/0.2.0/arm/arm-none-eabi/include/c++/10.3.1/bits/stl_algo.h **** 	{
1255:/Library/DaisyToolchain/0.2.0/arm/arm-none-eabi/include/c++/10.3.1/bits/stl_algo.h **** 	  std::iter_swap(__first, __first2);
1256:/Library/DaisyToolchain/0.2.0/arm/arm-none-eabi/include/c++/10.3.1/bits/stl_algo.h **** 	  ++__first;
1257:/Library/DaisyToolchain/0.2.0/arm/arm-none-eabi/include/c++/10.3.1/bits/stl_algo.h **** 	  ++__first2;
1258:/Library/DaisyToolchain/0.2.0/arm/arm-none-eabi/include/c++/10.3.1/bits/stl_algo.h **** 	  if (__first == __middle)
1259:/Library/DaisyToolchain/0.2.0/arm/arm-none-eabi/include/c++/10.3.1/bits/stl_algo.h **** 	    __middle = __first2;
1260:/Library/DaisyToolchain/0.2.0/arm/arm-none-eabi/include/c++/10.3.1/bits/stl_algo.h **** 	}
1261:/Library/DaisyToolchain/0.2.0/arm/arm-none-eabi/include/c++/10.3.1/bits/stl_algo.h ****       while (__first2 != __last);
1262:/Library/DaisyToolchain/0.2.0/arm/arm-none-eabi/include/c++/10.3.1/bits/stl_algo.h **** 
1263:/Library/DaisyToolchain/0.2.0/arm/arm-none-eabi/include/c++/10.3.1/bits/stl_algo.h ****       _ForwardIterator __ret = __first;
1264:/Library/DaisyToolchain/0.2.0/arm/arm-none-eabi/include/c++/10.3.1/bits/stl_algo.h **** 
1265:/Library/DaisyToolchain/0.2.0/arm/arm-none-eabi/include/c++/10.3.1/bits/stl_algo.h ****       __first2 = __middle;
1266:/Library/DaisyToolchain/0.2.0/arm/arm-none-eabi/include/c++/10.3.1/bits/stl_algo.h **** 
1267:/Library/DaisyToolchain/0.2.0/arm/arm-none-eabi/include/c++/10.3.1/bits/stl_algo.h ****       while (__first2 != __last)
1268:/Library/DaisyToolchain/0.2.0/arm/arm-none-eabi/include/c++/10.3.1/bits/stl_algo.h **** 	{
1269:/Library/DaisyToolchain/0.2.0/arm/arm-none-eabi/include/c++/10.3.1/bits/stl_algo.h **** 	  std::iter_swap(__first, __first2);
1270:/Library/DaisyToolchain/0.2.0/arm/arm-none-eabi/include/c++/10.3.1/bits/stl_algo.h **** 	  ++__first;
1271:/Library/DaisyToolchain/0.2.0/arm/arm-none-eabi/include/c++/10.3.1/bits/stl_algo.h **** 	  ++__first2;
1272:/Library/DaisyToolchain/0.2.0/arm/arm-none-eabi/include/c++/10.3.1/bits/stl_algo.h **** 	  if (__first == __middle)
1273:/Library/DaisyToolchain/0.2.0/arm/arm-none-eabi/include/c++/10.3.1/bits/stl_algo.h **** 	    __middle = __first2;
1274:/Library/DaisyToolchain/0.2.0/arm/arm-none-eabi/include/c++/10.3.1/bits/stl_algo.h **** 	  else if (__first2 == __last)
1275:/Library/DaisyToolchain/0.2.0/arm/arm-none-eabi/include/c++/10.3.1/bits/stl_algo.h **** 	    __first2 = __middle;
1276:/Library/DaisyToolchain/0.2.0/arm/arm-none-eabi/include/c++/10.3.1/bits/stl_algo.h **** 	}
1277:/Library/DaisyToolchain/0.2.0/arm/arm-none-eabi/include/c++/10.3.1/bits/stl_algo.h ****       return __ret;
1278:/Library/DaisyToolchain/0.2.0/arm/arm-none-eabi/include/c++/10.3.1/bits/stl_algo.h ****     }
1279:/Library/DaisyToolchain/0.2.0/arm/arm-none-eabi/include/c++/10.3.1/bits/stl_algo.h **** 
1280:/Library/DaisyToolchain/0.2.0/arm/arm-none-eabi/include/c++/10.3.1/bits/stl_algo.h ****    /// This is a helper function for the rotate algorithm.
1281:/Library/DaisyToolchain/0.2.0/arm/arm-none-eabi/include/c++/10.3.1/bits/stl_algo.h ****   template<typename _BidirectionalIterator>
1282:/Library/DaisyToolchain/0.2.0/arm/arm-none-eabi/include/c++/10.3.1/bits/stl_algo.h ****     _GLIBCXX20_CONSTEXPR
1283:/Library/DaisyToolchain/0.2.0/arm/arm-none-eabi/include/c++/10.3.1/bits/stl_algo.h ****     _BidirectionalIterator
1284:/Library/DaisyToolchain/0.2.0/arm/arm-none-eabi/include/c++/10.3.1/bits/stl_algo.h ****     __rotate(_BidirectionalIterator __first,
1285:/Library/DaisyToolchain/0.2.0/arm/arm-none-eabi/include/c++/10.3.1/bits/stl_algo.h **** 	     _BidirectionalIterator __middle,
1286:/Library/DaisyToolchain/0.2.0/arm/arm-none-eabi/include/c++/10.3.1/bits/stl_algo.h **** 	     _BidirectionalIterator __last,
1287:/Library/DaisyToolchain/0.2.0/arm/arm-none-eabi/include/c++/10.3.1/bits/stl_algo.h **** 	      bidirectional_iterator_tag)
1288:/Library/DaisyToolchain/0.2.0/arm/arm-none-eabi/include/c++/10.3.1/bits/stl_algo.h ****     {
1289:/Library/DaisyToolchain/0.2.0/arm/arm-none-eabi/include/c++/10.3.1/bits/stl_algo.h ****       // concept requirements
1290:/Library/DaisyToolchain/0.2.0/arm/arm-none-eabi/include/c++/10.3.1/bits/stl_algo.h ****       __glibcxx_function_requires(_Mutable_BidirectionalIteratorConcept<
1291:/Library/DaisyToolchain/0.2.0/arm/arm-none-eabi/include/c++/10.3.1/bits/stl_algo.h **** 				  _BidirectionalIterator>)
1292:/Library/DaisyToolchain/0.2.0/arm/arm-none-eabi/include/c++/10.3.1/bits/stl_algo.h **** 
1293:/Library/DaisyToolchain/0.2.0/arm/arm-none-eabi/include/c++/10.3.1/bits/stl_algo.h ****       if (__first == __middle)
1294:/Library/DaisyToolchain/0.2.0/arm/arm-none-eabi/include/c++/10.3.1/bits/stl_algo.h **** 	return __last;
1295:/Library/DaisyToolchain/0.2.0/arm/arm-none-eabi/include/c++/10.3.1/bits/stl_algo.h ****       else if (__last == __middle)
1296:/Library/DaisyToolchain/0.2.0/arm/arm-none-eabi/include/c++/10.3.1/bits/stl_algo.h **** 	return __first;
1297:/Library/DaisyToolchain/0.2.0/arm/arm-none-eabi/include/c++/10.3.1/bits/stl_algo.h **** 
1298:/Library/DaisyToolchain/0.2.0/arm/arm-none-eabi/include/c++/10.3.1/bits/stl_algo.h ****       std::__reverse(__first,  __middle, bidirectional_iterator_tag());
1299:/Library/DaisyToolchain/0.2.0/arm/arm-none-eabi/include/c++/10.3.1/bits/stl_algo.h ****       std::__reverse(__middle, __last,   bidirectional_iterator_tag());
1300:/Library/DaisyToolchain/0.2.0/arm/arm-none-eabi/include/c++/10.3.1/bits/stl_algo.h **** 
1301:/Library/DaisyToolchain/0.2.0/arm/arm-none-eabi/include/c++/10.3.1/bits/stl_algo.h ****       while (__first != __middle && __middle != __last)
1302:/Library/DaisyToolchain/0.2.0/arm/arm-none-eabi/include/c++/10.3.1/bits/stl_algo.h **** 	{
1303:/Library/DaisyToolchain/0.2.0/arm/arm-none-eabi/include/c++/10.3.1/bits/stl_algo.h **** 	  std::iter_swap(__first, --__last);
1304:/Library/DaisyToolchain/0.2.0/arm/arm-none-eabi/include/c++/10.3.1/bits/stl_algo.h **** 	  ++__first;
1305:/Library/DaisyToolchain/0.2.0/arm/arm-none-eabi/include/c++/10.3.1/bits/stl_algo.h **** 	}
1306:/Library/DaisyToolchain/0.2.0/arm/arm-none-eabi/include/c++/10.3.1/bits/stl_algo.h **** 
1307:/Library/DaisyToolchain/0.2.0/arm/arm-none-eabi/include/c++/10.3.1/bits/stl_algo.h ****       if (__first == __middle)
1308:/Library/DaisyToolchain/0.2.0/arm/arm-none-eabi/include/c++/10.3.1/bits/stl_algo.h **** 	{
1309:/Library/DaisyToolchain/0.2.0/arm/arm-none-eabi/include/c++/10.3.1/bits/stl_algo.h **** 	  std::__reverse(__middle, __last,   bidirectional_iterator_tag());
1310:/Library/DaisyToolchain/0.2.0/arm/arm-none-eabi/include/c++/10.3.1/bits/stl_algo.h **** 	  return __last;
ARM GAS  /var/folders/th/s5djnwg15xxc0dk87c413f_h0000gn/T//ccCW3aXI.s 			page 105


1311:/Library/DaisyToolchain/0.2.0/arm/arm-none-eabi/include/c++/10.3.1/bits/stl_algo.h **** 	}
1312:/Library/DaisyToolchain/0.2.0/arm/arm-none-eabi/include/c++/10.3.1/bits/stl_algo.h ****       else
1313:/Library/DaisyToolchain/0.2.0/arm/arm-none-eabi/include/c++/10.3.1/bits/stl_algo.h **** 	{
1314:/Library/DaisyToolchain/0.2.0/arm/arm-none-eabi/include/c++/10.3.1/bits/stl_algo.h **** 	  std::__reverse(__first,  __middle, bidirectional_iterator_tag());
1315:/Library/DaisyToolchain/0.2.0/arm/arm-none-eabi/include/c++/10.3.1/bits/stl_algo.h **** 	  return __first;
1316:/Library/DaisyToolchain/0.2.0/arm/arm-none-eabi/include/c++/10.3.1/bits/stl_algo.h **** 	}
1317:/Library/DaisyToolchain/0.2.0/arm/arm-none-eabi/include/c++/10.3.1/bits/stl_algo.h ****     }
1318:/Library/DaisyToolchain/0.2.0/arm/arm-none-eabi/include/c++/10.3.1/bits/stl_algo.h **** 
1319:/Library/DaisyToolchain/0.2.0/arm/arm-none-eabi/include/c++/10.3.1/bits/stl_algo.h ****   /// This is a helper function for the rotate algorithm.
1320:/Library/DaisyToolchain/0.2.0/arm/arm-none-eabi/include/c++/10.3.1/bits/stl_algo.h ****   template<typename _RandomAccessIterator>
1321:/Library/DaisyToolchain/0.2.0/arm/arm-none-eabi/include/c++/10.3.1/bits/stl_algo.h ****     _GLIBCXX20_CONSTEXPR
1322:/Library/DaisyToolchain/0.2.0/arm/arm-none-eabi/include/c++/10.3.1/bits/stl_algo.h ****     _RandomAccessIterator
1323:/Library/DaisyToolchain/0.2.0/arm/arm-none-eabi/include/c++/10.3.1/bits/stl_algo.h ****     __rotate(_RandomAccessIterator __first,
1324:/Library/DaisyToolchain/0.2.0/arm/arm-none-eabi/include/c++/10.3.1/bits/stl_algo.h **** 	     _RandomAccessIterator __middle,
1325:/Library/DaisyToolchain/0.2.0/arm/arm-none-eabi/include/c++/10.3.1/bits/stl_algo.h **** 	     _RandomAccessIterator __last,
1326:/Library/DaisyToolchain/0.2.0/arm/arm-none-eabi/include/c++/10.3.1/bits/stl_algo.h **** 	     random_access_iterator_tag)
1327:/Library/DaisyToolchain/0.2.0/arm/arm-none-eabi/include/c++/10.3.1/bits/stl_algo.h ****     {
1328:/Library/DaisyToolchain/0.2.0/arm/arm-none-eabi/include/c++/10.3.1/bits/stl_algo.h ****       // concept requirements
1329:/Library/DaisyToolchain/0.2.0/arm/arm-none-eabi/include/c++/10.3.1/bits/stl_algo.h ****       __glibcxx_function_requires(_Mutable_RandomAccessIteratorConcept<
1330:/Library/DaisyToolchain/0.2.0/arm/arm-none-eabi/include/c++/10.3.1/bits/stl_algo.h **** 				  _RandomAccessIterator>)
1331:/Library/DaisyToolchain/0.2.0/arm/arm-none-eabi/include/c++/10.3.1/bits/stl_algo.h **** 
1332:/Library/DaisyToolchain/0.2.0/arm/arm-none-eabi/include/c++/10.3.1/bits/stl_algo.h ****       if (__first == __middle)
1333:/Library/DaisyToolchain/0.2.0/arm/arm-none-eabi/include/c++/10.3.1/bits/stl_algo.h **** 	return __last;
1334:/Library/DaisyToolchain/0.2.0/arm/arm-none-eabi/include/c++/10.3.1/bits/stl_algo.h ****       else if (__last == __middle)
1335:/Library/DaisyToolchain/0.2.0/arm/arm-none-eabi/include/c++/10.3.1/bits/stl_algo.h **** 	return __first;
1336:/Library/DaisyToolchain/0.2.0/arm/arm-none-eabi/include/c++/10.3.1/bits/stl_algo.h **** 
1337:/Library/DaisyToolchain/0.2.0/arm/arm-none-eabi/include/c++/10.3.1/bits/stl_algo.h ****       typedef typename iterator_traits<_RandomAccessIterator>::difference_type
1338:/Library/DaisyToolchain/0.2.0/arm/arm-none-eabi/include/c++/10.3.1/bits/stl_algo.h **** 	_Distance;
1339:/Library/DaisyToolchain/0.2.0/arm/arm-none-eabi/include/c++/10.3.1/bits/stl_algo.h ****       typedef typename iterator_traits<_RandomAccessIterator>::value_type
1340:/Library/DaisyToolchain/0.2.0/arm/arm-none-eabi/include/c++/10.3.1/bits/stl_algo.h **** 	_ValueType;
1341:/Library/DaisyToolchain/0.2.0/arm/arm-none-eabi/include/c++/10.3.1/bits/stl_algo.h **** 
1342:/Library/DaisyToolchain/0.2.0/arm/arm-none-eabi/include/c++/10.3.1/bits/stl_algo.h ****       _Distance __n = __last   - __first;
1343:/Library/DaisyToolchain/0.2.0/arm/arm-none-eabi/include/c++/10.3.1/bits/stl_algo.h ****       _Distance __k = __middle - __first;
1344:/Library/DaisyToolchain/0.2.0/arm/arm-none-eabi/include/c++/10.3.1/bits/stl_algo.h **** 
1345:/Library/DaisyToolchain/0.2.0/arm/arm-none-eabi/include/c++/10.3.1/bits/stl_algo.h ****       if (__k == __n - __k)
1346:/Library/DaisyToolchain/0.2.0/arm/arm-none-eabi/include/c++/10.3.1/bits/stl_algo.h **** 	{
1347:/Library/DaisyToolchain/0.2.0/arm/arm-none-eabi/include/c++/10.3.1/bits/stl_algo.h **** 	  std::swap_ranges(__first, __middle, __middle);
1348:/Library/DaisyToolchain/0.2.0/arm/arm-none-eabi/include/c++/10.3.1/bits/stl_algo.h **** 	  return __middle;
1349:/Library/DaisyToolchain/0.2.0/arm/arm-none-eabi/include/c++/10.3.1/bits/stl_algo.h **** 	}
1350:/Library/DaisyToolchain/0.2.0/arm/arm-none-eabi/include/c++/10.3.1/bits/stl_algo.h **** 
1351:/Library/DaisyToolchain/0.2.0/arm/arm-none-eabi/include/c++/10.3.1/bits/stl_algo.h ****       _RandomAccessIterator __p = __first;
1352:/Library/DaisyToolchain/0.2.0/arm/arm-none-eabi/include/c++/10.3.1/bits/stl_algo.h ****       _RandomAccessIterator __ret = __first + (__last - __middle);
1353:/Library/DaisyToolchain/0.2.0/arm/arm-none-eabi/include/c++/10.3.1/bits/stl_algo.h **** 
1354:/Library/DaisyToolchain/0.2.0/arm/arm-none-eabi/include/c++/10.3.1/bits/stl_algo.h ****       for (;;)
1355:/Library/DaisyToolchain/0.2.0/arm/arm-none-eabi/include/c++/10.3.1/bits/stl_algo.h **** 	{
1356:/Library/DaisyToolchain/0.2.0/arm/arm-none-eabi/include/c++/10.3.1/bits/stl_algo.h **** 	  if (__k < __n - __k)
1357:/Library/DaisyToolchain/0.2.0/arm/arm-none-eabi/include/c++/10.3.1/bits/stl_algo.h **** 	    {
1358:/Library/DaisyToolchain/0.2.0/arm/arm-none-eabi/include/c++/10.3.1/bits/stl_algo.h **** 	      if (__is_pod(_ValueType) && __k == 1)
1359:/Library/DaisyToolchain/0.2.0/arm/arm-none-eabi/include/c++/10.3.1/bits/stl_algo.h **** 		{
1360:/Library/DaisyToolchain/0.2.0/arm/arm-none-eabi/include/c++/10.3.1/bits/stl_algo.h **** 		  _ValueType __t = _GLIBCXX_MOVE(*__p);
1361:/Library/DaisyToolchain/0.2.0/arm/arm-none-eabi/include/c++/10.3.1/bits/stl_algo.h **** 		  _GLIBCXX_MOVE3(__p + 1, __p + __n, __p);
1362:/Library/DaisyToolchain/0.2.0/arm/arm-none-eabi/include/c++/10.3.1/bits/stl_algo.h **** 		  *(__p + __n - 1) = _GLIBCXX_MOVE(__t);
1363:/Library/DaisyToolchain/0.2.0/arm/arm-none-eabi/include/c++/10.3.1/bits/stl_algo.h **** 		  return __ret;
1364:/Library/DaisyToolchain/0.2.0/arm/arm-none-eabi/include/c++/10.3.1/bits/stl_algo.h **** 		}
1365:/Library/DaisyToolchain/0.2.0/arm/arm-none-eabi/include/c++/10.3.1/bits/stl_algo.h **** 	      _RandomAccessIterator __q = __p + __k;
1366:/Library/DaisyToolchain/0.2.0/arm/arm-none-eabi/include/c++/10.3.1/bits/stl_algo.h **** 	      for (_Distance __i = 0; __i < __n - __k; ++ __i)
1367:/Library/DaisyToolchain/0.2.0/arm/arm-none-eabi/include/c++/10.3.1/bits/stl_algo.h **** 		{
ARM GAS  /var/folders/th/s5djnwg15xxc0dk87c413f_h0000gn/T//ccCW3aXI.s 			page 106


1368:/Library/DaisyToolchain/0.2.0/arm/arm-none-eabi/include/c++/10.3.1/bits/stl_algo.h **** 		  std::iter_swap(__p, __q);
1369:/Library/DaisyToolchain/0.2.0/arm/arm-none-eabi/include/c++/10.3.1/bits/stl_algo.h **** 		  ++__p;
1370:/Library/DaisyToolchain/0.2.0/arm/arm-none-eabi/include/c++/10.3.1/bits/stl_algo.h **** 		  ++__q;
1371:/Library/DaisyToolchain/0.2.0/arm/arm-none-eabi/include/c++/10.3.1/bits/stl_algo.h **** 		}
1372:/Library/DaisyToolchain/0.2.0/arm/arm-none-eabi/include/c++/10.3.1/bits/stl_algo.h **** 	      __n %= __k;
1373:/Library/DaisyToolchain/0.2.0/arm/arm-none-eabi/include/c++/10.3.1/bits/stl_algo.h **** 	      if (__n == 0)
1374:/Library/DaisyToolchain/0.2.0/arm/arm-none-eabi/include/c++/10.3.1/bits/stl_algo.h **** 		return __ret;
1375:/Library/DaisyToolchain/0.2.0/arm/arm-none-eabi/include/c++/10.3.1/bits/stl_algo.h **** 	      std::swap(__n, __k);
1376:/Library/DaisyToolchain/0.2.0/arm/arm-none-eabi/include/c++/10.3.1/bits/stl_algo.h **** 	      __k = __n - __k;
1377:/Library/DaisyToolchain/0.2.0/arm/arm-none-eabi/include/c++/10.3.1/bits/stl_algo.h **** 	    }
1378:/Library/DaisyToolchain/0.2.0/arm/arm-none-eabi/include/c++/10.3.1/bits/stl_algo.h **** 	  else
1379:/Library/DaisyToolchain/0.2.0/arm/arm-none-eabi/include/c++/10.3.1/bits/stl_algo.h **** 	    {
1380:/Library/DaisyToolchain/0.2.0/arm/arm-none-eabi/include/c++/10.3.1/bits/stl_algo.h **** 	      __k = __n - __k;
1381:/Library/DaisyToolchain/0.2.0/arm/arm-none-eabi/include/c++/10.3.1/bits/stl_algo.h **** 	      if (__is_pod(_ValueType) && __k == 1)
1382:/Library/DaisyToolchain/0.2.0/arm/arm-none-eabi/include/c++/10.3.1/bits/stl_algo.h **** 		{
1383:/Library/DaisyToolchain/0.2.0/arm/arm-none-eabi/include/c++/10.3.1/bits/stl_algo.h **** 		  _ValueType __t = _GLIBCXX_MOVE(*(__p + __n - 1));
1384:/Library/DaisyToolchain/0.2.0/arm/arm-none-eabi/include/c++/10.3.1/bits/stl_algo.h **** 		  _GLIBCXX_MOVE_BACKWARD3(__p, __p + __n - 1, __p + __n);
1385:/Library/DaisyToolchain/0.2.0/arm/arm-none-eabi/include/c++/10.3.1/bits/stl_algo.h **** 		  *__p = _GLIBCXX_MOVE(__t);
1386:/Library/DaisyToolchain/0.2.0/arm/arm-none-eabi/include/c++/10.3.1/bits/stl_algo.h **** 		  return __ret;
1387:/Library/DaisyToolchain/0.2.0/arm/arm-none-eabi/include/c++/10.3.1/bits/stl_algo.h **** 		}
1388:/Library/DaisyToolchain/0.2.0/arm/arm-none-eabi/include/c++/10.3.1/bits/stl_algo.h **** 	      _RandomAccessIterator __q = __p + __n;
1389:/Library/DaisyToolchain/0.2.0/arm/arm-none-eabi/include/c++/10.3.1/bits/stl_algo.h **** 	      __p = __q - __k;
1390:/Library/DaisyToolchain/0.2.0/arm/arm-none-eabi/include/c++/10.3.1/bits/stl_algo.h **** 	      for (_Distance __i = 0; __i < __n - __k; ++ __i)
1391:/Library/DaisyToolchain/0.2.0/arm/arm-none-eabi/include/c++/10.3.1/bits/stl_algo.h **** 		{
1392:/Library/DaisyToolchain/0.2.0/arm/arm-none-eabi/include/c++/10.3.1/bits/stl_algo.h **** 		  --__p;
1393:/Library/DaisyToolchain/0.2.0/arm/arm-none-eabi/include/c++/10.3.1/bits/stl_algo.h **** 		  --__q;
1394:/Library/DaisyToolchain/0.2.0/arm/arm-none-eabi/include/c++/10.3.1/bits/stl_algo.h **** 		  std::iter_swap(__p, __q);
1395:/Library/DaisyToolchain/0.2.0/arm/arm-none-eabi/include/c++/10.3.1/bits/stl_algo.h **** 		}
1396:/Library/DaisyToolchain/0.2.0/arm/arm-none-eabi/include/c++/10.3.1/bits/stl_algo.h **** 	      __n %= __k;
1397:/Library/DaisyToolchain/0.2.0/arm/arm-none-eabi/include/c++/10.3.1/bits/stl_algo.h **** 	      if (__n == 0)
1398:/Library/DaisyToolchain/0.2.0/arm/arm-none-eabi/include/c++/10.3.1/bits/stl_algo.h **** 		return __ret;
1399:/Library/DaisyToolchain/0.2.0/arm/arm-none-eabi/include/c++/10.3.1/bits/stl_algo.h **** 	      std::swap(__n, __k);
1400:/Library/DaisyToolchain/0.2.0/arm/arm-none-eabi/include/c++/10.3.1/bits/stl_algo.h **** 	    }
1401:/Library/DaisyToolchain/0.2.0/arm/arm-none-eabi/include/c++/10.3.1/bits/stl_algo.h **** 	}
1402:/Library/DaisyToolchain/0.2.0/arm/arm-none-eabi/include/c++/10.3.1/bits/stl_algo.h ****     }
1403:/Library/DaisyToolchain/0.2.0/arm/arm-none-eabi/include/c++/10.3.1/bits/stl_algo.h **** 
1404:/Library/DaisyToolchain/0.2.0/arm/arm-none-eabi/include/c++/10.3.1/bits/stl_algo.h ****    // _GLIBCXX_RESOLVE_LIB_DEFECTS
1405:/Library/DaisyToolchain/0.2.0/arm/arm-none-eabi/include/c++/10.3.1/bits/stl_algo.h ****    // DR 488. rotate throws away useful information
1406:/Library/DaisyToolchain/0.2.0/arm/arm-none-eabi/include/c++/10.3.1/bits/stl_algo.h ****   /**
1407:/Library/DaisyToolchain/0.2.0/arm/arm-none-eabi/include/c++/10.3.1/bits/stl_algo.h ****    *  @brief Rotate the elements of a sequence.
1408:/Library/DaisyToolchain/0.2.0/arm/arm-none-eabi/include/c++/10.3.1/bits/stl_algo.h ****    *  @ingroup mutating_algorithms
1409:/Library/DaisyToolchain/0.2.0/arm/arm-none-eabi/include/c++/10.3.1/bits/stl_algo.h ****    *  @param  __first   A forward iterator.
1410:/Library/DaisyToolchain/0.2.0/arm/arm-none-eabi/include/c++/10.3.1/bits/stl_algo.h ****    *  @param  __middle  A forward iterator.
1411:/Library/DaisyToolchain/0.2.0/arm/arm-none-eabi/include/c++/10.3.1/bits/stl_algo.h ****    *  @param  __last    A forward iterator.
1412:/Library/DaisyToolchain/0.2.0/arm/arm-none-eabi/include/c++/10.3.1/bits/stl_algo.h ****    *  @return  first + (last - middle).
1413:/Library/DaisyToolchain/0.2.0/arm/arm-none-eabi/include/c++/10.3.1/bits/stl_algo.h ****    *
1414:/Library/DaisyToolchain/0.2.0/arm/arm-none-eabi/include/c++/10.3.1/bits/stl_algo.h ****    *  Rotates the elements of the range @p [__first,__last) by 
1415:/Library/DaisyToolchain/0.2.0/arm/arm-none-eabi/include/c++/10.3.1/bits/stl_algo.h ****    *  @p (__middle - __first) positions so that the element at @p __middle
1416:/Library/DaisyToolchain/0.2.0/arm/arm-none-eabi/include/c++/10.3.1/bits/stl_algo.h ****    *  is moved to @p __first, the element at @p __middle+1 is moved to
1417:/Library/DaisyToolchain/0.2.0/arm/arm-none-eabi/include/c++/10.3.1/bits/stl_algo.h ****    *  @p __first+1 and so on for each element in the range
1418:/Library/DaisyToolchain/0.2.0/arm/arm-none-eabi/include/c++/10.3.1/bits/stl_algo.h ****    *  @p [__first,__last).
1419:/Library/DaisyToolchain/0.2.0/arm/arm-none-eabi/include/c++/10.3.1/bits/stl_algo.h ****    *
1420:/Library/DaisyToolchain/0.2.0/arm/arm-none-eabi/include/c++/10.3.1/bits/stl_algo.h ****    *  This effectively swaps the ranges @p [__first,__middle) and
1421:/Library/DaisyToolchain/0.2.0/arm/arm-none-eabi/include/c++/10.3.1/bits/stl_algo.h ****    *  @p [__middle,__last).
1422:/Library/DaisyToolchain/0.2.0/arm/arm-none-eabi/include/c++/10.3.1/bits/stl_algo.h ****    *
1423:/Library/DaisyToolchain/0.2.0/arm/arm-none-eabi/include/c++/10.3.1/bits/stl_algo.h ****    *  Performs
1424:/Library/DaisyToolchain/0.2.0/arm/arm-none-eabi/include/c++/10.3.1/bits/stl_algo.h ****    *   @p *(__first+(n+(__last-__middle))%(__last-__first))=*(__first+n)
ARM GAS  /var/folders/th/s5djnwg15xxc0dk87c413f_h0000gn/T//ccCW3aXI.s 			page 107


1425:/Library/DaisyToolchain/0.2.0/arm/arm-none-eabi/include/c++/10.3.1/bits/stl_algo.h ****    *  for each @p n in the range @p [0,__last-__first).
1426:/Library/DaisyToolchain/0.2.0/arm/arm-none-eabi/include/c++/10.3.1/bits/stl_algo.h ****   */
1427:/Library/DaisyToolchain/0.2.0/arm/arm-none-eabi/include/c++/10.3.1/bits/stl_algo.h ****   template<typename _ForwardIterator>
1428:/Library/DaisyToolchain/0.2.0/arm/arm-none-eabi/include/c++/10.3.1/bits/stl_algo.h ****     _GLIBCXX20_CONSTEXPR
1429:/Library/DaisyToolchain/0.2.0/arm/arm-none-eabi/include/c++/10.3.1/bits/stl_algo.h ****     inline _ForwardIterator
1430:/Library/DaisyToolchain/0.2.0/arm/arm-none-eabi/include/c++/10.3.1/bits/stl_algo.h ****     rotate(_ForwardIterator __first, _ForwardIterator __middle,
1431:/Library/DaisyToolchain/0.2.0/arm/arm-none-eabi/include/c++/10.3.1/bits/stl_algo.h **** 	   _ForwardIterator __last)
1432:/Library/DaisyToolchain/0.2.0/arm/arm-none-eabi/include/c++/10.3.1/bits/stl_algo.h ****     {
1433:/Library/DaisyToolchain/0.2.0/arm/arm-none-eabi/include/c++/10.3.1/bits/stl_algo.h ****       // concept requirements
1434:/Library/DaisyToolchain/0.2.0/arm/arm-none-eabi/include/c++/10.3.1/bits/stl_algo.h ****       __glibcxx_function_requires(_Mutable_ForwardIteratorConcept<
1435:/Library/DaisyToolchain/0.2.0/arm/arm-none-eabi/include/c++/10.3.1/bits/stl_algo.h **** 				  _ForwardIterator>)
1436:/Library/DaisyToolchain/0.2.0/arm/arm-none-eabi/include/c++/10.3.1/bits/stl_algo.h ****       __glibcxx_requires_valid_range(__first, __middle);
1437:/Library/DaisyToolchain/0.2.0/arm/arm-none-eabi/include/c++/10.3.1/bits/stl_algo.h ****       __glibcxx_requires_valid_range(__middle, __last);
1438:/Library/DaisyToolchain/0.2.0/arm/arm-none-eabi/include/c++/10.3.1/bits/stl_algo.h **** 
1439:/Library/DaisyToolchain/0.2.0/arm/arm-none-eabi/include/c++/10.3.1/bits/stl_algo.h ****       return std::__rotate(__first, __middle, __last,
1440:/Library/DaisyToolchain/0.2.0/arm/arm-none-eabi/include/c++/10.3.1/bits/stl_algo.h **** 			   std::__iterator_category(__first));
1441:/Library/DaisyToolchain/0.2.0/arm/arm-none-eabi/include/c++/10.3.1/bits/stl_algo.h ****     }
1442:/Library/DaisyToolchain/0.2.0/arm/arm-none-eabi/include/c++/10.3.1/bits/stl_algo.h **** 
1443:/Library/DaisyToolchain/0.2.0/arm/arm-none-eabi/include/c++/10.3.1/bits/stl_algo.h ****   } // namespace _V2
1444:/Library/DaisyToolchain/0.2.0/arm/arm-none-eabi/include/c++/10.3.1/bits/stl_algo.h **** 
1445:/Library/DaisyToolchain/0.2.0/arm/arm-none-eabi/include/c++/10.3.1/bits/stl_algo.h ****   /**
1446:/Library/DaisyToolchain/0.2.0/arm/arm-none-eabi/include/c++/10.3.1/bits/stl_algo.h ****    *  @brief Copy a sequence, rotating its elements.
1447:/Library/DaisyToolchain/0.2.0/arm/arm-none-eabi/include/c++/10.3.1/bits/stl_algo.h ****    *  @ingroup mutating_algorithms
1448:/Library/DaisyToolchain/0.2.0/arm/arm-none-eabi/include/c++/10.3.1/bits/stl_algo.h ****    *  @param  __first   A forward iterator.
1449:/Library/DaisyToolchain/0.2.0/arm/arm-none-eabi/include/c++/10.3.1/bits/stl_algo.h ****    *  @param  __middle  A forward iterator.
1450:/Library/DaisyToolchain/0.2.0/arm/arm-none-eabi/include/c++/10.3.1/bits/stl_algo.h ****    *  @param  __last    A forward iterator.
1451:/Library/DaisyToolchain/0.2.0/arm/arm-none-eabi/include/c++/10.3.1/bits/stl_algo.h ****    *  @param  __result  An output iterator.
1452:/Library/DaisyToolchain/0.2.0/arm/arm-none-eabi/include/c++/10.3.1/bits/stl_algo.h ****    *  @return   An iterator designating the end of the resulting sequence.
1453:/Library/DaisyToolchain/0.2.0/arm/arm-none-eabi/include/c++/10.3.1/bits/stl_algo.h ****    *
1454:/Library/DaisyToolchain/0.2.0/arm/arm-none-eabi/include/c++/10.3.1/bits/stl_algo.h ****    *  Copies the elements of the range @p [__first,__last) to the
1455:/Library/DaisyToolchain/0.2.0/arm/arm-none-eabi/include/c++/10.3.1/bits/stl_algo.h ****    *  range beginning at @result, rotating the copied elements by 
1456:/Library/DaisyToolchain/0.2.0/arm/arm-none-eabi/include/c++/10.3.1/bits/stl_algo.h ****    *  @p (__middle-__first) positions so that the element at @p __middle
1457:/Library/DaisyToolchain/0.2.0/arm/arm-none-eabi/include/c++/10.3.1/bits/stl_algo.h ****    *  is moved to @p __result, the element at @p __middle+1 is moved
1458:/Library/DaisyToolchain/0.2.0/arm/arm-none-eabi/include/c++/10.3.1/bits/stl_algo.h ****    *  to @p __result+1 and so on for each element in the range @p
1459:/Library/DaisyToolchain/0.2.0/arm/arm-none-eabi/include/c++/10.3.1/bits/stl_algo.h ****    *  [__first,__last).
1460:/Library/DaisyToolchain/0.2.0/arm/arm-none-eabi/include/c++/10.3.1/bits/stl_algo.h ****    *
1461:/Library/DaisyToolchain/0.2.0/arm/arm-none-eabi/include/c++/10.3.1/bits/stl_algo.h ****    *  Performs 
1462:/Library/DaisyToolchain/0.2.0/arm/arm-none-eabi/include/c++/10.3.1/bits/stl_algo.h ****    *  @p *(__result+(n+(__last-__middle))%(__last-__first))=*(__first+n)
1463:/Library/DaisyToolchain/0.2.0/arm/arm-none-eabi/include/c++/10.3.1/bits/stl_algo.h ****    *  for each @p n in the range @p [0,__last-__first).
1464:/Library/DaisyToolchain/0.2.0/arm/arm-none-eabi/include/c++/10.3.1/bits/stl_algo.h ****   */
1465:/Library/DaisyToolchain/0.2.0/arm/arm-none-eabi/include/c++/10.3.1/bits/stl_algo.h ****   template<typename _ForwardIterator, typename _OutputIterator>
1466:/Library/DaisyToolchain/0.2.0/arm/arm-none-eabi/include/c++/10.3.1/bits/stl_algo.h ****     _GLIBCXX20_CONSTEXPR
1467:/Library/DaisyToolchain/0.2.0/arm/arm-none-eabi/include/c++/10.3.1/bits/stl_algo.h ****     inline _OutputIterator
1468:/Library/DaisyToolchain/0.2.0/arm/arm-none-eabi/include/c++/10.3.1/bits/stl_algo.h ****     rotate_copy(_ForwardIterator __first, _ForwardIterator __middle,
1469:/Library/DaisyToolchain/0.2.0/arm/arm-none-eabi/include/c++/10.3.1/bits/stl_algo.h **** 		_ForwardIterator __last, _OutputIterator __result)
1470:/Library/DaisyToolchain/0.2.0/arm/arm-none-eabi/include/c++/10.3.1/bits/stl_algo.h ****     {
1471:/Library/DaisyToolchain/0.2.0/arm/arm-none-eabi/include/c++/10.3.1/bits/stl_algo.h ****       // concept requirements
1472:/Library/DaisyToolchain/0.2.0/arm/arm-none-eabi/include/c++/10.3.1/bits/stl_algo.h ****       __glibcxx_function_requires(_ForwardIteratorConcept<_ForwardIterator>)
1473:/Library/DaisyToolchain/0.2.0/arm/arm-none-eabi/include/c++/10.3.1/bits/stl_algo.h ****       __glibcxx_function_requires(_OutputIteratorConcept<_OutputIterator,
1474:/Library/DaisyToolchain/0.2.0/arm/arm-none-eabi/include/c++/10.3.1/bits/stl_algo.h **** 		typename iterator_traits<_ForwardIterator>::value_type>)
1475:/Library/DaisyToolchain/0.2.0/arm/arm-none-eabi/include/c++/10.3.1/bits/stl_algo.h ****       __glibcxx_requires_valid_range(__first, __middle);
1476:/Library/DaisyToolchain/0.2.0/arm/arm-none-eabi/include/c++/10.3.1/bits/stl_algo.h ****       __glibcxx_requires_valid_range(__middle, __last);
1477:/Library/DaisyToolchain/0.2.0/arm/arm-none-eabi/include/c++/10.3.1/bits/stl_algo.h **** 
1478:/Library/DaisyToolchain/0.2.0/arm/arm-none-eabi/include/c++/10.3.1/bits/stl_algo.h ****       return std::copy(__first, __middle,
1479:/Library/DaisyToolchain/0.2.0/arm/arm-none-eabi/include/c++/10.3.1/bits/stl_algo.h **** 		       std::copy(__middle, __last, __result));
1480:/Library/DaisyToolchain/0.2.0/arm/arm-none-eabi/include/c++/10.3.1/bits/stl_algo.h ****     }
1481:/Library/DaisyToolchain/0.2.0/arm/arm-none-eabi/include/c++/10.3.1/bits/stl_algo.h **** 
ARM GAS  /var/folders/th/s5djnwg15xxc0dk87c413f_h0000gn/T//ccCW3aXI.s 			page 108


1482:/Library/DaisyToolchain/0.2.0/arm/arm-none-eabi/include/c++/10.3.1/bits/stl_algo.h ****   /// This is a helper function...
1483:/Library/DaisyToolchain/0.2.0/arm/arm-none-eabi/include/c++/10.3.1/bits/stl_algo.h ****   template<typename _ForwardIterator, typename _Predicate>
1484:/Library/DaisyToolchain/0.2.0/arm/arm-none-eabi/include/c++/10.3.1/bits/stl_algo.h ****     _GLIBCXX20_CONSTEXPR
1485:/Library/DaisyToolchain/0.2.0/arm/arm-none-eabi/include/c++/10.3.1/bits/stl_algo.h ****     _ForwardIterator
1486:/Library/DaisyToolchain/0.2.0/arm/arm-none-eabi/include/c++/10.3.1/bits/stl_algo.h ****     __partition(_ForwardIterator __first, _ForwardIterator __last,
1487:/Library/DaisyToolchain/0.2.0/arm/arm-none-eabi/include/c++/10.3.1/bits/stl_algo.h **** 		_Predicate __pred, forward_iterator_tag)
1488:/Library/DaisyToolchain/0.2.0/arm/arm-none-eabi/include/c++/10.3.1/bits/stl_algo.h ****     {
1489:/Library/DaisyToolchain/0.2.0/arm/arm-none-eabi/include/c++/10.3.1/bits/stl_algo.h ****       if (__first == __last)
1490:/Library/DaisyToolchain/0.2.0/arm/arm-none-eabi/include/c++/10.3.1/bits/stl_algo.h **** 	return __first;
1491:/Library/DaisyToolchain/0.2.0/arm/arm-none-eabi/include/c++/10.3.1/bits/stl_algo.h **** 
1492:/Library/DaisyToolchain/0.2.0/arm/arm-none-eabi/include/c++/10.3.1/bits/stl_algo.h ****       while (__pred(*__first))
1493:/Library/DaisyToolchain/0.2.0/arm/arm-none-eabi/include/c++/10.3.1/bits/stl_algo.h **** 	if (++__first == __last)
1494:/Library/DaisyToolchain/0.2.0/arm/arm-none-eabi/include/c++/10.3.1/bits/stl_algo.h **** 	  return __first;
1495:/Library/DaisyToolchain/0.2.0/arm/arm-none-eabi/include/c++/10.3.1/bits/stl_algo.h **** 
1496:/Library/DaisyToolchain/0.2.0/arm/arm-none-eabi/include/c++/10.3.1/bits/stl_algo.h ****       _ForwardIterator __next = __first;
1497:/Library/DaisyToolchain/0.2.0/arm/arm-none-eabi/include/c++/10.3.1/bits/stl_algo.h **** 
1498:/Library/DaisyToolchain/0.2.0/arm/arm-none-eabi/include/c++/10.3.1/bits/stl_algo.h ****       while (++__next != __last)
1499:/Library/DaisyToolchain/0.2.0/arm/arm-none-eabi/include/c++/10.3.1/bits/stl_algo.h **** 	if (__pred(*__next))
1500:/Library/DaisyToolchain/0.2.0/arm/arm-none-eabi/include/c++/10.3.1/bits/stl_algo.h **** 	  {
1501:/Library/DaisyToolchain/0.2.0/arm/arm-none-eabi/include/c++/10.3.1/bits/stl_algo.h **** 	    std::iter_swap(__first, __next);
1502:/Library/DaisyToolchain/0.2.0/arm/arm-none-eabi/include/c++/10.3.1/bits/stl_algo.h **** 	    ++__first;
1503:/Library/DaisyToolchain/0.2.0/arm/arm-none-eabi/include/c++/10.3.1/bits/stl_algo.h **** 	  }
1504:/Library/DaisyToolchain/0.2.0/arm/arm-none-eabi/include/c++/10.3.1/bits/stl_algo.h **** 
1505:/Library/DaisyToolchain/0.2.0/arm/arm-none-eabi/include/c++/10.3.1/bits/stl_algo.h ****       return __first;
1506:/Library/DaisyToolchain/0.2.0/arm/arm-none-eabi/include/c++/10.3.1/bits/stl_algo.h ****     }
1507:/Library/DaisyToolchain/0.2.0/arm/arm-none-eabi/include/c++/10.3.1/bits/stl_algo.h **** 
1508:/Library/DaisyToolchain/0.2.0/arm/arm-none-eabi/include/c++/10.3.1/bits/stl_algo.h ****   /// This is a helper function...
1509:/Library/DaisyToolchain/0.2.0/arm/arm-none-eabi/include/c++/10.3.1/bits/stl_algo.h ****   template<typename _BidirectionalIterator, typename _Predicate>
1510:/Library/DaisyToolchain/0.2.0/arm/arm-none-eabi/include/c++/10.3.1/bits/stl_algo.h ****     _GLIBCXX20_CONSTEXPR
1511:/Library/DaisyToolchain/0.2.0/arm/arm-none-eabi/include/c++/10.3.1/bits/stl_algo.h ****     _BidirectionalIterator
1512:/Library/DaisyToolchain/0.2.0/arm/arm-none-eabi/include/c++/10.3.1/bits/stl_algo.h ****     __partition(_BidirectionalIterator __first, _BidirectionalIterator __last,
1513:/Library/DaisyToolchain/0.2.0/arm/arm-none-eabi/include/c++/10.3.1/bits/stl_algo.h **** 		_Predicate __pred, bidirectional_iterator_tag)
1514:/Library/DaisyToolchain/0.2.0/arm/arm-none-eabi/include/c++/10.3.1/bits/stl_algo.h ****     {
1515:/Library/DaisyToolchain/0.2.0/arm/arm-none-eabi/include/c++/10.3.1/bits/stl_algo.h ****       while (true)
1516:/Library/DaisyToolchain/0.2.0/arm/arm-none-eabi/include/c++/10.3.1/bits/stl_algo.h **** 	{
1517:/Library/DaisyToolchain/0.2.0/arm/arm-none-eabi/include/c++/10.3.1/bits/stl_algo.h **** 	  while (true)
1518:/Library/DaisyToolchain/0.2.0/arm/arm-none-eabi/include/c++/10.3.1/bits/stl_algo.h **** 	    if (__first == __last)
1519:/Library/DaisyToolchain/0.2.0/arm/arm-none-eabi/include/c++/10.3.1/bits/stl_algo.h **** 	      return __first;
1520:/Library/DaisyToolchain/0.2.0/arm/arm-none-eabi/include/c++/10.3.1/bits/stl_algo.h **** 	    else if (__pred(*__first))
1521:/Library/DaisyToolchain/0.2.0/arm/arm-none-eabi/include/c++/10.3.1/bits/stl_algo.h **** 	      ++__first;
1522:/Library/DaisyToolchain/0.2.0/arm/arm-none-eabi/include/c++/10.3.1/bits/stl_algo.h **** 	    else
1523:/Library/DaisyToolchain/0.2.0/arm/arm-none-eabi/include/c++/10.3.1/bits/stl_algo.h **** 	      break;
1524:/Library/DaisyToolchain/0.2.0/arm/arm-none-eabi/include/c++/10.3.1/bits/stl_algo.h **** 	  --__last;
1525:/Library/DaisyToolchain/0.2.0/arm/arm-none-eabi/include/c++/10.3.1/bits/stl_algo.h **** 	  while (true)
1526:/Library/DaisyToolchain/0.2.0/arm/arm-none-eabi/include/c++/10.3.1/bits/stl_algo.h **** 	    if (__first == __last)
1527:/Library/DaisyToolchain/0.2.0/arm/arm-none-eabi/include/c++/10.3.1/bits/stl_algo.h **** 	      return __first;
1528:/Library/DaisyToolchain/0.2.0/arm/arm-none-eabi/include/c++/10.3.1/bits/stl_algo.h **** 	    else if (!bool(__pred(*__last)))
1529:/Library/DaisyToolchain/0.2.0/arm/arm-none-eabi/include/c++/10.3.1/bits/stl_algo.h **** 	      --__last;
1530:/Library/DaisyToolchain/0.2.0/arm/arm-none-eabi/include/c++/10.3.1/bits/stl_algo.h **** 	    else
1531:/Library/DaisyToolchain/0.2.0/arm/arm-none-eabi/include/c++/10.3.1/bits/stl_algo.h **** 	      break;
1532:/Library/DaisyToolchain/0.2.0/arm/arm-none-eabi/include/c++/10.3.1/bits/stl_algo.h **** 	  std::iter_swap(__first, __last);
1533:/Library/DaisyToolchain/0.2.0/arm/arm-none-eabi/include/c++/10.3.1/bits/stl_algo.h **** 	  ++__first;
1534:/Library/DaisyToolchain/0.2.0/arm/arm-none-eabi/include/c++/10.3.1/bits/stl_algo.h **** 	}
1535:/Library/DaisyToolchain/0.2.0/arm/arm-none-eabi/include/c++/10.3.1/bits/stl_algo.h ****     }
1536:/Library/DaisyToolchain/0.2.0/arm/arm-none-eabi/include/c++/10.3.1/bits/stl_algo.h **** 
1537:/Library/DaisyToolchain/0.2.0/arm/arm-none-eabi/include/c++/10.3.1/bits/stl_algo.h ****   // partition
1538:/Library/DaisyToolchain/0.2.0/arm/arm-none-eabi/include/c++/10.3.1/bits/stl_algo.h **** 
ARM GAS  /var/folders/th/s5djnwg15xxc0dk87c413f_h0000gn/T//ccCW3aXI.s 			page 109


1539:/Library/DaisyToolchain/0.2.0/arm/arm-none-eabi/include/c++/10.3.1/bits/stl_algo.h ****   /// This is a helper function...
1540:/Library/DaisyToolchain/0.2.0/arm/arm-none-eabi/include/c++/10.3.1/bits/stl_algo.h ****   /// Requires __first != __last and !__pred(__first)
1541:/Library/DaisyToolchain/0.2.0/arm/arm-none-eabi/include/c++/10.3.1/bits/stl_algo.h ****   /// and __len == distance(__first, __last).
1542:/Library/DaisyToolchain/0.2.0/arm/arm-none-eabi/include/c++/10.3.1/bits/stl_algo.h ****   ///
1543:/Library/DaisyToolchain/0.2.0/arm/arm-none-eabi/include/c++/10.3.1/bits/stl_algo.h ****   /// !__pred(__first) allows us to guarantee that we don't
1544:/Library/DaisyToolchain/0.2.0/arm/arm-none-eabi/include/c++/10.3.1/bits/stl_algo.h ****   /// move-assign an element onto itself.
1545:/Library/DaisyToolchain/0.2.0/arm/arm-none-eabi/include/c++/10.3.1/bits/stl_algo.h ****   template<typename _ForwardIterator, typename _Pointer, typename _Predicate,
1546:/Library/DaisyToolchain/0.2.0/arm/arm-none-eabi/include/c++/10.3.1/bits/stl_algo.h **** 	   typename _Distance>
1547:/Library/DaisyToolchain/0.2.0/arm/arm-none-eabi/include/c++/10.3.1/bits/stl_algo.h ****     _ForwardIterator
1548:/Library/DaisyToolchain/0.2.0/arm/arm-none-eabi/include/c++/10.3.1/bits/stl_algo.h ****     __stable_partition_adaptive(_ForwardIterator __first,
1549:/Library/DaisyToolchain/0.2.0/arm/arm-none-eabi/include/c++/10.3.1/bits/stl_algo.h **** 				_ForwardIterator __last,
1550:/Library/DaisyToolchain/0.2.0/arm/arm-none-eabi/include/c++/10.3.1/bits/stl_algo.h **** 				_Predicate __pred, _Distance __len,
1551:/Library/DaisyToolchain/0.2.0/arm/arm-none-eabi/include/c++/10.3.1/bits/stl_algo.h **** 				_Pointer __buffer,
1552:/Library/DaisyToolchain/0.2.0/arm/arm-none-eabi/include/c++/10.3.1/bits/stl_algo.h **** 				_Distance __buffer_size)
1553:/Library/DaisyToolchain/0.2.0/arm/arm-none-eabi/include/c++/10.3.1/bits/stl_algo.h ****     {
1554:/Library/DaisyToolchain/0.2.0/arm/arm-none-eabi/include/c++/10.3.1/bits/stl_algo.h ****       if (__len == 1)
1555:/Library/DaisyToolchain/0.2.0/arm/arm-none-eabi/include/c++/10.3.1/bits/stl_algo.h **** 	return __first;
1556:/Library/DaisyToolchain/0.2.0/arm/arm-none-eabi/include/c++/10.3.1/bits/stl_algo.h **** 
1557:/Library/DaisyToolchain/0.2.0/arm/arm-none-eabi/include/c++/10.3.1/bits/stl_algo.h ****       if (__len <= __buffer_size)
1558:/Library/DaisyToolchain/0.2.0/arm/arm-none-eabi/include/c++/10.3.1/bits/stl_algo.h **** 	{
1559:/Library/DaisyToolchain/0.2.0/arm/arm-none-eabi/include/c++/10.3.1/bits/stl_algo.h **** 	  _ForwardIterator __result1 = __first;
1560:/Library/DaisyToolchain/0.2.0/arm/arm-none-eabi/include/c++/10.3.1/bits/stl_algo.h **** 	  _Pointer __result2 = __buffer;
1561:/Library/DaisyToolchain/0.2.0/arm/arm-none-eabi/include/c++/10.3.1/bits/stl_algo.h **** 
1562:/Library/DaisyToolchain/0.2.0/arm/arm-none-eabi/include/c++/10.3.1/bits/stl_algo.h **** 	  // The precondition guarantees that !__pred(__first), so
1563:/Library/DaisyToolchain/0.2.0/arm/arm-none-eabi/include/c++/10.3.1/bits/stl_algo.h **** 	  // move that element to the buffer before starting the loop.
1564:/Library/DaisyToolchain/0.2.0/arm/arm-none-eabi/include/c++/10.3.1/bits/stl_algo.h **** 	  // This ensures that we only call __pred once per element.
1565:/Library/DaisyToolchain/0.2.0/arm/arm-none-eabi/include/c++/10.3.1/bits/stl_algo.h **** 	  *__result2 = _GLIBCXX_MOVE(*__first);
1566:/Library/DaisyToolchain/0.2.0/arm/arm-none-eabi/include/c++/10.3.1/bits/stl_algo.h **** 	  ++__result2;
1567:/Library/DaisyToolchain/0.2.0/arm/arm-none-eabi/include/c++/10.3.1/bits/stl_algo.h **** 	  ++__first;
1568:/Library/DaisyToolchain/0.2.0/arm/arm-none-eabi/include/c++/10.3.1/bits/stl_algo.h **** 	  for (; __first != __last; ++__first)
1569:/Library/DaisyToolchain/0.2.0/arm/arm-none-eabi/include/c++/10.3.1/bits/stl_algo.h **** 	    if (__pred(__first))
1570:/Library/DaisyToolchain/0.2.0/arm/arm-none-eabi/include/c++/10.3.1/bits/stl_algo.h **** 	      {
1571:/Library/DaisyToolchain/0.2.0/arm/arm-none-eabi/include/c++/10.3.1/bits/stl_algo.h **** 		*__result1 = _GLIBCXX_MOVE(*__first);
1572:/Library/DaisyToolchain/0.2.0/arm/arm-none-eabi/include/c++/10.3.1/bits/stl_algo.h **** 		++__result1;
1573:/Library/DaisyToolchain/0.2.0/arm/arm-none-eabi/include/c++/10.3.1/bits/stl_algo.h **** 	      }
1574:/Library/DaisyToolchain/0.2.0/arm/arm-none-eabi/include/c++/10.3.1/bits/stl_algo.h **** 	    else
1575:/Library/DaisyToolchain/0.2.0/arm/arm-none-eabi/include/c++/10.3.1/bits/stl_algo.h **** 	      {
1576:/Library/DaisyToolchain/0.2.0/arm/arm-none-eabi/include/c++/10.3.1/bits/stl_algo.h **** 		*__result2 = _GLIBCXX_MOVE(*__first);
1577:/Library/DaisyToolchain/0.2.0/arm/arm-none-eabi/include/c++/10.3.1/bits/stl_algo.h **** 		++__result2;
1578:/Library/DaisyToolchain/0.2.0/arm/arm-none-eabi/include/c++/10.3.1/bits/stl_algo.h **** 	      }
1579:/Library/DaisyToolchain/0.2.0/arm/arm-none-eabi/include/c++/10.3.1/bits/stl_algo.h **** 
1580:/Library/DaisyToolchain/0.2.0/arm/arm-none-eabi/include/c++/10.3.1/bits/stl_algo.h **** 	  _GLIBCXX_MOVE3(__buffer, __result2, __result1);
1581:/Library/DaisyToolchain/0.2.0/arm/arm-none-eabi/include/c++/10.3.1/bits/stl_algo.h **** 	  return __result1;
1582:/Library/DaisyToolchain/0.2.0/arm/arm-none-eabi/include/c++/10.3.1/bits/stl_algo.h **** 	}
1583:/Library/DaisyToolchain/0.2.0/arm/arm-none-eabi/include/c++/10.3.1/bits/stl_algo.h **** 
1584:/Library/DaisyToolchain/0.2.0/arm/arm-none-eabi/include/c++/10.3.1/bits/stl_algo.h ****       _ForwardIterator __middle = __first;
1585:/Library/DaisyToolchain/0.2.0/arm/arm-none-eabi/include/c++/10.3.1/bits/stl_algo.h ****       std::advance(__middle, __len / 2);
1586:/Library/DaisyToolchain/0.2.0/arm/arm-none-eabi/include/c++/10.3.1/bits/stl_algo.h ****       _ForwardIterator __left_split =
1587:/Library/DaisyToolchain/0.2.0/arm/arm-none-eabi/include/c++/10.3.1/bits/stl_algo.h **** 	std::__stable_partition_adaptive(__first, __middle, __pred,
1588:/Library/DaisyToolchain/0.2.0/arm/arm-none-eabi/include/c++/10.3.1/bits/stl_algo.h **** 					 __len / 2, __buffer,
1589:/Library/DaisyToolchain/0.2.0/arm/arm-none-eabi/include/c++/10.3.1/bits/stl_algo.h **** 					 __buffer_size);
1590:/Library/DaisyToolchain/0.2.0/arm/arm-none-eabi/include/c++/10.3.1/bits/stl_algo.h **** 
1591:/Library/DaisyToolchain/0.2.0/arm/arm-none-eabi/include/c++/10.3.1/bits/stl_algo.h ****       // Advance past true-predicate values to satisfy this
1592:/Library/DaisyToolchain/0.2.0/arm/arm-none-eabi/include/c++/10.3.1/bits/stl_algo.h ****       // function's preconditions.
1593:/Library/DaisyToolchain/0.2.0/arm/arm-none-eabi/include/c++/10.3.1/bits/stl_algo.h ****       _Distance __right_len = __len - __len / 2;
1594:/Library/DaisyToolchain/0.2.0/arm/arm-none-eabi/include/c++/10.3.1/bits/stl_algo.h ****       _ForwardIterator __right_split =
1595:/Library/DaisyToolchain/0.2.0/arm/arm-none-eabi/include/c++/10.3.1/bits/stl_algo.h **** 	std::__find_if_not_n(__middle, __right_len, __pred);
ARM GAS  /var/folders/th/s5djnwg15xxc0dk87c413f_h0000gn/T//ccCW3aXI.s 			page 110


1596:/Library/DaisyToolchain/0.2.0/arm/arm-none-eabi/include/c++/10.3.1/bits/stl_algo.h **** 
1597:/Library/DaisyToolchain/0.2.0/arm/arm-none-eabi/include/c++/10.3.1/bits/stl_algo.h ****       if (__right_len)
1598:/Library/DaisyToolchain/0.2.0/arm/arm-none-eabi/include/c++/10.3.1/bits/stl_algo.h **** 	__right_split =
1599:/Library/DaisyToolchain/0.2.0/arm/arm-none-eabi/include/c++/10.3.1/bits/stl_algo.h **** 	  std::__stable_partition_adaptive(__right_split, __last, __pred,
1600:/Library/DaisyToolchain/0.2.0/arm/arm-none-eabi/include/c++/10.3.1/bits/stl_algo.h **** 					   __right_len,
1601:/Library/DaisyToolchain/0.2.0/arm/arm-none-eabi/include/c++/10.3.1/bits/stl_algo.h **** 					   __buffer, __buffer_size);
1602:/Library/DaisyToolchain/0.2.0/arm/arm-none-eabi/include/c++/10.3.1/bits/stl_algo.h **** 
1603:/Library/DaisyToolchain/0.2.0/arm/arm-none-eabi/include/c++/10.3.1/bits/stl_algo.h ****       return std::rotate(__left_split, __middle, __right_split);
1604:/Library/DaisyToolchain/0.2.0/arm/arm-none-eabi/include/c++/10.3.1/bits/stl_algo.h ****     }
1605:/Library/DaisyToolchain/0.2.0/arm/arm-none-eabi/include/c++/10.3.1/bits/stl_algo.h **** 
1606:/Library/DaisyToolchain/0.2.0/arm/arm-none-eabi/include/c++/10.3.1/bits/stl_algo.h ****   template<typename _ForwardIterator, typename _Predicate>
1607:/Library/DaisyToolchain/0.2.0/arm/arm-none-eabi/include/c++/10.3.1/bits/stl_algo.h ****     _ForwardIterator
1608:/Library/DaisyToolchain/0.2.0/arm/arm-none-eabi/include/c++/10.3.1/bits/stl_algo.h ****     __stable_partition(_ForwardIterator __first, _ForwardIterator __last,
1609:/Library/DaisyToolchain/0.2.0/arm/arm-none-eabi/include/c++/10.3.1/bits/stl_algo.h **** 		       _Predicate __pred)
1610:/Library/DaisyToolchain/0.2.0/arm/arm-none-eabi/include/c++/10.3.1/bits/stl_algo.h ****     {
1611:/Library/DaisyToolchain/0.2.0/arm/arm-none-eabi/include/c++/10.3.1/bits/stl_algo.h ****       __first = std::__find_if_not(__first, __last, __pred);
1612:/Library/DaisyToolchain/0.2.0/arm/arm-none-eabi/include/c++/10.3.1/bits/stl_algo.h **** 
1613:/Library/DaisyToolchain/0.2.0/arm/arm-none-eabi/include/c++/10.3.1/bits/stl_algo.h ****       if (__first == __last)
1614:/Library/DaisyToolchain/0.2.0/arm/arm-none-eabi/include/c++/10.3.1/bits/stl_algo.h **** 	return __first;
1615:/Library/DaisyToolchain/0.2.0/arm/arm-none-eabi/include/c++/10.3.1/bits/stl_algo.h **** 
1616:/Library/DaisyToolchain/0.2.0/arm/arm-none-eabi/include/c++/10.3.1/bits/stl_algo.h ****       typedef typename iterator_traits<_ForwardIterator>::value_type
1617:/Library/DaisyToolchain/0.2.0/arm/arm-none-eabi/include/c++/10.3.1/bits/stl_algo.h **** 	_ValueType;
1618:/Library/DaisyToolchain/0.2.0/arm/arm-none-eabi/include/c++/10.3.1/bits/stl_algo.h ****       typedef typename iterator_traits<_ForwardIterator>::difference_type
1619:/Library/DaisyToolchain/0.2.0/arm/arm-none-eabi/include/c++/10.3.1/bits/stl_algo.h **** 	_DistanceType;
1620:/Library/DaisyToolchain/0.2.0/arm/arm-none-eabi/include/c++/10.3.1/bits/stl_algo.h **** 
1621:/Library/DaisyToolchain/0.2.0/arm/arm-none-eabi/include/c++/10.3.1/bits/stl_algo.h ****       _Temporary_buffer<_ForwardIterator, _ValueType>
1622:/Library/DaisyToolchain/0.2.0/arm/arm-none-eabi/include/c++/10.3.1/bits/stl_algo.h **** 	__buf(__first, std::distance(__first, __last));
1623:/Library/DaisyToolchain/0.2.0/arm/arm-none-eabi/include/c++/10.3.1/bits/stl_algo.h ****       return
1624:/Library/DaisyToolchain/0.2.0/arm/arm-none-eabi/include/c++/10.3.1/bits/stl_algo.h **** 	std::__stable_partition_adaptive(__first, __last, __pred,
1625:/Library/DaisyToolchain/0.2.0/arm/arm-none-eabi/include/c++/10.3.1/bits/stl_algo.h **** 					 _DistanceType(__buf.requested_size()),
1626:/Library/DaisyToolchain/0.2.0/arm/arm-none-eabi/include/c++/10.3.1/bits/stl_algo.h **** 					 __buf.begin(),
1627:/Library/DaisyToolchain/0.2.0/arm/arm-none-eabi/include/c++/10.3.1/bits/stl_algo.h **** 					 _DistanceType(__buf.size()));
1628:/Library/DaisyToolchain/0.2.0/arm/arm-none-eabi/include/c++/10.3.1/bits/stl_algo.h ****     }
1629:/Library/DaisyToolchain/0.2.0/arm/arm-none-eabi/include/c++/10.3.1/bits/stl_algo.h **** 
1630:/Library/DaisyToolchain/0.2.0/arm/arm-none-eabi/include/c++/10.3.1/bits/stl_algo.h ****   /**
1631:/Library/DaisyToolchain/0.2.0/arm/arm-none-eabi/include/c++/10.3.1/bits/stl_algo.h ****    *  @brief Move elements for which a predicate is true to the beginning
1632:/Library/DaisyToolchain/0.2.0/arm/arm-none-eabi/include/c++/10.3.1/bits/stl_algo.h ****    *         of a sequence, preserving relative ordering.
1633:/Library/DaisyToolchain/0.2.0/arm/arm-none-eabi/include/c++/10.3.1/bits/stl_algo.h ****    *  @ingroup mutating_algorithms
1634:/Library/DaisyToolchain/0.2.0/arm/arm-none-eabi/include/c++/10.3.1/bits/stl_algo.h ****    *  @param  __first   A forward iterator.
1635:/Library/DaisyToolchain/0.2.0/arm/arm-none-eabi/include/c++/10.3.1/bits/stl_algo.h ****    *  @param  __last    A forward iterator.
1636:/Library/DaisyToolchain/0.2.0/arm/arm-none-eabi/include/c++/10.3.1/bits/stl_algo.h ****    *  @param  __pred    A predicate functor.
1637:/Library/DaisyToolchain/0.2.0/arm/arm-none-eabi/include/c++/10.3.1/bits/stl_algo.h ****    *  @return  An iterator @p middle such that @p __pred(i) is true for each
1638:/Library/DaisyToolchain/0.2.0/arm/arm-none-eabi/include/c++/10.3.1/bits/stl_algo.h ****    *  iterator @p i in the range @p [first,middle) and false for each @p i
1639:/Library/DaisyToolchain/0.2.0/arm/arm-none-eabi/include/c++/10.3.1/bits/stl_algo.h ****    *  in the range @p [middle,last).
1640:/Library/DaisyToolchain/0.2.0/arm/arm-none-eabi/include/c++/10.3.1/bits/stl_algo.h ****    *
1641:/Library/DaisyToolchain/0.2.0/arm/arm-none-eabi/include/c++/10.3.1/bits/stl_algo.h ****    *  Performs the same function as @p partition() with the additional
1642:/Library/DaisyToolchain/0.2.0/arm/arm-none-eabi/include/c++/10.3.1/bits/stl_algo.h ****    *  guarantee that the relative ordering of elements in each group is
1643:/Library/DaisyToolchain/0.2.0/arm/arm-none-eabi/include/c++/10.3.1/bits/stl_algo.h ****    *  preserved, so any two elements @p x and @p y in the range
1644:/Library/DaisyToolchain/0.2.0/arm/arm-none-eabi/include/c++/10.3.1/bits/stl_algo.h ****    *  @p [__first,__last) such that @p __pred(x)==__pred(y) will have the same
1645:/Library/DaisyToolchain/0.2.0/arm/arm-none-eabi/include/c++/10.3.1/bits/stl_algo.h ****    *  relative ordering after calling @p stable_partition().
1646:/Library/DaisyToolchain/0.2.0/arm/arm-none-eabi/include/c++/10.3.1/bits/stl_algo.h ****   */
1647:/Library/DaisyToolchain/0.2.0/arm/arm-none-eabi/include/c++/10.3.1/bits/stl_algo.h ****   template<typename _ForwardIterator, typename _Predicate>
1648:/Library/DaisyToolchain/0.2.0/arm/arm-none-eabi/include/c++/10.3.1/bits/stl_algo.h ****     inline _ForwardIterator
1649:/Library/DaisyToolchain/0.2.0/arm/arm-none-eabi/include/c++/10.3.1/bits/stl_algo.h ****     stable_partition(_ForwardIterator __first, _ForwardIterator __last,
1650:/Library/DaisyToolchain/0.2.0/arm/arm-none-eabi/include/c++/10.3.1/bits/stl_algo.h **** 		     _Predicate __pred)
1651:/Library/DaisyToolchain/0.2.0/arm/arm-none-eabi/include/c++/10.3.1/bits/stl_algo.h ****     {
1652:/Library/DaisyToolchain/0.2.0/arm/arm-none-eabi/include/c++/10.3.1/bits/stl_algo.h ****       // concept requirements
ARM GAS  /var/folders/th/s5djnwg15xxc0dk87c413f_h0000gn/T//ccCW3aXI.s 			page 111


1653:/Library/DaisyToolchain/0.2.0/arm/arm-none-eabi/include/c++/10.3.1/bits/stl_algo.h ****       __glibcxx_function_requires(_Mutable_ForwardIteratorConcept<
1654:/Library/DaisyToolchain/0.2.0/arm/arm-none-eabi/include/c++/10.3.1/bits/stl_algo.h **** 				  _ForwardIterator>)
1655:/Library/DaisyToolchain/0.2.0/arm/arm-none-eabi/include/c++/10.3.1/bits/stl_algo.h ****       __glibcxx_function_requires(_UnaryPredicateConcept<_Predicate,
1656:/Library/DaisyToolchain/0.2.0/arm/arm-none-eabi/include/c++/10.3.1/bits/stl_algo.h **** 	    typename iterator_traits<_ForwardIterator>::value_type>)
1657:/Library/DaisyToolchain/0.2.0/arm/arm-none-eabi/include/c++/10.3.1/bits/stl_algo.h ****       __glibcxx_requires_valid_range(__first, __last);
1658:/Library/DaisyToolchain/0.2.0/arm/arm-none-eabi/include/c++/10.3.1/bits/stl_algo.h **** 
1659:/Library/DaisyToolchain/0.2.0/arm/arm-none-eabi/include/c++/10.3.1/bits/stl_algo.h ****       return std::__stable_partition(__first, __last,
1660:/Library/DaisyToolchain/0.2.0/arm/arm-none-eabi/include/c++/10.3.1/bits/stl_algo.h **** 				     __gnu_cxx::__ops::__pred_iter(__pred));
1661:/Library/DaisyToolchain/0.2.0/arm/arm-none-eabi/include/c++/10.3.1/bits/stl_algo.h ****     }
1662:/Library/DaisyToolchain/0.2.0/arm/arm-none-eabi/include/c++/10.3.1/bits/stl_algo.h **** 
1663:/Library/DaisyToolchain/0.2.0/arm/arm-none-eabi/include/c++/10.3.1/bits/stl_algo.h ****   /// This is a helper function for the sort routines.
1664:/Library/DaisyToolchain/0.2.0/arm/arm-none-eabi/include/c++/10.3.1/bits/stl_algo.h ****   template<typename _RandomAccessIterator, typename _Compare>
1665:/Library/DaisyToolchain/0.2.0/arm/arm-none-eabi/include/c++/10.3.1/bits/stl_algo.h ****     _GLIBCXX20_CONSTEXPR
1666:/Library/DaisyToolchain/0.2.0/arm/arm-none-eabi/include/c++/10.3.1/bits/stl_algo.h ****     void
1667:/Library/DaisyToolchain/0.2.0/arm/arm-none-eabi/include/c++/10.3.1/bits/stl_algo.h ****     __heap_select(_RandomAccessIterator __first,
1668:/Library/DaisyToolchain/0.2.0/arm/arm-none-eabi/include/c++/10.3.1/bits/stl_algo.h **** 		  _RandomAccessIterator __middle,
1669:/Library/DaisyToolchain/0.2.0/arm/arm-none-eabi/include/c++/10.3.1/bits/stl_algo.h **** 		  _RandomAccessIterator __last, _Compare __comp)
1670:/Library/DaisyToolchain/0.2.0/arm/arm-none-eabi/include/c++/10.3.1/bits/stl_algo.h ****     {
1671:/Library/DaisyToolchain/0.2.0/arm/arm-none-eabi/include/c++/10.3.1/bits/stl_algo.h ****       std::__make_heap(__first, __middle, __comp);
1672:/Library/DaisyToolchain/0.2.0/arm/arm-none-eabi/include/c++/10.3.1/bits/stl_algo.h ****       for (_RandomAccessIterator __i = __middle; __i < __last; ++__i)
1673:/Library/DaisyToolchain/0.2.0/arm/arm-none-eabi/include/c++/10.3.1/bits/stl_algo.h **** 	if (__comp(__i, __first))
1674:/Library/DaisyToolchain/0.2.0/arm/arm-none-eabi/include/c++/10.3.1/bits/stl_algo.h **** 	  std::__pop_heap(__first, __middle, __i, __comp);
1675:/Library/DaisyToolchain/0.2.0/arm/arm-none-eabi/include/c++/10.3.1/bits/stl_algo.h ****     }
1676:/Library/DaisyToolchain/0.2.0/arm/arm-none-eabi/include/c++/10.3.1/bits/stl_algo.h **** 
1677:/Library/DaisyToolchain/0.2.0/arm/arm-none-eabi/include/c++/10.3.1/bits/stl_algo.h ****   // partial_sort
1678:/Library/DaisyToolchain/0.2.0/arm/arm-none-eabi/include/c++/10.3.1/bits/stl_algo.h **** 
1679:/Library/DaisyToolchain/0.2.0/arm/arm-none-eabi/include/c++/10.3.1/bits/stl_algo.h ****   template<typename _InputIterator, typename _RandomAccessIterator,
1680:/Library/DaisyToolchain/0.2.0/arm/arm-none-eabi/include/c++/10.3.1/bits/stl_algo.h **** 	   typename _Compare>
1681:/Library/DaisyToolchain/0.2.0/arm/arm-none-eabi/include/c++/10.3.1/bits/stl_algo.h ****     _GLIBCXX20_CONSTEXPR
1682:/Library/DaisyToolchain/0.2.0/arm/arm-none-eabi/include/c++/10.3.1/bits/stl_algo.h ****     _RandomAccessIterator
1683:/Library/DaisyToolchain/0.2.0/arm/arm-none-eabi/include/c++/10.3.1/bits/stl_algo.h ****     __partial_sort_copy(_InputIterator __first, _InputIterator __last,
1684:/Library/DaisyToolchain/0.2.0/arm/arm-none-eabi/include/c++/10.3.1/bits/stl_algo.h **** 			_RandomAccessIterator __result_first,
1685:/Library/DaisyToolchain/0.2.0/arm/arm-none-eabi/include/c++/10.3.1/bits/stl_algo.h **** 			_RandomAccessIterator __result_last,
1686:/Library/DaisyToolchain/0.2.0/arm/arm-none-eabi/include/c++/10.3.1/bits/stl_algo.h **** 			_Compare __comp)
1687:/Library/DaisyToolchain/0.2.0/arm/arm-none-eabi/include/c++/10.3.1/bits/stl_algo.h ****     {
1688:/Library/DaisyToolchain/0.2.0/arm/arm-none-eabi/include/c++/10.3.1/bits/stl_algo.h ****       typedef typename iterator_traits<_InputIterator>::value_type
1689:/Library/DaisyToolchain/0.2.0/arm/arm-none-eabi/include/c++/10.3.1/bits/stl_algo.h **** 	_InputValueType;
1690:/Library/DaisyToolchain/0.2.0/arm/arm-none-eabi/include/c++/10.3.1/bits/stl_algo.h ****       typedef iterator_traits<_RandomAccessIterator> _RItTraits;
1691:/Library/DaisyToolchain/0.2.0/arm/arm-none-eabi/include/c++/10.3.1/bits/stl_algo.h ****       typedef typename _RItTraits::difference_type _DistanceType;
1692:/Library/DaisyToolchain/0.2.0/arm/arm-none-eabi/include/c++/10.3.1/bits/stl_algo.h **** 
1693:/Library/DaisyToolchain/0.2.0/arm/arm-none-eabi/include/c++/10.3.1/bits/stl_algo.h ****       if (__result_first == __result_last)
1694:/Library/DaisyToolchain/0.2.0/arm/arm-none-eabi/include/c++/10.3.1/bits/stl_algo.h **** 	return __result_last;
1695:/Library/DaisyToolchain/0.2.0/arm/arm-none-eabi/include/c++/10.3.1/bits/stl_algo.h ****       _RandomAccessIterator __result_real_last = __result_first;
1696:/Library/DaisyToolchain/0.2.0/arm/arm-none-eabi/include/c++/10.3.1/bits/stl_algo.h ****       while (__first != __last && __result_real_last != __result_last)
1697:/Library/DaisyToolchain/0.2.0/arm/arm-none-eabi/include/c++/10.3.1/bits/stl_algo.h **** 	{
1698:/Library/DaisyToolchain/0.2.0/arm/arm-none-eabi/include/c++/10.3.1/bits/stl_algo.h **** 	  *__result_real_last = *__first;
1699:/Library/DaisyToolchain/0.2.0/arm/arm-none-eabi/include/c++/10.3.1/bits/stl_algo.h **** 	  ++__result_real_last;
1700:/Library/DaisyToolchain/0.2.0/arm/arm-none-eabi/include/c++/10.3.1/bits/stl_algo.h **** 	  ++__first;
1701:/Library/DaisyToolchain/0.2.0/arm/arm-none-eabi/include/c++/10.3.1/bits/stl_algo.h **** 	}
1702:/Library/DaisyToolchain/0.2.0/arm/arm-none-eabi/include/c++/10.3.1/bits/stl_algo.h ****       
1703:/Library/DaisyToolchain/0.2.0/arm/arm-none-eabi/include/c++/10.3.1/bits/stl_algo.h ****       std::__make_heap(__result_first, __result_real_last, __comp);
1704:/Library/DaisyToolchain/0.2.0/arm/arm-none-eabi/include/c++/10.3.1/bits/stl_algo.h ****       while (__first != __last)
1705:/Library/DaisyToolchain/0.2.0/arm/arm-none-eabi/include/c++/10.3.1/bits/stl_algo.h **** 	{
1706:/Library/DaisyToolchain/0.2.0/arm/arm-none-eabi/include/c++/10.3.1/bits/stl_algo.h **** 	  if (__comp(__first, __result_first))
1707:/Library/DaisyToolchain/0.2.0/arm/arm-none-eabi/include/c++/10.3.1/bits/stl_algo.h **** 	    std::__adjust_heap(__result_first, _DistanceType(0),
1708:/Library/DaisyToolchain/0.2.0/arm/arm-none-eabi/include/c++/10.3.1/bits/stl_algo.h **** 			       _DistanceType(__result_real_last
1709:/Library/DaisyToolchain/0.2.0/arm/arm-none-eabi/include/c++/10.3.1/bits/stl_algo.h **** 					     - __result_first),
ARM GAS  /var/folders/th/s5djnwg15xxc0dk87c413f_h0000gn/T//ccCW3aXI.s 			page 112


1710:/Library/DaisyToolchain/0.2.0/arm/arm-none-eabi/include/c++/10.3.1/bits/stl_algo.h **** 			       _InputValueType(*__first), __comp);
1711:/Library/DaisyToolchain/0.2.0/arm/arm-none-eabi/include/c++/10.3.1/bits/stl_algo.h **** 	  ++__first;
1712:/Library/DaisyToolchain/0.2.0/arm/arm-none-eabi/include/c++/10.3.1/bits/stl_algo.h **** 	}
1713:/Library/DaisyToolchain/0.2.0/arm/arm-none-eabi/include/c++/10.3.1/bits/stl_algo.h ****       std::__sort_heap(__result_first, __result_real_last, __comp);
1714:/Library/DaisyToolchain/0.2.0/arm/arm-none-eabi/include/c++/10.3.1/bits/stl_algo.h ****       return __result_real_last;
1715:/Library/DaisyToolchain/0.2.0/arm/arm-none-eabi/include/c++/10.3.1/bits/stl_algo.h ****     }
1716:/Library/DaisyToolchain/0.2.0/arm/arm-none-eabi/include/c++/10.3.1/bits/stl_algo.h **** 
1717:/Library/DaisyToolchain/0.2.0/arm/arm-none-eabi/include/c++/10.3.1/bits/stl_algo.h ****   /**
1718:/Library/DaisyToolchain/0.2.0/arm/arm-none-eabi/include/c++/10.3.1/bits/stl_algo.h ****    *  @brief Copy the smallest elements of a sequence.
1719:/Library/DaisyToolchain/0.2.0/arm/arm-none-eabi/include/c++/10.3.1/bits/stl_algo.h ****    *  @ingroup sorting_algorithms
1720:/Library/DaisyToolchain/0.2.0/arm/arm-none-eabi/include/c++/10.3.1/bits/stl_algo.h ****    *  @param  __first   An iterator.
1721:/Library/DaisyToolchain/0.2.0/arm/arm-none-eabi/include/c++/10.3.1/bits/stl_algo.h ****    *  @param  __last    Another iterator.
1722:/Library/DaisyToolchain/0.2.0/arm/arm-none-eabi/include/c++/10.3.1/bits/stl_algo.h ****    *  @param  __result_first   A random-access iterator.
1723:/Library/DaisyToolchain/0.2.0/arm/arm-none-eabi/include/c++/10.3.1/bits/stl_algo.h ****    *  @param  __result_last    Another random-access iterator.
1724:/Library/DaisyToolchain/0.2.0/arm/arm-none-eabi/include/c++/10.3.1/bits/stl_algo.h ****    *  @return   An iterator indicating the end of the resulting sequence.
1725:/Library/DaisyToolchain/0.2.0/arm/arm-none-eabi/include/c++/10.3.1/bits/stl_algo.h ****    *
1726:/Library/DaisyToolchain/0.2.0/arm/arm-none-eabi/include/c++/10.3.1/bits/stl_algo.h ****    *  Copies and sorts the smallest N values from the range @p [__first,__last)
1727:/Library/DaisyToolchain/0.2.0/arm/arm-none-eabi/include/c++/10.3.1/bits/stl_algo.h ****    *  to the range beginning at @p __result_first, where the number of
1728:/Library/DaisyToolchain/0.2.0/arm/arm-none-eabi/include/c++/10.3.1/bits/stl_algo.h ****    *  elements to be copied, @p N, is the smaller of @p (__last-__first) and
1729:/Library/DaisyToolchain/0.2.0/arm/arm-none-eabi/include/c++/10.3.1/bits/stl_algo.h ****    *  @p (__result_last-__result_first).
1730:/Library/DaisyToolchain/0.2.0/arm/arm-none-eabi/include/c++/10.3.1/bits/stl_algo.h ****    *  After the sort if @e i and @e j are iterators in the range
1731:/Library/DaisyToolchain/0.2.0/arm/arm-none-eabi/include/c++/10.3.1/bits/stl_algo.h ****    *  @p [__result_first,__result_first+N) such that i precedes j then
1732:/Library/DaisyToolchain/0.2.0/arm/arm-none-eabi/include/c++/10.3.1/bits/stl_algo.h ****    *  *j<*i is false.
1733:/Library/DaisyToolchain/0.2.0/arm/arm-none-eabi/include/c++/10.3.1/bits/stl_algo.h ****    *  The value returned is @p __result_first+N.
1734:/Library/DaisyToolchain/0.2.0/arm/arm-none-eabi/include/c++/10.3.1/bits/stl_algo.h ****   */
1735:/Library/DaisyToolchain/0.2.0/arm/arm-none-eabi/include/c++/10.3.1/bits/stl_algo.h ****   template<typename _InputIterator, typename _RandomAccessIterator>
1736:/Library/DaisyToolchain/0.2.0/arm/arm-none-eabi/include/c++/10.3.1/bits/stl_algo.h ****     _GLIBCXX20_CONSTEXPR
1737:/Library/DaisyToolchain/0.2.0/arm/arm-none-eabi/include/c++/10.3.1/bits/stl_algo.h ****     inline _RandomAccessIterator
1738:/Library/DaisyToolchain/0.2.0/arm/arm-none-eabi/include/c++/10.3.1/bits/stl_algo.h ****     partial_sort_copy(_InputIterator __first, _InputIterator __last,
1739:/Library/DaisyToolchain/0.2.0/arm/arm-none-eabi/include/c++/10.3.1/bits/stl_algo.h **** 		      _RandomAccessIterator __result_first,
1740:/Library/DaisyToolchain/0.2.0/arm/arm-none-eabi/include/c++/10.3.1/bits/stl_algo.h **** 		      _RandomAccessIterator __result_last)
1741:/Library/DaisyToolchain/0.2.0/arm/arm-none-eabi/include/c++/10.3.1/bits/stl_algo.h ****     {
1742:/Library/DaisyToolchain/0.2.0/arm/arm-none-eabi/include/c++/10.3.1/bits/stl_algo.h **** #ifdef _GLIBCXX_CONCEPT_CHECKS
1743:/Library/DaisyToolchain/0.2.0/arm/arm-none-eabi/include/c++/10.3.1/bits/stl_algo.h ****       typedef typename iterator_traits<_InputIterator>::value_type
1744:/Library/DaisyToolchain/0.2.0/arm/arm-none-eabi/include/c++/10.3.1/bits/stl_algo.h **** 	_InputValueType;
1745:/Library/DaisyToolchain/0.2.0/arm/arm-none-eabi/include/c++/10.3.1/bits/stl_algo.h ****       typedef typename iterator_traits<_RandomAccessIterator>::value_type
1746:/Library/DaisyToolchain/0.2.0/arm/arm-none-eabi/include/c++/10.3.1/bits/stl_algo.h **** 	_OutputValueType;
1747:/Library/DaisyToolchain/0.2.0/arm/arm-none-eabi/include/c++/10.3.1/bits/stl_algo.h **** #endif
1748:/Library/DaisyToolchain/0.2.0/arm/arm-none-eabi/include/c++/10.3.1/bits/stl_algo.h **** 
1749:/Library/DaisyToolchain/0.2.0/arm/arm-none-eabi/include/c++/10.3.1/bits/stl_algo.h ****       // concept requirements
1750:/Library/DaisyToolchain/0.2.0/arm/arm-none-eabi/include/c++/10.3.1/bits/stl_algo.h ****       __glibcxx_function_requires(_InputIteratorConcept<_InputIterator>)
1751:/Library/DaisyToolchain/0.2.0/arm/arm-none-eabi/include/c++/10.3.1/bits/stl_algo.h ****       __glibcxx_function_requires(_ConvertibleConcept<_InputValueType,
1752:/Library/DaisyToolchain/0.2.0/arm/arm-none-eabi/include/c++/10.3.1/bits/stl_algo.h **** 				  _OutputValueType>)
1753:/Library/DaisyToolchain/0.2.0/arm/arm-none-eabi/include/c++/10.3.1/bits/stl_algo.h ****       __glibcxx_function_requires(_LessThanOpConcept<_InputValueType,
1754:/Library/DaisyToolchain/0.2.0/arm/arm-none-eabi/include/c++/10.3.1/bits/stl_algo.h **** 						     _OutputValueType>)
1755:/Library/DaisyToolchain/0.2.0/arm/arm-none-eabi/include/c++/10.3.1/bits/stl_algo.h ****       __glibcxx_function_requires(_LessThanComparableConcept<_OutputValueType>)
1756:/Library/DaisyToolchain/0.2.0/arm/arm-none-eabi/include/c++/10.3.1/bits/stl_algo.h ****       __glibcxx_requires_valid_range(__first, __last);
1757:/Library/DaisyToolchain/0.2.0/arm/arm-none-eabi/include/c++/10.3.1/bits/stl_algo.h ****       __glibcxx_requires_irreflexive(__first, __last);
1758:/Library/DaisyToolchain/0.2.0/arm/arm-none-eabi/include/c++/10.3.1/bits/stl_algo.h ****       __glibcxx_requires_valid_range(__result_first, __result_last);
1759:/Library/DaisyToolchain/0.2.0/arm/arm-none-eabi/include/c++/10.3.1/bits/stl_algo.h **** 
1760:/Library/DaisyToolchain/0.2.0/arm/arm-none-eabi/include/c++/10.3.1/bits/stl_algo.h ****       return std::__partial_sort_copy(__first, __last,
1761:/Library/DaisyToolchain/0.2.0/arm/arm-none-eabi/include/c++/10.3.1/bits/stl_algo.h **** 				      __result_first, __result_last,
1762:/Library/DaisyToolchain/0.2.0/arm/arm-none-eabi/include/c++/10.3.1/bits/stl_algo.h **** 				      __gnu_cxx::__ops::__iter_less_iter());
1763:/Library/DaisyToolchain/0.2.0/arm/arm-none-eabi/include/c++/10.3.1/bits/stl_algo.h ****     }
1764:/Library/DaisyToolchain/0.2.0/arm/arm-none-eabi/include/c++/10.3.1/bits/stl_algo.h **** 
1765:/Library/DaisyToolchain/0.2.0/arm/arm-none-eabi/include/c++/10.3.1/bits/stl_algo.h ****   /**
1766:/Library/DaisyToolchain/0.2.0/arm/arm-none-eabi/include/c++/10.3.1/bits/stl_algo.h ****    *  @brief Copy the smallest elements of a sequence using a predicate for
ARM GAS  /var/folders/th/s5djnwg15xxc0dk87c413f_h0000gn/T//ccCW3aXI.s 			page 113


1767:/Library/DaisyToolchain/0.2.0/arm/arm-none-eabi/include/c++/10.3.1/bits/stl_algo.h ****    *         comparison.
1768:/Library/DaisyToolchain/0.2.0/arm/arm-none-eabi/include/c++/10.3.1/bits/stl_algo.h ****    *  @ingroup sorting_algorithms
1769:/Library/DaisyToolchain/0.2.0/arm/arm-none-eabi/include/c++/10.3.1/bits/stl_algo.h ****    *  @param  __first   An input iterator.
1770:/Library/DaisyToolchain/0.2.0/arm/arm-none-eabi/include/c++/10.3.1/bits/stl_algo.h ****    *  @param  __last    Another input iterator.
1771:/Library/DaisyToolchain/0.2.0/arm/arm-none-eabi/include/c++/10.3.1/bits/stl_algo.h ****    *  @param  __result_first   A random-access iterator.
1772:/Library/DaisyToolchain/0.2.0/arm/arm-none-eabi/include/c++/10.3.1/bits/stl_algo.h ****    *  @param  __result_last    Another random-access iterator.
1773:/Library/DaisyToolchain/0.2.0/arm/arm-none-eabi/include/c++/10.3.1/bits/stl_algo.h ****    *  @param  __comp    A comparison functor.
1774:/Library/DaisyToolchain/0.2.0/arm/arm-none-eabi/include/c++/10.3.1/bits/stl_algo.h ****    *  @return   An iterator indicating the end of the resulting sequence.
1775:/Library/DaisyToolchain/0.2.0/arm/arm-none-eabi/include/c++/10.3.1/bits/stl_algo.h ****    *
1776:/Library/DaisyToolchain/0.2.0/arm/arm-none-eabi/include/c++/10.3.1/bits/stl_algo.h ****    *  Copies and sorts the smallest N values from the range @p [__first,__last)
1777:/Library/DaisyToolchain/0.2.0/arm/arm-none-eabi/include/c++/10.3.1/bits/stl_algo.h ****    *  to the range beginning at @p result_first, where the number of
1778:/Library/DaisyToolchain/0.2.0/arm/arm-none-eabi/include/c++/10.3.1/bits/stl_algo.h ****    *  elements to be copied, @p N, is the smaller of @p (__last-__first) and
1779:/Library/DaisyToolchain/0.2.0/arm/arm-none-eabi/include/c++/10.3.1/bits/stl_algo.h ****    *  @p (__result_last-__result_first).
1780:/Library/DaisyToolchain/0.2.0/arm/arm-none-eabi/include/c++/10.3.1/bits/stl_algo.h ****    *  After the sort if @e i and @e j are iterators in the range
1781:/Library/DaisyToolchain/0.2.0/arm/arm-none-eabi/include/c++/10.3.1/bits/stl_algo.h ****    *  @p [__result_first,__result_first+N) such that i precedes j then
1782:/Library/DaisyToolchain/0.2.0/arm/arm-none-eabi/include/c++/10.3.1/bits/stl_algo.h ****    *  @p __comp(*j,*i) is false.
1783:/Library/DaisyToolchain/0.2.0/arm/arm-none-eabi/include/c++/10.3.1/bits/stl_algo.h ****    *  The value returned is @p __result_first+N.
1784:/Library/DaisyToolchain/0.2.0/arm/arm-none-eabi/include/c++/10.3.1/bits/stl_algo.h ****   */
1785:/Library/DaisyToolchain/0.2.0/arm/arm-none-eabi/include/c++/10.3.1/bits/stl_algo.h ****   template<typename _InputIterator, typename _RandomAccessIterator,
1786:/Library/DaisyToolchain/0.2.0/arm/arm-none-eabi/include/c++/10.3.1/bits/stl_algo.h **** 	   typename _Compare>
1787:/Library/DaisyToolchain/0.2.0/arm/arm-none-eabi/include/c++/10.3.1/bits/stl_algo.h ****     _GLIBCXX20_CONSTEXPR
1788:/Library/DaisyToolchain/0.2.0/arm/arm-none-eabi/include/c++/10.3.1/bits/stl_algo.h ****     inline _RandomAccessIterator
1789:/Library/DaisyToolchain/0.2.0/arm/arm-none-eabi/include/c++/10.3.1/bits/stl_algo.h ****     partial_sort_copy(_InputIterator __first, _InputIterator __last,
1790:/Library/DaisyToolchain/0.2.0/arm/arm-none-eabi/include/c++/10.3.1/bits/stl_algo.h **** 		      _RandomAccessIterator __result_first,
1791:/Library/DaisyToolchain/0.2.0/arm/arm-none-eabi/include/c++/10.3.1/bits/stl_algo.h **** 		      _RandomAccessIterator __result_last,
1792:/Library/DaisyToolchain/0.2.0/arm/arm-none-eabi/include/c++/10.3.1/bits/stl_algo.h **** 		      _Compare __comp)
1793:/Library/DaisyToolchain/0.2.0/arm/arm-none-eabi/include/c++/10.3.1/bits/stl_algo.h ****     {
1794:/Library/DaisyToolchain/0.2.0/arm/arm-none-eabi/include/c++/10.3.1/bits/stl_algo.h **** #ifdef _GLIBCXX_CONCEPT_CHECKS
1795:/Library/DaisyToolchain/0.2.0/arm/arm-none-eabi/include/c++/10.3.1/bits/stl_algo.h ****       typedef typename iterator_traits<_InputIterator>::value_type
1796:/Library/DaisyToolchain/0.2.0/arm/arm-none-eabi/include/c++/10.3.1/bits/stl_algo.h **** 	_InputValueType;
1797:/Library/DaisyToolchain/0.2.0/arm/arm-none-eabi/include/c++/10.3.1/bits/stl_algo.h ****       typedef typename iterator_traits<_RandomAccessIterator>::value_type
1798:/Library/DaisyToolchain/0.2.0/arm/arm-none-eabi/include/c++/10.3.1/bits/stl_algo.h **** 	_OutputValueType;
1799:/Library/DaisyToolchain/0.2.0/arm/arm-none-eabi/include/c++/10.3.1/bits/stl_algo.h **** #endif
1800:/Library/DaisyToolchain/0.2.0/arm/arm-none-eabi/include/c++/10.3.1/bits/stl_algo.h **** 
1801:/Library/DaisyToolchain/0.2.0/arm/arm-none-eabi/include/c++/10.3.1/bits/stl_algo.h ****       // concept requirements
1802:/Library/DaisyToolchain/0.2.0/arm/arm-none-eabi/include/c++/10.3.1/bits/stl_algo.h ****       __glibcxx_function_requires(_InputIteratorConcept<_InputIterator>)
1803:/Library/DaisyToolchain/0.2.0/arm/arm-none-eabi/include/c++/10.3.1/bits/stl_algo.h ****       __glibcxx_function_requires(_Mutable_RandomAccessIteratorConcept<
1804:/Library/DaisyToolchain/0.2.0/arm/arm-none-eabi/include/c++/10.3.1/bits/stl_algo.h **** 				  _RandomAccessIterator>)
1805:/Library/DaisyToolchain/0.2.0/arm/arm-none-eabi/include/c++/10.3.1/bits/stl_algo.h ****       __glibcxx_function_requires(_ConvertibleConcept<_InputValueType,
1806:/Library/DaisyToolchain/0.2.0/arm/arm-none-eabi/include/c++/10.3.1/bits/stl_algo.h **** 				  _OutputValueType>)
1807:/Library/DaisyToolchain/0.2.0/arm/arm-none-eabi/include/c++/10.3.1/bits/stl_algo.h ****       __glibcxx_function_requires(_BinaryPredicateConcept<_Compare,
1808:/Library/DaisyToolchain/0.2.0/arm/arm-none-eabi/include/c++/10.3.1/bits/stl_algo.h **** 				  _InputValueType, _OutputValueType>)
1809:/Library/DaisyToolchain/0.2.0/arm/arm-none-eabi/include/c++/10.3.1/bits/stl_algo.h ****       __glibcxx_function_requires(_BinaryPredicateConcept<_Compare,
1810:/Library/DaisyToolchain/0.2.0/arm/arm-none-eabi/include/c++/10.3.1/bits/stl_algo.h **** 				  _OutputValueType, _OutputValueType>)
1811:/Library/DaisyToolchain/0.2.0/arm/arm-none-eabi/include/c++/10.3.1/bits/stl_algo.h ****       __glibcxx_requires_valid_range(__first, __last);
1812:/Library/DaisyToolchain/0.2.0/arm/arm-none-eabi/include/c++/10.3.1/bits/stl_algo.h ****       __glibcxx_requires_irreflexive_pred(__first, __last, __comp);
1813:/Library/DaisyToolchain/0.2.0/arm/arm-none-eabi/include/c++/10.3.1/bits/stl_algo.h ****       __glibcxx_requires_valid_range(__result_first, __result_last);
1814:/Library/DaisyToolchain/0.2.0/arm/arm-none-eabi/include/c++/10.3.1/bits/stl_algo.h **** 
1815:/Library/DaisyToolchain/0.2.0/arm/arm-none-eabi/include/c++/10.3.1/bits/stl_algo.h ****       return std::__partial_sort_copy(__first, __last,
1816:/Library/DaisyToolchain/0.2.0/arm/arm-none-eabi/include/c++/10.3.1/bits/stl_algo.h **** 				      __result_first, __result_last,
1817:/Library/DaisyToolchain/0.2.0/arm/arm-none-eabi/include/c++/10.3.1/bits/stl_algo.h **** 				__gnu_cxx::__ops::__iter_comp_iter(__comp));
1818:/Library/DaisyToolchain/0.2.0/arm/arm-none-eabi/include/c++/10.3.1/bits/stl_algo.h ****     }
1819:/Library/DaisyToolchain/0.2.0/arm/arm-none-eabi/include/c++/10.3.1/bits/stl_algo.h **** 
1820:/Library/DaisyToolchain/0.2.0/arm/arm-none-eabi/include/c++/10.3.1/bits/stl_algo.h ****   /// This is a helper function for the sort routine.
1821:/Library/DaisyToolchain/0.2.0/arm/arm-none-eabi/include/c++/10.3.1/bits/stl_algo.h ****   template<typename _RandomAccessIterator, typename _Compare>
1822:/Library/DaisyToolchain/0.2.0/arm/arm-none-eabi/include/c++/10.3.1/bits/stl_algo.h ****     _GLIBCXX20_CONSTEXPR
1823:/Library/DaisyToolchain/0.2.0/arm/arm-none-eabi/include/c++/10.3.1/bits/stl_algo.h ****     void
ARM GAS  /var/folders/th/s5djnwg15xxc0dk87c413f_h0000gn/T//ccCW3aXI.s 			page 114


1824:/Library/DaisyToolchain/0.2.0/arm/arm-none-eabi/include/c++/10.3.1/bits/stl_algo.h ****     __unguarded_linear_insert(_RandomAccessIterator __last,
1825:/Library/DaisyToolchain/0.2.0/arm/arm-none-eabi/include/c++/10.3.1/bits/stl_algo.h **** 			      _Compare __comp)
1826:/Library/DaisyToolchain/0.2.0/arm/arm-none-eabi/include/c++/10.3.1/bits/stl_algo.h ****     {
1827:/Library/DaisyToolchain/0.2.0/arm/arm-none-eabi/include/c++/10.3.1/bits/stl_algo.h ****       typename iterator_traits<_RandomAccessIterator>::value_type
1828:/Library/DaisyToolchain/0.2.0/arm/arm-none-eabi/include/c++/10.3.1/bits/stl_algo.h **** 	__val = _GLIBCXX_MOVE(*__last);
1829:/Library/DaisyToolchain/0.2.0/arm/arm-none-eabi/include/c++/10.3.1/bits/stl_algo.h ****       _RandomAccessIterator __next = __last;
1830:/Library/DaisyToolchain/0.2.0/arm/arm-none-eabi/include/c++/10.3.1/bits/stl_algo.h ****       --__next;
1831:/Library/DaisyToolchain/0.2.0/arm/arm-none-eabi/include/c++/10.3.1/bits/stl_algo.h ****       while (__comp(__val, __next))
1832:/Library/DaisyToolchain/0.2.0/arm/arm-none-eabi/include/c++/10.3.1/bits/stl_algo.h **** 	{
1833:/Library/DaisyToolchain/0.2.0/arm/arm-none-eabi/include/c++/10.3.1/bits/stl_algo.h **** 	  *__last = _GLIBCXX_MOVE(*__next);
1834:/Library/DaisyToolchain/0.2.0/arm/arm-none-eabi/include/c++/10.3.1/bits/stl_algo.h **** 	  __last = __next;
1835:/Library/DaisyToolchain/0.2.0/arm/arm-none-eabi/include/c++/10.3.1/bits/stl_algo.h **** 	  --__next;
1836:/Library/DaisyToolchain/0.2.0/arm/arm-none-eabi/include/c++/10.3.1/bits/stl_algo.h **** 	}
1837:/Library/DaisyToolchain/0.2.0/arm/arm-none-eabi/include/c++/10.3.1/bits/stl_algo.h ****       *__last = _GLIBCXX_MOVE(__val);
1838:/Library/DaisyToolchain/0.2.0/arm/arm-none-eabi/include/c++/10.3.1/bits/stl_algo.h ****     }
1839:/Library/DaisyToolchain/0.2.0/arm/arm-none-eabi/include/c++/10.3.1/bits/stl_algo.h **** 
1840:/Library/DaisyToolchain/0.2.0/arm/arm-none-eabi/include/c++/10.3.1/bits/stl_algo.h ****   /// This is a helper function for the sort routine.
1841:/Library/DaisyToolchain/0.2.0/arm/arm-none-eabi/include/c++/10.3.1/bits/stl_algo.h ****   template<typename _RandomAccessIterator, typename _Compare>
1842:/Library/DaisyToolchain/0.2.0/arm/arm-none-eabi/include/c++/10.3.1/bits/stl_algo.h ****     _GLIBCXX20_CONSTEXPR
1843:/Library/DaisyToolchain/0.2.0/arm/arm-none-eabi/include/c++/10.3.1/bits/stl_algo.h ****     void
1844:/Library/DaisyToolchain/0.2.0/arm/arm-none-eabi/include/c++/10.3.1/bits/stl_algo.h ****     __insertion_sort(_RandomAccessIterator __first,
1845:/Library/DaisyToolchain/0.2.0/arm/arm-none-eabi/include/c++/10.3.1/bits/stl_algo.h **** 		     _RandomAccessIterator __last, _Compare __comp)
1846:/Library/DaisyToolchain/0.2.0/arm/arm-none-eabi/include/c++/10.3.1/bits/stl_algo.h ****     {
1847:/Library/DaisyToolchain/0.2.0/arm/arm-none-eabi/include/c++/10.3.1/bits/stl_algo.h ****       if (__first == __last) return;
1848:/Library/DaisyToolchain/0.2.0/arm/arm-none-eabi/include/c++/10.3.1/bits/stl_algo.h **** 
1849:/Library/DaisyToolchain/0.2.0/arm/arm-none-eabi/include/c++/10.3.1/bits/stl_algo.h ****       for (_RandomAccessIterator __i = __first + 1; __i != __last; ++__i)
1850:/Library/DaisyToolchain/0.2.0/arm/arm-none-eabi/include/c++/10.3.1/bits/stl_algo.h **** 	{
1851:/Library/DaisyToolchain/0.2.0/arm/arm-none-eabi/include/c++/10.3.1/bits/stl_algo.h **** 	  if (__comp(__i, __first))
1852:/Library/DaisyToolchain/0.2.0/arm/arm-none-eabi/include/c++/10.3.1/bits/stl_algo.h **** 	    {
1853:/Library/DaisyToolchain/0.2.0/arm/arm-none-eabi/include/c++/10.3.1/bits/stl_algo.h **** 	      typename iterator_traits<_RandomAccessIterator>::value_type
1854:/Library/DaisyToolchain/0.2.0/arm/arm-none-eabi/include/c++/10.3.1/bits/stl_algo.h **** 		__val = _GLIBCXX_MOVE(*__i);
1855:/Library/DaisyToolchain/0.2.0/arm/arm-none-eabi/include/c++/10.3.1/bits/stl_algo.h **** 	      _GLIBCXX_MOVE_BACKWARD3(__first, __i, __i + 1);
1856:/Library/DaisyToolchain/0.2.0/arm/arm-none-eabi/include/c++/10.3.1/bits/stl_algo.h **** 	      *__first = _GLIBCXX_MOVE(__val);
1857:/Library/DaisyToolchain/0.2.0/arm/arm-none-eabi/include/c++/10.3.1/bits/stl_algo.h **** 	    }
1858:/Library/DaisyToolchain/0.2.0/arm/arm-none-eabi/include/c++/10.3.1/bits/stl_algo.h **** 	  else
1859:/Library/DaisyToolchain/0.2.0/arm/arm-none-eabi/include/c++/10.3.1/bits/stl_algo.h **** 	    std::__unguarded_linear_insert(__i,
1860:/Library/DaisyToolchain/0.2.0/arm/arm-none-eabi/include/c++/10.3.1/bits/stl_algo.h **** 				__gnu_cxx::__ops::__val_comp_iter(__comp));
1861:/Library/DaisyToolchain/0.2.0/arm/arm-none-eabi/include/c++/10.3.1/bits/stl_algo.h **** 	}
1862:/Library/DaisyToolchain/0.2.0/arm/arm-none-eabi/include/c++/10.3.1/bits/stl_algo.h ****     }
1863:/Library/DaisyToolchain/0.2.0/arm/arm-none-eabi/include/c++/10.3.1/bits/stl_algo.h **** 
1864:/Library/DaisyToolchain/0.2.0/arm/arm-none-eabi/include/c++/10.3.1/bits/stl_algo.h ****   /// This is a helper function for the sort routine.
1865:/Library/DaisyToolchain/0.2.0/arm/arm-none-eabi/include/c++/10.3.1/bits/stl_algo.h ****   template<typename _RandomAccessIterator, typename _Compare>
1866:/Library/DaisyToolchain/0.2.0/arm/arm-none-eabi/include/c++/10.3.1/bits/stl_algo.h ****     _GLIBCXX20_CONSTEXPR
1867:/Library/DaisyToolchain/0.2.0/arm/arm-none-eabi/include/c++/10.3.1/bits/stl_algo.h ****     inline void
1868:/Library/DaisyToolchain/0.2.0/arm/arm-none-eabi/include/c++/10.3.1/bits/stl_algo.h ****     __unguarded_insertion_sort(_RandomAccessIterator __first,
1869:/Library/DaisyToolchain/0.2.0/arm/arm-none-eabi/include/c++/10.3.1/bits/stl_algo.h **** 			       _RandomAccessIterator __last, _Compare __comp)
1870:/Library/DaisyToolchain/0.2.0/arm/arm-none-eabi/include/c++/10.3.1/bits/stl_algo.h ****     {
1871:/Library/DaisyToolchain/0.2.0/arm/arm-none-eabi/include/c++/10.3.1/bits/stl_algo.h ****       for (_RandomAccessIterator __i = __first; __i != __last; ++__i)
1872:/Library/DaisyToolchain/0.2.0/arm/arm-none-eabi/include/c++/10.3.1/bits/stl_algo.h **** 	std::__unguarded_linear_insert(__i,
1873:/Library/DaisyToolchain/0.2.0/arm/arm-none-eabi/include/c++/10.3.1/bits/stl_algo.h **** 				__gnu_cxx::__ops::__val_comp_iter(__comp));
1874:/Library/DaisyToolchain/0.2.0/arm/arm-none-eabi/include/c++/10.3.1/bits/stl_algo.h ****     }
1875:/Library/DaisyToolchain/0.2.0/arm/arm-none-eabi/include/c++/10.3.1/bits/stl_algo.h **** 
1876:/Library/DaisyToolchain/0.2.0/arm/arm-none-eabi/include/c++/10.3.1/bits/stl_algo.h ****   /**
1877:/Library/DaisyToolchain/0.2.0/arm/arm-none-eabi/include/c++/10.3.1/bits/stl_algo.h ****    *  @doctodo
1878:/Library/DaisyToolchain/0.2.0/arm/arm-none-eabi/include/c++/10.3.1/bits/stl_algo.h ****    *  This controls some aspect of the sort routines.
1879:/Library/DaisyToolchain/0.2.0/arm/arm-none-eabi/include/c++/10.3.1/bits/stl_algo.h ****   */
1880:/Library/DaisyToolchain/0.2.0/arm/arm-none-eabi/include/c++/10.3.1/bits/stl_algo.h ****   enum { _S_threshold = 16 };
ARM GAS  /var/folders/th/s5djnwg15xxc0dk87c413f_h0000gn/T//ccCW3aXI.s 			page 115


1881:/Library/DaisyToolchain/0.2.0/arm/arm-none-eabi/include/c++/10.3.1/bits/stl_algo.h **** 
1882:/Library/DaisyToolchain/0.2.0/arm/arm-none-eabi/include/c++/10.3.1/bits/stl_algo.h ****   /// This is a helper function for the sort routine.
1883:/Library/DaisyToolchain/0.2.0/arm/arm-none-eabi/include/c++/10.3.1/bits/stl_algo.h ****   template<typename _RandomAccessIterator, typename _Compare>
1884:/Library/DaisyToolchain/0.2.0/arm/arm-none-eabi/include/c++/10.3.1/bits/stl_algo.h ****     _GLIBCXX20_CONSTEXPR
1885:/Library/DaisyToolchain/0.2.0/arm/arm-none-eabi/include/c++/10.3.1/bits/stl_algo.h ****     void
1886:/Library/DaisyToolchain/0.2.0/arm/arm-none-eabi/include/c++/10.3.1/bits/stl_algo.h ****     __final_insertion_sort(_RandomAccessIterator __first,
1887:/Library/DaisyToolchain/0.2.0/arm/arm-none-eabi/include/c++/10.3.1/bits/stl_algo.h **** 			   _RandomAccessIterator __last, _Compare __comp)
1888:/Library/DaisyToolchain/0.2.0/arm/arm-none-eabi/include/c++/10.3.1/bits/stl_algo.h ****     {
1889:/Library/DaisyToolchain/0.2.0/arm/arm-none-eabi/include/c++/10.3.1/bits/stl_algo.h ****       if (__last - __first > int(_S_threshold))
1890:/Library/DaisyToolchain/0.2.0/arm/arm-none-eabi/include/c++/10.3.1/bits/stl_algo.h **** 	{
1891:/Library/DaisyToolchain/0.2.0/arm/arm-none-eabi/include/c++/10.3.1/bits/stl_algo.h **** 	  std::__insertion_sort(__first, __first + int(_S_threshold), __comp);
1892:/Library/DaisyToolchain/0.2.0/arm/arm-none-eabi/include/c++/10.3.1/bits/stl_algo.h **** 	  std::__unguarded_insertion_sort(__first + int(_S_threshold), __last,
1893:/Library/DaisyToolchain/0.2.0/arm/arm-none-eabi/include/c++/10.3.1/bits/stl_algo.h **** 					  __comp);
1894:/Library/DaisyToolchain/0.2.0/arm/arm-none-eabi/include/c++/10.3.1/bits/stl_algo.h **** 	}
1895:/Library/DaisyToolchain/0.2.0/arm/arm-none-eabi/include/c++/10.3.1/bits/stl_algo.h ****       else
1896:/Library/DaisyToolchain/0.2.0/arm/arm-none-eabi/include/c++/10.3.1/bits/stl_algo.h **** 	std::__insertion_sort(__first, __last, __comp);
1897:/Library/DaisyToolchain/0.2.0/arm/arm-none-eabi/include/c++/10.3.1/bits/stl_algo.h ****     }
1898:/Library/DaisyToolchain/0.2.0/arm/arm-none-eabi/include/c++/10.3.1/bits/stl_algo.h **** 
1899:/Library/DaisyToolchain/0.2.0/arm/arm-none-eabi/include/c++/10.3.1/bits/stl_algo.h ****   /// This is a helper function...
1900:/Library/DaisyToolchain/0.2.0/arm/arm-none-eabi/include/c++/10.3.1/bits/stl_algo.h ****   template<typename _RandomAccessIterator, typename _Compare>
1901:/Library/DaisyToolchain/0.2.0/arm/arm-none-eabi/include/c++/10.3.1/bits/stl_algo.h ****     _GLIBCXX20_CONSTEXPR
1902:/Library/DaisyToolchain/0.2.0/arm/arm-none-eabi/include/c++/10.3.1/bits/stl_algo.h ****     _RandomAccessIterator
1903:/Library/DaisyToolchain/0.2.0/arm/arm-none-eabi/include/c++/10.3.1/bits/stl_algo.h ****     __unguarded_partition(_RandomAccessIterator __first,
1904:/Library/DaisyToolchain/0.2.0/arm/arm-none-eabi/include/c++/10.3.1/bits/stl_algo.h **** 			  _RandomAccessIterator __last,
1905:/Library/DaisyToolchain/0.2.0/arm/arm-none-eabi/include/c++/10.3.1/bits/stl_algo.h **** 			  _RandomAccessIterator __pivot, _Compare __comp)
1906:/Library/DaisyToolchain/0.2.0/arm/arm-none-eabi/include/c++/10.3.1/bits/stl_algo.h ****     {
1907:/Library/DaisyToolchain/0.2.0/arm/arm-none-eabi/include/c++/10.3.1/bits/stl_algo.h ****       while (true)
1908:/Library/DaisyToolchain/0.2.0/arm/arm-none-eabi/include/c++/10.3.1/bits/stl_algo.h **** 	{
1909:/Library/DaisyToolchain/0.2.0/arm/arm-none-eabi/include/c++/10.3.1/bits/stl_algo.h **** 	  while (__comp(__first, __pivot))
1910:/Library/DaisyToolchain/0.2.0/arm/arm-none-eabi/include/c++/10.3.1/bits/stl_algo.h **** 	    ++__first;
1911:/Library/DaisyToolchain/0.2.0/arm/arm-none-eabi/include/c++/10.3.1/bits/stl_algo.h **** 	  --__last;
1912:/Library/DaisyToolchain/0.2.0/arm/arm-none-eabi/include/c++/10.3.1/bits/stl_algo.h **** 	  while (__comp(__pivot, __last))
1913:/Library/DaisyToolchain/0.2.0/arm/arm-none-eabi/include/c++/10.3.1/bits/stl_algo.h **** 	    --__last;
1914:/Library/DaisyToolchain/0.2.0/arm/arm-none-eabi/include/c++/10.3.1/bits/stl_algo.h **** 	  if (!(__first < __last))
1915:/Library/DaisyToolchain/0.2.0/arm/arm-none-eabi/include/c++/10.3.1/bits/stl_algo.h **** 	    return __first;
1916:/Library/DaisyToolchain/0.2.0/arm/arm-none-eabi/include/c++/10.3.1/bits/stl_algo.h **** 	  std::iter_swap(__first, __last);
1917:/Library/DaisyToolchain/0.2.0/arm/arm-none-eabi/include/c++/10.3.1/bits/stl_algo.h **** 	  ++__first;
1918:/Library/DaisyToolchain/0.2.0/arm/arm-none-eabi/include/c++/10.3.1/bits/stl_algo.h **** 	}
1919:/Library/DaisyToolchain/0.2.0/arm/arm-none-eabi/include/c++/10.3.1/bits/stl_algo.h ****     }
1920:/Library/DaisyToolchain/0.2.0/arm/arm-none-eabi/include/c++/10.3.1/bits/stl_algo.h **** 
1921:/Library/DaisyToolchain/0.2.0/arm/arm-none-eabi/include/c++/10.3.1/bits/stl_algo.h ****   /// This is a helper function...
1922:/Library/DaisyToolchain/0.2.0/arm/arm-none-eabi/include/c++/10.3.1/bits/stl_algo.h ****   template<typename _RandomAccessIterator, typename _Compare>
1923:/Library/DaisyToolchain/0.2.0/arm/arm-none-eabi/include/c++/10.3.1/bits/stl_algo.h ****     _GLIBCXX20_CONSTEXPR
1924:/Library/DaisyToolchain/0.2.0/arm/arm-none-eabi/include/c++/10.3.1/bits/stl_algo.h ****     inline _RandomAccessIterator
1925:/Library/DaisyToolchain/0.2.0/arm/arm-none-eabi/include/c++/10.3.1/bits/stl_algo.h ****     __unguarded_partition_pivot(_RandomAccessIterator __first,
1926:/Library/DaisyToolchain/0.2.0/arm/arm-none-eabi/include/c++/10.3.1/bits/stl_algo.h **** 				_RandomAccessIterator __last, _Compare __comp)
1927:/Library/DaisyToolchain/0.2.0/arm/arm-none-eabi/include/c++/10.3.1/bits/stl_algo.h ****     {
1928:/Library/DaisyToolchain/0.2.0/arm/arm-none-eabi/include/c++/10.3.1/bits/stl_algo.h ****       _RandomAccessIterator __mid = __first + (__last - __first) / 2;
1929:/Library/DaisyToolchain/0.2.0/arm/arm-none-eabi/include/c++/10.3.1/bits/stl_algo.h ****       std::__move_median_to_first(__first, __first + 1, __mid, __last - 1,
1930:/Library/DaisyToolchain/0.2.0/arm/arm-none-eabi/include/c++/10.3.1/bits/stl_algo.h **** 				  __comp);
1931:/Library/DaisyToolchain/0.2.0/arm/arm-none-eabi/include/c++/10.3.1/bits/stl_algo.h ****       return std::__unguarded_partition(__first + 1, __last, __first, __comp);
1932:/Library/DaisyToolchain/0.2.0/arm/arm-none-eabi/include/c++/10.3.1/bits/stl_algo.h ****     }
1933:/Library/DaisyToolchain/0.2.0/arm/arm-none-eabi/include/c++/10.3.1/bits/stl_algo.h **** 
1934:/Library/DaisyToolchain/0.2.0/arm/arm-none-eabi/include/c++/10.3.1/bits/stl_algo.h ****   template<typename _RandomAccessIterator, typename _Compare>
1935:/Library/DaisyToolchain/0.2.0/arm/arm-none-eabi/include/c++/10.3.1/bits/stl_algo.h ****     _GLIBCXX20_CONSTEXPR
1936:/Library/DaisyToolchain/0.2.0/arm/arm-none-eabi/include/c++/10.3.1/bits/stl_algo.h ****     inline void
1937:/Library/DaisyToolchain/0.2.0/arm/arm-none-eabi/include/c++/10.3.1/bits/stl_algo.h ****     __partial_sort(_RandomAccessIterator __first,
ARM GAS  /var/folders/th/s5djnwg15xxc0dk87c413f_h0000gn/T//ccCW3aXI.s 			page 116


1938:/Library/DaisyToolchain/0.2.0/arm/arm-none-eabi/include/c++/10.3.1/bits/stl_algo.h **** 		   _RandomAccessIterator __middle,
1939:/Library/DaisyToolchain/0.2.0/arm/arm-none-eabi/include/c++/10.3.1/bits/stl_algo.h **** 		   _RandomAccessIterator __last,
1940:/Library/DaisyToolchain/0.2.0/arm/arm-none-eabi/include/c++/10.3.1/bits/stl_algo.h **** 		   _Compare __comp)
1941:/Library/DaisyToolchain/0.2.0/arm/arm-none-eabi/include/c++/10.3.1/bits/stl_algo.h ****     {
1942:/Library/DaisyToolchain/0.2.0/arm/arm-none-eabi/include/c++/10.3.1/bits/stl_algo.h ****       std::__heap_select(__first, __middle, __last, __comp);
1943:/Library/DaisyToolchain/0.2.0/arm/arm-none-eabi/include/c++/10.3.1/bits/stl_algo.h ****       std::__sort_heap(__first, __middle, __comp);
1944:/Library/DaisyToolchain/0.2.0/arm/arm-none-eabi/include/c++/10.3.1/bits/stl_algo.h ****     }
1945:/Library/DaisyToolchain/0.2.0/arm/arm-none-eabi/include/c++/10.3.1/bits/stl_algo.h **** 
1946:/Library/DaisyToolchain/0.2.0/arm/arm-none-eabi/include/c++/10.3.1/bits/stl_algo.h ****   /// This is a helper function for the sort routine.
1947:/Library/DaisyToolchain/0.2.0/arm/arm-none-eabi/include/c++/10.3.1/bits/stl_algo.h ****   template<typename _RandomAccessIterator, typename _Size, typename _Compare>
1948:/Library/DaisyToolchain/0.2.0/arm/arm-none-eabi/include/c++/10.3.1/bits/stl_algo.h ****     _GLIBCXX20_CONSTEXPR
1949:/Library/DaisyToolchain/0.2.0/arm/arm-none-eabi/include/c++/10.3.1/bits/stl_algo.h ****     void
1950:/Library/DaisyToolchain/0.2.0/arm/arm-none-eabi/include/c++/10.3.1/bits/stl_algo.h ****     __introsort_loop(_RandomAccessIterator __first,
1951:/Library/DaisyToolchain/0.2.0/arm/arm-none-eabi/include/c++/10.3.1/bits/stl_algo.h **** 		     _RandomAccessIterator __last,
1952:/Library/DaisyToolchain/0.2.0/arm/arm-none-eabi/include/c++/10.3.1/bits/stl_algo.h **** 		     _Size __depth_limit, _Compare __comp)
1953:/Library/DaisyToolchain/0.2.0/arm/arm-none-eabi/include/c++/10.3.1/bits/stl_algo.h ****     {
1954:/Library/DaisyToolchain/0.2.0/arm/arm-none-eabi/include/c++/10.3.1/bits/stl_algo.h ****       while (__last - __first > int(_S_threshold))
1955:/Library/DaisyToolchain/0.2.0/arm/arm-none-eabi/include/c++/10.3.1/bits/stl_algo.h **** 	{
1956:/Library/DaisyToolchain/0.2.0/arm/arm-none-eabi/include/c++/10.3.1/bits/stl_algo.h **** 	  if (__depth_limit == 0)
1957:/Library/DaisyToolchain/0.2.0/arm/arm-none-eabi/include/c++/10.3.1/bits/stl_algo.h **** 	    {
1958:/Library/DaisyToolchain/0.2.0/arm/arm-none-eabi/include/c++/10.3.1/bits/stl_algo.h **** 	      std::__partial_sort(__first, __last, __last, __comp);
1959:/Library/DaisyToolchain/0.2.0/arm/arm-none-eabi/include/c++/10.3.1/bits/stl_algo.h **** 	      return;
1960:/Library/DaisyToolchain/0.2.0/arm/arm-none-eabi/include/c++/10.3.1/bits/stl_algo.h **** 	    }
1961:/Library/DaisyToolchain/0.2.0/arm/arm-none-eabi/include/c++/10.3.1/bits/stl_algo.h **** 	  --__depth_limit;
1962:/Library/DaisyToolchain/0.2.0/arm/arm-none-eabi/include/c++/10.3.1/bits/stl_algo.h **** 	  _RandomAccessIterator __cut =
1963:/Library/DaisyToolchain/0.2.0/arm/arm-none-eabi/include/c++/10.3.1/bits/stl_algo.h **** 	    std::__unguarded_partition_pivot(__first, __last, __comp);
1964:/Library/DaisyToolchain/0.2.0/arm/arm-none-eabi/include/c++/10.3.1/bits/stl_algo.h **** 	  std::__introsort_loop(__cut, __last, __depth_limit, __comp);
1965:/Library/DaisyToolchain/0.2.0/arm/arm-none-eabi/include/c++/10.3.1/bits/stl_algo.h **** 	  __last = __cut;
1966:/Library/DaisyToolchain/0.2.0/arm/arm-none-eabi/include/c++/10.3.1/bits/stl_algo.h **** 	}
1967:/Library/DaisyToolchain/0.2.0/arm/arm-none-eabi/include/c++/10.3.1/bits/stl_algo.h ****     }
1968:/Library/DaisyToolchain/0.2.0/arm/arm-none-eabi/include/c++/10.3.1/bits/stl_algo.h **** 
1969:/Library/DaisyToolchain/0.2.0/arm/arm-none-eabi/include/c++/10.3.1/bits/stl_algo.h ****   // sort
1970:/Library/DaisyToolchain/0.2.0/arm/arm-none-eabi/include/c++/10.3.1/bits/stl_algo.h **** 
1971:/Library/DaisyToolchain/0.2.0/arm/arm-none-eabi/include/c++/10.3.1/bits/stl_algo.h ****   template<typename _RandomAccessIterator, typename _Compare>
1972:/Library/DaisyToolchain/0.2.0/arm/arm-none-eabi/include/c++/10.3.1/bits/stl_algo.h ****     _GLIBCXX20_CONSTEXPR
1973:/Library/DaisyToolchain/0.2.0/arm/arm-none-eabi/include/c++/10.3.1/bits/stl_algo.h ****     inline void
1974:/Library/DaisyToolchain/0.2.0/arm/arm-none-eabi/include/c++/10.3.1/bits/stl_algo.h ****     __sort(_RandomAccessIterator __first, _RandomAccessIterator __last,
1975:/Library/DaisyToolchain/0.2.0/arm/arm-none-eabi/include/c++/10.3.1/bits/stl_algo.h **** 	   _Compare __comp)
1976:/Library/DaisyToolchain/0.2.0/arm/arm-none-eabi/include/c++/10.3.1/bits/stl_algo.h ****     {
1977:/Library/DaisyToolchain/0.2.0/arm/arm-none-eabi/include/c++/10.3.1/bits/stl_algo.h ****       if (__first != __last)
1978:/Library/DaisyToolchain/0.2.0/arm/arm-none-eabi/include/c++/10.3.1/bits/stl_algo.h **** 	{
1979:/Library/DaisyToolchain/0.2.0/arm/arm-none-eabi/include/c++/10.3.1/bits/stl_algo.h **** 	  std::__introsort_loop(__first, __last,
1980:/Library/DaisyToolchain/0.2.0/arm/arm-none-eabi/include/c++/10.3.1/bits/stl_algo.h **** 				std::__lg(__last - __first) * 2,
1981:/Library/DaisyToolchain/0.2.0/arm/arm-none-eabi/include/c++/10.3.1/bits/stl_algo.h **** 				__comp);
1982:/Library/DaisyToolchain/0.2.0/arm/arm-none-eabi/include/c++/10.3.1/bits/stl_algo.h **** 	  std::__final_insertion_sort(__first, __last, __comp);
1983:/Library/DaisyToolchain/0.2.0/arm/arm-none-eabi/include/c++/10.3.1/bits/stl_algo.h **** 	}
1984:/Library/DaisyToolchain/0.2.0/arm/arm-none-eabi/include/c++/10.3.1/bits/stl_algo.h ****     }
1985:/Library/DaisyToolchain/0.2.0/arm/arm-none-eabi/include/c++/10.3.1/bits/stl_algo.h **** 
1986:/Library/DaisyToolchain/0.2.0/arm/arm-none-eabi/include/c++/10.3.1/bits/stl_algo.h ****   template<typename _RandomAccessIterator, typename _Size, typename _Compare>
1987:/Library/DaisyToolchain/0.2.0/arm/arm-none-eabi/include/c++/10.3.1/bits/stl_algo.h ****     _GLIBCXX20_CONSTEXPR
1988:/Library/DaisyToolchain/0.2.0/arm/arm-none-eabi/include/c++/10.3.1/bits/stl_algo.h ****     void
1989:/Library/DaisyToolchain/0.2.0/arm/arm-none-eabi/include/c++/10.3.1/bits/stl_algo.h ****     __introselect(_RandomAccessIterator __first, _RandomAccessIterator __nth,
1990:/Library/DaisyToolchain/0.2.0/arm/arm-none-eabi/include/c++/10.3.1/bits/stl_algo.h **** 		  _RandomAccessIterator __last, _Size __depth_limit,
1991:/Library/DaisyToolchain/0.2.0/arm/arm-none-eabi/include/c++/10.3.1/bits/stl_algo.h **** 		  _Compare __comp)
1992:/Library/DaisyToolchain/0.2.0/arm/arm-none-eabi/include/c++/10.3.1/bits/stl_algo.h ****     {
1993:/Library/DaisyToolchain/0.2.0/arm/arm-none-eabi/include/c++/10.3.1/bits/stl_algo.h ****       while (__last - __first > 3)
1994:/Library/DaisyToolchain/0.2.0/arm/arm-none-eabi/include/c++/10.3.1/bits/stl_algo.h **** 	{
ARM GAS  /var/folders/th/s5djnwg15xxc0dk87c413f_h0000gn/T//ccCW3aXI.s 			page 117


1995:/Library/DaisyToolchain/0.2.0/arm/arm-none-eabi/include/c++/10.3.1/bits/stl_algo.h **** 	  if (__depth_limit == 0)
1996:/Library/DaisyToolchain/0.2.0/arm/arm-none-eabi/include/c++/10.3.1/bits/stl_algo.h **** 	    {
1997:/Library/DaisyToolchain/0.2.0/arm/arm-none-eabi/include/c++/10.3.1/bits/stl_algo.h **** 	      std::__heap_select(__first, __nth + 1, __last, __comp);
1998:/Library/DaisyToolchain/0.2.0/arm/arm-none-eabi/include/c++/10.3.1/bits/stl_algo.h **** 	      // Place the nth largest element in its final position.
1999:/Library/DaisyToolchain/0.2.0/arm/arm-none-eabi/include/c++/10.3.1/bits/stl_algo.h **** 	      std::iter_swap(__first, __nth);
2000:/Library/DaisyToolchain/0.2.0/arm/arm-none-eabi/include/c++/10.3.1/bits/stl_algo.h **** 	      return;
2001:/Library/DaisyToolchain/0.2.0/arm/arm-none-eabi/include/c++/10.3.1/bits/stl_algo.h **** 	    }
2002:/Library/DaisyToolchain/0.2.0/arm/arm-none-eabi/include/c++/10.3.1/bits/stl_algo.h **** 	  --__depth_limit;
2003:/Library/DaisyToolchain/0.2.0/arm/arm-none-eabi/include/c++/10.3.1/bits/stl_algo.h **** 	  _RandomAccessIterator __cut =
2004:/Library/DaisyToolchain/0.2.0/arm/arm-none-eabi/include/c++/10.3.1/bits/stl_algo.h **** 	    std::__unguarded_partition_pivot(__first, __last, __comp);
2005:/Library/DaisyToolchain/0.2.0/arm/arm-none-eabi/include/c++/10.3.1/bits/stl_algo.h **** 	  if (__cut <= __nth)
2006:/Library/DaisyToolchain/0.2.0/arm/arm-none-eabi/include/c++/10.3.1/bits/stl_algo.h **** 	    __first = __cut;
2007:/Library/DaisyToolchain/0.2.0/arm/arm-none-eabi/include/c++/10.3.1/bits/stl_algo.h **** 	  else
2008:/Library/DaisyToolchain/0.2.0/arm/arm-none-eabi/include/c++/10.3.1/bits/stl_algo.h **** 	    __last = __cut;
2009:/Library/DaisyToolchain/0.2.0/arm/arm-none-eabi/include/c++/10.3.1/bits/stl_algo.h **** 	}
2010:/Library/DaisyToolchain/0.2.0/arm/arm-none-eabi/include/c++/10.3.1/bits/stl_algo.h ****       std::__insertion_sort(__first, __last, __comp);
2011:/Library/DaisyToolchain/0.2.0/arm/arm-none-eabi/include/c++/10.3.1/bits/stl_algo.h ****     }
2012:/Library/DaisyToolchain/0.2.0/arm/arm-none-eabi/include/c++/10.3.1/bits/stl_algo.h **** 
2013:/Library/DaisyToolchain/0.2.0/arm/arm-none-eabi/include/c++/10.3.1/bits/stl_algo.h ****   // nth_element
2014:/Library/DaisyToolchain/0.2.0/arm/arm-none-eabi/include/c++/10.3.1/bits/stl_algo.h **** 
2015:/Library/DaisyToolchain/0.2.0/arm/arm-none-eabi/include/c++/10.3.1/bits/stl_algo.h ****   // lower_bound moved to stl_algobase.h
2016:/Library/DaisyToolchain/0.2.0/arm/arm-none-eabi/include/c++/10.3.1/bits/stl_algo.h **** 
2017:/Library/DaisyToolchain/0.2.0/arm/arm-none-eabi/include/c++/10.3.1/bits/stl_algo.h ****   /**
2018:/Library/DaisyToolchain/0.2.0/arm/arm-none-eabi/include/c++/10.3.1/bits/stl_algo.h ****    *  @brief Finds the first position in which @p __val could be inserted
2019:/Library/DaisyToolchain/0.2.0/arm/arm-none-eabi/include/c++/10.3.1/bits/stl_algo.h ****    *         without changing the ordering.
2020:/Library/DaisyToolchain/0.2.0/arm/arm-none-eabi/include/c++/10.3.1/bits/stl_algo.h ****    *  @ingroup binary_search_algorithms
2021:/Library/DaisyToolchain/0.2.0/arm/arm-none-eabi/include/c++/10.3.1/bits/stl_algo.h ****    *  @param  __first   An iterator.
2022:/Library/DaisyToolchain/0.2.0/arm/arm-none-eabi/include/c++/10.3.1/bits/stl_algo.h ****    *  @param  __last    Another iterator.
2023:/Library/DaisyToolchain/0.2.0/arm/arm-none-eabi/include/c++/10.3.1/bits/stl_algo.h ****    *  @param  __val     The search term.
2024:/Library/DaisyToolchain/0.2.0/arm/arm-none-eabi/include/c++/10.3.1/bits/stl_algo.h ****    *  @param  __comp    A functor to use for comparisons.
2025:/Library/DaisyToolchain/0.2.0/arm/arm-none-eabi/include/c++/10.3.1/bits/stl_algo.h ****    *  @return An iterator pointing to the first element <em>not less
2026:/Library/DaisyToolchain/0.2.0/arm/arm-none-eabi/include/c++/10.3.1/bits/stl_algo.h ****    *           than</em> @p __val, or end() if every element is less
2027:/Library/DaisyToolchain/0.2.0/arm/arm-none-eabi/include/c++/10.3.1/bits/stl_algo.h ****    *           than @p __val.
2028:/Library/DaisyToolchain/0.2.0/arm/arm-none-eabi/include/c++/10.3.1/bits/stl_algo.h ****    *  @ingroup binary_search_algorithms
2029:/Library/DaisyToolchain/0.2.0/arm/arm-none-eabi/include/c++/10.3.1/bits/stl_algo.h ****    *
2030:/Library/DaisyToolchain/0.2.0/arm/arm-none-eabi/include/c++/10.3.1/bits/stl_algo.h ****    *  The comparison function should have the same effects on ordering as
2031:/Library/DaisyToolchain/0.2.0/arm/arm-none-eabi/include/c++/10.3.1/bits/stl_algo.h ****    *  the function used for the initial sort.
2032:/Library/DaisyToolchain/0.2.0/arm/arm-none-eabi/include/c++/10.3.1/bits/stl_algo.h ****   */
2033:/Library/DaisyToolchain/0.2.0/arm/arm-none-eabi/include/c++/10.3.1/bits/stl_algo.h ****   template<typename _ForwardIterator, typename _Tp, typename _Compare>
2034:/Library/DaisyToolchain/0.2.0/arm/arm-none-eabi/include/c++/10.3.1/bits/stl_algo.h ****     _GLIBCXX20_CONSTEXPR
2035:/Library/DaisyToolchain/0.2.0/arm/arm-none-eabi/include/c++/10.3.1/bits/stl_algo.h ****     inline _ForwardIterator
2036:/Library/DaisyToolchain/0.2.0/arm/arm-none-eabi/include/c++/10.3.1/bits/stl_algo.h ****     lower_bound(_ForwardIterator __first, _ForwardIterator __last,
2037:/Library/DaisyToolchain/0.2.0/arm/arm-none-eabi/include/c++/10.3.1/bits/stl_algo.h **** 		const _Tp& __val, _Compare __comp)
2038:/Library/DaisyToolchain/0.2.0/arm/arm-none-eabi/include/c++/10.3.1/bits/stl_algo.h ****     {
2039:/Library/DaisyToolchain/0.2.0/arm/arm-none-eabi/include/c++/10.3.1/bits/stl_algo.h ****       // concept requirements
2040:/Library/DaisyToolchain/0.2.0/arm/arm-none-eabi/include/c++/10.3.1/bits/stl_algo.h ****       __glibcxx_function_requires(_ForwardIteratorConcept<_ForwardIterator>)
2041:/Library/DaisyToolchain/0.2.0/arm/arm-none-eabi/include/c++/10.3.1/bits/stl_algo.h ****       __glibcxx_function_requires(_BinaryPredicateConcept<_Compare,
2042:/Library/DaisyToolchain/0.2.0/arm/arm-none-eabi/include/c++/10.3.1/bits/stl_algo.h **** 	typename iterator_traits<_ForwardIterator>::value_type, _Tp>)
2043:/Library/DaisyToolchain/0.2.0/arm/arm-none-eabi/include/c++/10.3.1/bits/stl_algo.h ****       __glibcxx_requires_partitioned_lower_pred(__first, __last,
2044:/Library/DaisyToolchain/0.2.0/arm/arm-none-eabi/include/c++/10.3.1/bits/stl_algo.h **** 						__val, __comp);
2045:/Library/DaisyToolchain/0.2.0/arm/arm-none-eabi/include/c++/10.3.1/bits/stl_algo.h **** 
2046:/Library/DaisyToolchain/0.2.0/arm/arm-none-eabi/include/c++/10.3.1/bits/stl_algo.h ****       return std::__lower_bound(__first, __last, __val,
2047:/Library/DaisyToolchain/0.2.0/arm/arm-none-eabi/include/c++/10.3.1/bits/stl_algo.h **** 				__gnu_cxx::__ops::__iter_comp_val(__comp));
2048:/Library/DaisyToolchain/0.2.0/arm/arm-none-eabi/include/c++/10.3.1/bits/stl_algo.h ****     }
2049:/Library/DaisyToolchain/0.2.0/arm/arm-none-eabi/include/c++/10.3.1/bits/stl_algo.h **** 
2050:/Library/DaisyToolchain/0.2.0/arm/arm-none-eabi/include/c++/10.3.1/bits/stl_algo.h ****   template<typename _ForwardIterator, typename _Tp, typename _Compare>
2051:/Library/DaisyToolchain/0.2.0/arm/arm-none-eabi/include/c++/10.3.1/bits/stl_algo.h ****     _GLIBCXX20_CONSTEXPR
ARM GAS  /var/folders/th/s5djnwg15xxc0dk87c413f_h0000gn/T//ccCW3aXI.s 			page 118


2052:/Library/DaisyToolchain/0.2.0/arm/arm-none-eabi/include/c++/10.3.1/bits/stl_algo.h ****     _ForwardIterator
2053:/Library/DaisyToolchain/0.2.0/arm/arm-none-eabi/include/c++/10.3.1/bits/stl_algo.h ****     __upper_bound(_ForwardIterator __first, _ForwardIterator __last,
2054:/Library/DaisyToolchain/0.2.0/arm/arm-none-eabi/include/c++/10.3.1/bits/stl_algo.h **** 		  const _Tp& __val, _Compare __comp)
2055:/Library/DaisyToolchain/0.2.0/arm/arm-none-eabi/include/c++/10.3.1/bits/stl_algo.h ****     {
2056:/Library/DaisyToolchain/0.2.0/arm/arm-none-eabi/include/c++/10.3.1/bits/stl_algo.h ****       typedef typename iterator_traits<_ForwardIterator>::difference_type
2057:/Library/DaisyToolchain/0.2.0/arm/arm-none-eabi/include/c++/10.3.1/bits/stl_algo.h **** 	_DistanceType;
2058:/Library/DaisyToolchain/0.2.0/arm/arm-none-eabi/include/c++/10.3.1/bits/stl_algo.h **** 
2059:/Library/DaisyToolchain/0.2.0/arm/arm-none-eabi/include/c++/10.3.1/bits/stl_algo.h ****       _DistanceType __len = std::distance(__first, __last);
2060:/Library/DaisyToolchain/0.2.0/arm/arm-none-eabi/include/c++/10.3.1/bits/stl_algo.h **** 
2061:/Library/DaisyToolchain/0.2.0/arm/arm-none-eabi/include/c++/10.3.1/bits/stl_algo.h ****       while (__len > 0)
2062:/Library/DaisyToolchain/0.2.0/arm/arm-none-eabi/include/c++/10.3.1/bits/stl_algo.h **** 	{
2063:/Library/DaisyToolchain/0.2.0/arm/arm-none-eabi/include/c++/10.3.1/bits/stl_algo.h **** 	  _DistanceType __half = __len >> 1;
2064:/Library/DaisyToolchain/0.2.0/arm/arm-none-eabi/include/c++/10.3.1/bits/stl_algo.h **** 	  _ForwardIterator __middle = __first;
2065:/Library/DaisyToolchain/0.2.0/arm/arm-none-eabi/include/c++/10.3.1/bits/stl_algo.h **** 	  std::advance(__middle, __half);
2066:/Library/DaisyToolchain/0.2.0/arm/arm-none-eabi/include/c++/10.3.1/bits/stl_algo.h **** 	  if (__comp(__val, __middle))
2067:/Library/DaisyToolchain/0.2.0/arm/arm-none-eabi/include/c++/10.3.1/bits/stl_algo.h **** 	    __len = __half;
2068:/Library/DaisyToolchain/0.2.0/arm/arm-none-eabi/include/c++/10.3.1/bits/stl_algo.h **** 	  else
2069:/Library/DaisyToolchain/0.2.0/arm/arm-none-eabi/include/c++/10.3.1/bits/stl_algo.h **** 	    {
2070:/Library/DaisyToolchain/0.2.0/arm/arm-none-eabi/include/c++/10.3.1/bits/stl_algo.h **** 	      __first = __middle;
2071:/Library/DaisyToolchain/0.2.0/arm/arm-none-eabi/include/c++/10.3.1/bits/stl_algo.h **** 	      ++__first;
2072:/Library/DaisyToolchain/0.2.0/arm/arm-none-eabi/include/c++/10.3.1/bits/stl_algo.h **** 	      __len = __len - __half - 1;
2073:/Library/DaisyToolchain/0.2.0/arm/arm-none-eabi/include/c++/10.3.1/bits/stl_algo.h **** 	    }
2074:/Library/DaisyToolchain/0.2.0/arm/arm-none-eabi/include/c++/10.3.1/bits/stl_algo.h **** 	}
2075:/Library/DaisyToolchain/0.2.0/arm/arm-none-eabi/include/c++/10.3.1/bits/stl_algo.h ****       return __first;
2076:/Library/DaisyToolchain/0.2.0/arm/arm-none-eabi/include/c++/10.3.1/bits/stl_algo.h ****     }
2077:/Library/DaisyToolchain/0.2.0/arm/arm-none-eabi/include/c++/10.3.1/bits/stl_algo.h **** 
2078:/Library/DaisyToolchain/0.2.0/arm/arm-none-eabi/include/c++/10.3.1/bits/stl_algo.h ****   /**
2079:/Library/DaisyToolchain/0.2.0/arm/arm-none-eabi/include/c++/10.3.1/bits/stl_algo.h ****    *  @brief Finds the last position in which @p __val could be inserted
2080:/Library/DaisyToolchain/0.2.0/arm/arm-none-eabi/include/c++/10.3.1/bits/stl_algo.h ****    *         without changing the ordering.
2081:/Library/DaisyToolchain/0.2.0/arm/arm-none-eabi/include/c++/10.3.1/bits/stl_algo.h ****    *  @ingroup binary_search_algorithms
2082:/Library/DaisyToolchain/0.2.0/arm/arm-none-eabi/include/c++/10.3.1/bits/stl_algo.h ****    *  @param  __first   An iterator.
2083:/Library/DaisyToolchain/0.2.0/arm/arm-none-eabi/include/c++/10.3.1/bits/stl_algo.h ****    *  @param  __last    Another iterator.
2084:/Library/DaisyToolchain/0.2.0/arm/arm-none-eabi/include/c++/10.3.1/bits/stl_algo.h ****    *  @param  __val     The search term.
2085:/Library/DaisyToolchain/0.2.0/arm/arm-none-eabi/include/c++/10.3.1/bits/stl_algo.h ****    *  @return  An iterator pointing to the first element greater than @p __val,
2086:/Library/DaisyToolchain/0.2.0/arm/arm-none-eabi/include/c++/10.3.1/bits/stl_algo.h ****    *           or end() if no elements are greater than @p __val.
2087:/Library/DaisyToolchain/0.2.0/arm/arm-none-eabi/include/c++/10.3.1/bits/stl_algo.h ****    *  @ingroup binary_search_algorithms
2088:/Library/DaisyToolchain/0.2.0/arm/arm-none-eabi/include/c++/10.3.1/bits/stl_algo.h ****   */
2089:/Library/DaisyToolchain/0.2.0/arm/arm-none-eabi/include/c++/10.3.1/bits/stl_algo.h ****   template<typename _ForwardIterator, typename _Tp>
2090:/Library/DaisyToolchain/0.2.0/arm/arm-none-eabi/include/c++/10.3.1/bits/stl_algo.h ****     _GLIBCXX20_CONSTEXPR
2091:/Library/DaisyToolchain/0.2.0/arm/arm-none-eabi/include/c++/10.3.1/bits/stl_algo.h ****     inline _ForwardIterator
2092:/Library/DaisyToolchain/0.2.0/arm/arm-none-eabi/include/c++/10.3.1/bits/stl_algo.h ****     upper_bound(_ForwardIterator __first, _ForwardIterator __last,
2093:/Library/DaisyToolchain/0.2.0/arm/arm-none-eabi/include/c++/10.3.1/bits/stl_algo.h **** 		const _Tp& __val)
2094:/Library/DaisyToolchain/0.2.0/arm/arm-none-eabi/include/c++/10.3.1/bits/stl_algo.h ****     {
2095:/Library/DaisyToolchain/0.2.0/arm/arm-none-eabi/include/c++/10.3.1/bits/stl_algo.h ****       // concept requirements
2096:/Library/DaisyToolchain/0.2.0/arm/arm-none-eabi/include/c++/10.3.1/bits/stl_algo.h ****       __glibcxx_function_requires(_ForwardIteratorConcept<_ForwardIterator>)
2097:/Library/DaisyToolchain/0.2.0/arm/arm-none-eabi/include/c++/10.3.1/bits/stl_algo.h ****       __glibcxx_function_requires(_LessThanOpConcept<
2098:/Library/DaisyToolchain/0.2.0/arm/arm-none-eabi/include/c++/10.3.1/bits/stl_algo.h **** 	_Tp, typename iterator_traits<_ForwardIterator>::value_type>)
2099:/Library/DaisyToolchain/0.2.0/arm/arm-none-eabi/include/c++/10.3.1/bits/stl_algo.h ****       __glibcxx_requires_partitioned_upper(__first, __last, __val);
2100:/Library/DaisyToolchain/0.2.0/arm/arm-none-eabi/include/c++/10.3.1/bits/stl_algo.h **** 
2101:/Library/DaisyToolchain/0.2.0/arm/arm-none-eabi/include/c++/10.3.1/bits/stl_algo.h ****       return std::__upper_bound(__first, __last, __val,
2102:/Library/DaisyToolchain/0.2.0/arm/arm-none-eabi/include/c++/10.3.1/bits/stl_algo.h **** 				__gnu_cxx::__ops::__val_less_iter());
2103:/Library/DaisyToolchain/0.2.0/arm/arm-none-eabi/include/c++/10.3.1/bits/stl_algo.h ****     }
2104:/Library/DaisyToolchain/0.2.0/arm/arm-none-eabi/include/c++/10.3.1/bits/stl_algo.h **** 
2105:/Library/DaisyToolchain/0.2.0/arm/arm-none-eabi/include/c++/10.3.1/bits/stl_algo.h ****   /**
2106:/Library/DaisyToolchain/0.2.0/arm/arm-none-eabi/include/c++/10.3.1/bits/stl_algo.h ****    *  @brief Finds the last position in which @p __val could be inserted
2107:/Library/DaisyToolchain/0.2.0/arm/arm-none-eabi/include/c++/10.3.1/bits/stl_algo.h ****    *         without changing the ordering.
2108:/Library/DaisyToolchain/0.2.0/arm/arm-none-eabi/include/c++/10.3.1/bits/stl_algo.h ****    *  @ingroup binary_search_algorithms
ARM GAS  /var/folders/th/s5djnwg15xxc0dk87c413f_h0000gn/T//ccCW3aXI.s 			page 119


2109:/Library/DaisyToolchain/0.2.0/arm/arm-none-eabi/include/c++/10.3.1/bits/stl_algo.h ****    *  @param  __first   An iterator.
2110:/Library/DaisyToolchain/0.2.0/arm/arm-none-eabi/include/c++/10.3.1/bits/stl_algo.h ****    *  @param  __last    Another iterator.
2111:/Library/DaisyToolchain/0.2.0/arm/arm-none-eabi/include/c++/10.3.1/bits/stl_algo.h ****    *  @param  __val     The search term.
2112:/Library/DaisyToolchain/0.2.0/arm/arm-none-eabi/include/c++/10.3.1/bits/stl_algo.h ****    *  @param  __comp    A functor to use for comparisons.
2113:/Library/DaisyToolchain/0.2.0/arm/arm-none-eabi/include/c++/10.3.1/bits/stl_algo.h ****    *  @return  An iterator pointing to the first element greater than @p __val,
2114:/Library/DaisyToolchain/0.2.0/arm/arm-none-eabi/include/c++/10.3.1/bits/stl_algo.h ****    *           or end() if no elements are greater than @p __val.
2115:/Library/DaisyToolchain/0.2.0/arm/arm-none-eabi/include/c++/10.3.1/bits/stl_algo.h ****    *  @ingroup binary_search_algorithms
2116:/Library/DaisyToolchain/0.2.0/arm/arm-none-eabi/include/c++/10.3.1/bits/stl_algo.h ****    *
2117:/Library/DaisyToolchain/0.2.0/arm/arm-none-eabi/include/c++/10.3.1/bits/stl_algo.h ****    *  The comparison function should have the same effects on ordering as
2118:/Library/DaisyToolchain/0.2.0/arm/arm-none-eabi/include/c++/10.3.1/bits/stl_algo.h ****    *  the function used for the initial sort.
2119:/Library/DaisyToolchain/0.2.0/arm/arm-none-eabi/include/c++/10.3.1/bits/stl_algo.h ****   */
2120:/Library/DaisyToolchain/0.2.0/arm/arm-none-eabi/include/c++/10.3.1/bits/stl_algo.h ****   template<typename _ForwardIterator, typename _Tp, typename _Compare>
2121:/Library/DaisyToolchain/0.2.0/arm/arm-none-eabi/include/c++/10.3.1/bits/stl_algo.h ****     _GLIBCXX20_CONSTEXPR
2122:/Library/DaisyToolchain/0.2.0/arm/arm-none-eabi/include/c++/10.3.1/bits/stl_algo.h ****     inline _ForwardIterator
2123:/Library/DaisyToolchain/0.2.0/arm/arm-none-eabi/include/c++/10.3.1/bits/stl_algo.h ****     upper_bound(_ForwardIterator __first, _ForwardIterator __last,
2124:/Library/DaisyToolchain/0.2.0/arm/arm-none-eabi/include/c++/10.3.1/bits/stl_algo.h **** 		const _Tp& __val, _Compare __comp)
2125:/Library/DaisyToolchain/0.2.0/arm/arm-none-eabi/include/c++/10.3.1/bits/stl_algo.h ****     {
2126:/Library/DaisyToolchain/0.2.0/arm/arm-none-eabi/include/c++/10.3.1/bits/stl_algo.h ****       // concept requirements
2127:/Library/DaisyToolchain/0.2.0/arm/arm-none-eabi/include/c++/10.3.1/bits/stl_algo.h ****       __glibcxx_function_requires(_ForwardIteratorConcept<_ForwardIterator>)
2128:/Library/DaisyToolchain/0.2.0/arm/arm-none-eabi/include/c++/10.3.1/bits/stl_algo.h ****       __glibcxx_function_requires(_BinaryPredicateConcept<_Compare,
2129:/Library/DaisyToolchain/0.2.0/arm/arm-none-eabi/include/c++/10.3.1/bits/stl_algo.h **** 	_Tp, typename iterator_traits<_ForwardIterator>::value_type>)
2130:/Library/DaisyToolchain/0.2.0/arm/arm-none-eabi/include/c++/10.3.1/bits/stl_algo.h ****       __glibcxx_requires_partitioned_upper_pred(__first, __last,
2131:/Library/DaisyToolchain/0.2.0/arm/arm-none-eabi/include/c++/10.3.1/bits/stl_algo.h **** 						__val, __comp);
2132:/Library/DaisyToolchain/0.2.0/arm/arm-none-eabi/include/c++/10.3.1/bits/stl_algo.h **** 
2133:/Library/DaisyToolchain/0.2.0/arm/arm-none-eabi/include/c++/10.3.1/bits/stl_algo.h ****       return std::__upper_bound(__first, __last, __val,
2134:/Library/DaisyToolchain/0.2.0/arm/arm-none-eabi/include/c++/10.3.1/bits/stl_algo.h **** 				__gnu_cxx::__ops::__val_comp_iter(__comp));
2135:/Library/DaisyToolchain/0.2.0/arm/arm-none-eabi/include/c++/10.3.1/bits/stl_algo.h ****     }
2136:/Library/DaisyToolchain/0.2.0/arm/arm-none-eabi/include/c++/10.3.1/bits/stl_algo.h **** 
2137:/Library/DaisyToolchain/0.2.0/arm/arm-none-eabi/include/c++/10.3.1/bits/stl_algo.h ****   template<typename _ForwardIterator, typename _Tp,
2138:/Library/DaisyToolchain/0.2.0/arm/arm-none-eabi/include/c++/10.3.1/bits/stl_algo.h **** 	   typename _CompareItTp, typename _CompareTpIt>
2139:/Library/DaisyToolchain/0.2.0/arm/arm-none-eabi/include/c++/10.3.1/bits/stl_algo.h ****     _GLIBCXX20_CONSTEXPR
2140:/Library/DaisyToolchain/0.2.0/arm/arm-none-eabi/include/c++/10.3.1/bits/stl_algo.h ****     pair<_ForwardIterator, _ForwardIterator>
2141:/Library/DaisyToolchain/0.2.0/arm/arm-none-eabi/include/c++/10.3.1/bits/stl_algo.h ****     __equal_range(_ForwardIterator __first, _ForwardIterator __last,
2142:/Library/DaisyToolchain/0.2.0/arm/arm-none-eabi/include/c++/10.3.1/bits/stl_algo.h **** 		  const _Tp& __val,
2143:/Library/DaisyToolchain/0.2.0/arm/arm-none-eabi/include/c++/10.3.1/bits/stl_algo.h **** 		  _CompareItTp __comp_it_val, _CompareTpIt __comp_val_it)
2144:/Library/DaisyToolchain/0.2.0/arm/arm-none-eabi/include/c++/10.3.1/bits/stl_algo.h ****     {
2145:/Library/DaisyToolchain/0.2.0/arm/arm-none-eabi/include/c++/10.3.1/bits/stl_algo.h ****       typedef typename iterator_traits<_ForwardIterator>::difference_type
2146:/Library/DaisyToolchain/0.2.0/arm/arm-none-eabi/include/c++/10.3.1/bits/stl_algo.h **** 	_DistanceType;
2147:/Library/DaisyToolchain/0.2.0/arm/arm-none-eabi/include/c++/10.3.1/bits/stl_algo.h **** 
2148:/Library/DaisyToolchain/0.2.0/arm/arm-none-eabi/include/c++/10.3.1/bits/stl_algo.h ****       _DistanceType __len = std::distance(__first, __last);
2149:/Library/DaisyToolchain/0.2.0/arm/arm-none-eabi/include/c++/10.3.1/bits/stl_algo.h **** 
2150:/Library/DaisyToolchain/0.2.0/arm/arm-none-eabi/include/c++/10.3.1/bits/stl_algo.h ****       while (__len > 0)
2151:/Library/DaisyToolchain/0.2.0/arm/arm-none-eabi/include/c++/10.3.1/bits/stl_algo.h **** 	{
2152:/Library/DaisyToolchain/0.2.0/arm/arm-none-eabi/include/c++/10.3.1/bits/stl_algo.h **** 	  _DistanceType __half = __len >> 1;
2153:/Library/DaisyToolchain/0.2.0/arm/arm-none-eabi/include/c++/10.3.1/bits/stl_algo.h **** 	  _ForwardIterator __middle = __first;
2154:/Library/DaisyToolchain/0.2.0/arm/arm-none-eabi/include/c++/10.3.1/bits/stl_algo.h **** 	  std::advance(__middle, __half);
2155:/Library/DaisyToolchain/0.2.0/arm/arm-none-eabi/include/c++/10.3.1/bits/stl_algo.h **** 	  if (__comp_it_val(__middle, __val))
2156:/Library/DaisyToolchain/0.2.0/arm/arm-none-eabi/include/c++/10.3.1/bits/stl_algo.h **** 	    {
2157:/Library/DaisyToolchain/0.2.0/arm/arm-none-eabi/include/c++/10.3.1/bits/stl_algo.h **** 	      __first = __middle;
2158:/Library/DaisyToolchain/0.2.0/arm/arm-none-eabi/include/c++/10.3.1/bits/stl_algo.h **** 	      ++__first;
2159:/Library/DaisyToolchain/0.2.0/arm/arm-none-eabi/include/c++/10.3.1/bits/stl_algo.h **** 	      __len = __len - __half - 1;
2160:/Library/DaisyToolchain/0.2.0/arm/arm-none-eabi/include/c++/10.3.1/bits/stl_algo.h **** 	    }
2161:/Library/DaisyToolchain/0.2.0/arm/arm-none-eabi/include/c++/10.3.1/bits/stl_algo.h **** 	  else if (__comp_val_it(__val, __middle))
2162:/Library/DaisyToolchain/0.2.0/arm/arm-none-eabi/include/c++/10.3.1/bits/stl_algo.h **** 	    __len = __half;
2163:/Library/DaisyToolchain/0.2.0/arm/arm-none-eabi/include/c++/10.3.1/bits/stl_algo.h **** 	  else
2164:/Library/DaisyToolchain/0.2.0/arm/arm-none-eabi/include/c++/10.3.1/bits/stl_algo.h **** 	    {
2165:/Library/DaisyToolchain/0.2.0/arm/arm-none-eabi/include/c++/10.3.1/bits/stl_algo.h **** 	      _ForwardIterator __left
ARM GAS  /var/folders/th/s5djnwg15xxc0dk87c413f_h0000gn/T//ccCW3aXI.s 			page 120


2166:/Library/DaisyToolchain/0.2.0/arm/arm-none-eabi/include/c++/10.3.1/bits/stl_algo.h **** 		= std::__lower_bound(__first, __middle, __val, __comp_it_val);
2167:/Library/DaisyToolchain/0.2.0/arm/arm-none-eabi/include/c++/10.3.1/bits/stl_algo.h **** 	      std::advance(__first, __len);
2168:/Library/DaisyToolchain/0.2.0/arm/arm-none-eabi/include/c++/10.3.1/bits/stl_algo.h **** 	      _ForwardIterator __right
2169:/Library/DaisyToolchain/0.2.0/arm/arm-none-eabi/include/c++/10.3.1/bits/stl_algo.h **** 		= std::__upper_bound(++__middle, __first, __val, __comp_val_it);
2170:/Library/DaisyToolchain/0.2.0/arm/arm-none-eabi/include/c++/10.3.1/bits/stl_algo.h **** 	      return pair<_ForwardIterator, _ForwardIterator>(__left, __right);
2171:/Library/DaisyToolchain/0.2.0/arm/arm-none-eabi/include/c++/10.3.1/bits/stl_algo.h **** 	    }
2172:/Library/DaisyToolchain/0.2.0/arm/arm-none-eabi/include/c++/10.3.1/bits/stl_algo.h **** 	}
2173:/Library/DaisyToolchain/0.2.0/arm/arm-none-eabi/include/c++/10.3.1/bits/stl_algo.h ****       return pair<_ForwardIterator, _ForwardIterator>(__first, __first);
2174:/Library/DaisyToolchain/0.2.0/arm/arm-none-eabi/include/c++/10.3.1/bits/stl_algo.h ****     }
2175:/Library/DaisyToolchain/0.2.0/arm/arm-none-eabi/include/c++/10.3.1/bits/stl_algo.h **** 
2176:/Library/DaisyToolchain/0.2.0/arm/arm-none-eabi/include/c++/10.3.1/bits/stl_algo.h ****   /**
2177:/Library/DaisyToolchain/0.2.0/arm/arm-none-eabi/include/c++/10.3.1/bits/stl_algo.h ****    *  @brief Finds the largest subrange in which @p __val could be inserted
2178:/Library/DaisyToolchain/0.2.0/arm/arm-none-eabi/include/c++/10.3.1/bits/stl_algo.h ****    *         at any place in it without changing the ordering.
2179:/Library/DaisyToolchain/0.2.0/arm/arm-none-eabi/include/c++/10.3.1/bits/stl_algo.h ****    *  @ingroup binary_search_algorithms
2180:/Library/DaisyToolchain/0.2.0/arm/arm-none-eabi/include/c++/10.3.1/bits/stl_algo.h ****    *  @param  __first   An iterator.
2181:/Library/DaisyToolchain/0.2.0/arm/arm-none-eabi/include/c++/10.3.1/bits/stl_algo.h ****    *  @param  __last    Another iterator.
2182:/Library/DaisyToolchain/0.2.0/arm/arm-none-eabi/include/c++/10.3.1/bits/stl_algo.h ****    *  @param  __val     The search term.
2183:/Library/DaisyToolchain/0.2.0/arm/arm-none-eabi/include/c++/10.3.1/bits/stl_algo.h ****    *  @return  An pair of iterators defining the subrange.
2184:/Library/DaisyToolchain/0.2.0/arm/arm-none-eabi/include/c++/10.3.1/bits/stl_algo.h ****    *  @ingroup binary_search_algorithms
2185:/Library/DaisyToolchain/0.2.0/arm/arm-none-eabi/include/c++/10.3.1/bits/stl_algo.h ****    *
2186:/Library/DaisyToolchain/0.2.0/arm/arm-none-eabi/include/c++/10.3.1/bits/stl_algo.h ****    *  This is equivalent to
2187:/Library/DaisyToolchain/0.2.0/arm/arm-none-eabi/include/c++/10.3.1/bits/stl_algo.h ****    *  @code
2188:/Library/DaisyToolchain/0.2.0/arm/arm-none-eabi/include/c++/10.3.1/bits/stl_algo.h ****    *    std::make_pair(lower_bound(__first, __last, __val),
2189:/Library/DaisyToolchain/0.2.0/arm/arm-none-eabi/include/c++/10.3.1/bits/stl_algo.h ****    *                   upper_bound(__first, __last, __val))
2190:/Library/DaisyToolchain/0.2.0/arm/arm-none-eabi/include/c++/10.3.1/bits/stl_algo.h ****    *  @endcode
2191:/Library/DaisyToolchain/0.2.0/arm/arm-none-eabi/include/c++/10.3.1/bits/stl_algo.h ****    *  but does not actually call those functions.
2192:/Library/DaisyToolchain/0.2.0/arm/arm-none-eabi/include/c++/10.3.1/bits/stl_algo.h ****   */
2193:/Library/DaisyToolchain/0.2.0/arm/arm-none-eabi/include/c++/10.3.1/bits/stl_algo.h ****   template<typename _ForwardIterator, typename _Tp>
2194:/Library/DaisyToolchain/0.2.0/arm/arm-none-eabi/include/c++/10.3.1/bits/stl_algo.h ****     _GLIBCXX20_CONSTEXPR
2195:/Library/DaisyToolchain/0.2.0/arm/arm-none-eabi/include/c++/10.3.1/bits/stl_algo.h ****     inline pair<_ForwardIterator, _ForwardIterator>
2196:/Library/DaisyToolchain/0.2.0/arm/arm-none-eabi/include/c++/10.3.1/bits/stl_algo.h ****     equal_range(_ForwardIterator __first, _ForwardIterator __last,
2197:/Library/DaisyToolchain/0.2.0/arm/arm-none-eabi/include/c++/10.3.1/bits/stl_algo.h **** 		const _Tp& __val)
2198:/Library/DaisyToolchain/0.2.0/arm/arm-none-eabi/include/c++/10.3.1/bits/stl_algo.h ****     {
2199:/Library/DaisyToolchain/0.2.0/arm/arm-none-eabi/include/c++/10.3.1/bits/stl_algo.h ****       // concept requirements
2200:/Library/DaisyToolchain/0.2.0/arm/arm-none-eabi/include/c++/10.3.1/bits/stl_algo.h ****       __glibcxx_function_requires(_ForwardIteratorConcept<_ForwardIterator>)
2201:/Library/DaisyToolchain/0.2.0/arm/arm-none-eabi/include/c++/10.3.1/bits/stl_algo.h ****       __glibcxx_function_requires(_LessThanOpConcept<
2202:/Library/DaisyToolchain/0.2.0/arm/arm-none-eabi/include/c++/10.3.1/bits/stl_algo.h **** 	typename iterator_traits<_ForwardIterator>::value_type, _Tp>)
2203:/Library/DaisyToolchain/0.2.0/arm/arm-none-eabi/include/c++/10.3.1/bits/stl_algo.h ****       __glibcxx_function_requires(_LessThanOpConcept<
2204:/Library/DaisyToolchain/0.2.0/arm/arm-none-eabi/include/c++/10.3.1/bits/stl_algo.h **** 	_Tp, typename iterator_traits<_ForwardIterator>::value_type>)
2205:/Library/DaisyToolchain/0.2.0/arm/arm-none-eabi/include/c++/10.3.1/bits/stl_algo.h ****       __glibcxx_requires_partitioned_lower(__first, __last, __val);
2206:/Library/DaisyToolchain/0.2.0/arm/arm-none-eabi/include/c++/10.3.1/bits/stl_algo.h ****       __glibcxx_requires_partitioned_upper(__first, __last, __val);
2207:/Library/DaisyToolchain/0.2.0/arm/arm-none-eabi/include/c++/10.3.1/bits/stl_algo.h **** 
2208:/Library/DaisyToolchain/0.2.0/arm/arm-none-eabi/include/c++/10.3.1/bits/stl_algo.h ****       return std::__equal_range(__first, __last, __val,
2209:/Library/DaisyToolchain/0.2.0/arm/arm-none-eabi/include/c++/10.3.1/bits/stl_algo.h **** 				__gnu_cxx::__ops::__iter_less_val(),
2210:/Library/DaisyToolchain/0.2.0/arm/arm-none-eabi/include/c++/10.3.1/bits/stl_algo.h **** 				__gnu_cxx::__ops::__val_less_iter());
2211:/Library/DaisyToolchain/0.2.0/arm/arm-none-eabi/include/c++/10.3.1/bits/stl_algo.h ****     }
2212:/Library/DaisyToolchain/0.2.0/arm/arm-none-eabi/include/c++/10.3.1/bits/stl_algo.h **** 
2213:/Library/DaisyToolchain/0.2.0/arm/arm-none-eabi/include/c++/10.3.1/bits/stl_algo.h ****   /**
2214:/Library/DaisyToolchain/0.2.0/arm/arm-none-eabi/include/c++/10.3.1/bits/stl_algo.h ****    *  @brief Finds the largest subrange in which @p __val could be inserted
2215:/Library/DaisyToolchain/0.2.0/arm/arm-none-eabi/include/c++/10.3.1/bits/stl_algo.h ****    *         at any place in it without changing the ordering.
2216:/Library/DaisyToolchain/0.2.0/arm/arm-none-eabi/include/c++/10.3.1/bits/stl_algo.h ****    *  @param  __first   An iterator.
2217:/Library/DaisyToolchain/0.2.0/arm/arm-none-eabi/include/c++/10.3.1/bits/stl_algo.h ****    *  @param  __last    Another iterator.
2218:/Library/DaisyToolchain/0.2.0/arm/arm-none-eabi/include/c++/10.3.1/bits/stl_algo.h ****    *  @param  __val     The search term.
2219:/Library/DaisyToolchain/0.2.0/arm/arm-none-eabi/include/c++/10.3.1/bits/stl_algo.h ****    *  @param  __comp    A functor to use for comparisons.
2220:/Library/DaisyToolchain/0.2.0/arm/arm-none-eabi/include/c++/10.3.1/bits/stl_algo.h ****    *  @return  An pair of iterators defining the subrange.
2221:/Library/DaisyToolchain/0.2.0/arm/arm-none-eabi/include/c++/10.3.1/bits/stl_algo.h ****    *  @ingroup binary_search_algorithms
2222:/Library/DaisyToolchain/0.2.0/arm/arm-none-eabi/include/c++/10.3.1/bits/stl_algo.h ****    *
ARM GAS  /var/folders/th/s5djnwg15xxc0dk87c413f_h0000gn/T//ccCW3aXI.s 			page 121


2223:/Library/DaisyToolchain/0.2.0/arm/arm-none-eabi/include/c++/10.3.1/bits/stl_algo.h ****    *  This is equivalent to
2224:/Library/DaisyToolchain/0.2.0/arm/arm-none-eabi/include/c++/10.3.1/bits/stl_algo.h ****    *  @code
2225:/Library/DaisyToolchain/0.2.0/arm/arm-none-eabi/include/c++/10.3.1/bits/stl_algo.h ****    *    std::make_pair(lower_bound(__first, __last, __val, __comp),
2226:/Library/DaisyToolchain/0.2.0/arm/arm-none-eabi/include/c++/10.3.1/bits/stl_algo.h ****    *                   upper_bound(__first, __last, __val, __comp))
2227:/Library/DaisyToolchain/0.2.0/arm/arm-none-eabi/include/c++/10.3.1/bits/stl_algo.h ****    *  @endcode
2228:/Library/DaisyToolchain/0.2.0/arm/arm-none-eabi/include/c++/10.3.1/bits/stl_algo.h ****    *  but does not actually call those functions.
2229:/Library/DaisyToolchain/0.2.0/arm/arm-none-eabi/include/c++/10.3.1/bits/stl_algo.h ****   */
2230:/Library/DaisyToolchain/0.2.0/arm/arm-none-eabi/include/c++/10.3.1/bits/stl_algo.h ****   template<typename _ForwardIterator, typename _Tp, typename _Compare>
2231:/Library/DaisyToolchain/0.2.0/arm/arm-none-eabi/include/c++/10.3.1/bits/stl_algo.h ****     _GLIBCXX20_CONSTEXPR
2232:/Library/DaisyToolchain/0.2.0/arm/arm-none-eabi/include/c++/10.3.1/bits/stl_algo.h ****     inline pair<_ForwardIterator, _ForwardIterator>
2233:/Library/DaisyToolchain/0.2.0/arm/arm-none-eabi/include/c++/10.3.1/bits/stl_algo.h ****     equal_range(_ForwardIterator __first, _ForwardIterator __last,
2234:/Library/DaisyToolchain/0.2.0/arm/arm-none-eabi/include/c++/10.3.1/bits/stl_algo.h **** 		const _Tp& __val, _Compare __comp)
2235:/Library/DaisyToolchain/0.2.0/arm/arm-none-eabi/include/c++/10.3.1/bits/stl_algo.h ****     {
2236:/Library/DaisyToolchain/0.2.0/arm/arm-none-eabi/include/c++/10.3.1/bits/stl_algo.h ****       // concept requirements
2237:/Library/DaisyToolchain/0.2.0/arm/arm-none-eabi/include/c++/10.3.1/bits/stl_algo.h ****       __glibcxx_function_requires(_ForwardIteratorConcept<_ForwardIterator>)
2238:/Library/DaisyToolchain/0.2.0/arm/arm-none-eabi/include/c++/10.3.1/bits/stl_algo.h ****       __glibcxx_function_requires(_BinaryPredicateConcept<_Compare,
2239:/Library/DaisyToolchain/0.2.0/arm/arm-none-eabi/include/c++/10.3.1/bits/stl_algo.h **** 	typename iterator_traits<_ForwardIterator>::value_type, _Tp>)
2240:/Library/DaisyToolchain/0.2.0/arm/arm-none-eabi/include/c++/10.3.1/bits/stl_algo.h ****       __glibcxx_function_requires(_BinaryPredicateConcept<_Compare,
2241:/Library/DaisyToolchain/0.2.0/arm/arm-none-eabi/include/c++/10.3.1/bits/stl_algo.h **** 	_Tp, typename iterator_traits<_ForwardIterator>::value_type>)
2242:/Library/DaisyToolchain/0.2.0/arm/arm-none-eabi/include/c++/10.3.1/bits/stl_algo.h ****       __glibcxx_requires_partitioned_lower_pred(__first, __last,
2243:/Library/DaisyToolchain/0.2.0/arm/arm-none-eabi/include/c++/10.3.1/bits/stl_algo.h **** 						__val, __comp);
2244:/Library/DaisyToolchain/0.2.0/arm/arm-none-eabi/include/c++/10.3.1/bits/stl_algo.h ****       __glibcxx_requires_partitioned_upper_pred(__first, __last,
2245:/Library/DaisyToolchain/0.2.0/arm/arm-none-eabi/include/c++/10.3.1/bits/stl_algo.h **** 						__val, __comp);
2246:/Library/DaisyToolchain/0.2.0/arm/arm-none-eabi/include/c++/10.3.1/bits/stl_algo.h **** 
2247:/Library/DaisyToolchain/0.2.0/arm/arm-none-eabi/include/c++/10.3.1/bits/stl_algo.h ****       return std::__equal_range(__first, __last, __val,
2248:/Library/DaisyToolchain/0.2.0/arm/arm-none-eabi/include/c++/10.3.1/bits/stl_algo.h **** 				__gnu_cxx::__ops::__iter_comp_val(__comp),
2249:/Library/DaisyToolchain/0.2.0/arm/arm-none-eabi/include/c++/10.3.1/bits/stl_algo.h **** 				__gnu_cxx::__ops::__val_comp_iter(__comp));
2250:/Library/DaisyToolchain/0.2.0/arm/arm-none-eabi/include/c++/10.3.1/bits/stl_algo.h ****     }
2251:/Library/DaisyToolchain/0.2.0/arm/arm-none-eabi/include/c++/10.3.1/bits/stl_algo.h **** 
2252:/Library/DaisyToolchain/0.2.0/arm/arm-none-eabi/include/c++/10.3.1/bits/stl_algo.h ****   /**
2253:/Library/DaisyToolchain/0.2.0/arm/arm-none-eabi/include/c++/10.3.1/bits/stl_algo.h ****    *  @brief Determines whether an element exists in a range.
2254:/Library/DaisyToolchain/0.2.0/arm/arm-none-eabi/include/c++/10.3.1/bits/stl_algo.h ****    *  @ingroup binary_search_algorithms
2255:/Library/DaisyToolchain/0.2.0/arm/arm-none-eabi/include/c++/10.3.1/bits/stl_algo.h ****    *  @param  __first   An iterator.
2256:/Library/DaisyToolchain/0.2.0/arm/arm-none-eabi/include/c++/10.3.1/bits/stl_algo.h ****    *  @param  __last    Another iterator.
2257:/Library/DaisyToolchain/0.2.0/arm/arm-none-eabi/include/c++/10.3.1/bits/stl_algo.h ****    *  @param  __val     The search term.
2258:/Library/DaisyToolchain/0.2.0/arm/arm-none-eabi/include/c++/10.3.1/bits/stl_algo.h ****    *  @return True if @p __val (or its equivalent) is in [@p
2259:/Library/DaisyToolchain/0.2.0/arm/arm-none-eabi/include/c++/10.3.1/bits/stl_algo.h ****    *  __first,@p __last ].
2260:/Library/DaisyToolchain/0.2.0/arm/arm-none-eabi/include/c++/10.3.1/bits/stl_algo.h ****    *
2261:/Library/DaisyToolchain/0.2.0/arm/arm-none-eabi/include/c++/10.3.1/bits/stl_algo.h ****    *  Note that this does not actually return an iterator to @p __val.  For
2262:/Library/DaisyToolchain/0.2.0/arm/arm-none-eabi/include/c++/10.3.1/bits/stl_algo.h ****    *  that, use std::find or a container's specialized find member functions.
2263:/Library/DaisyToolchain/0.2.0/arm/arm-none-eabi/include/c++/10.3.1/bits/stl_algo.h ****   */
2264:/Library/DaisyToolchain/0.2.0/arm/arm-none-eabi/include/c++/10.3.1/bits/stl_algo.h ****   template<typename _ForwardIterator, typename _Tp>
2265:/Library/DaisyToolchain/0.2.0/arm/arm-none-eabi/include/c++/10.3.1/bits/stl_algo.h ****     _GLIBCXX20_CONSTEXPR
2266:/Library/DaisyToolchain/0.2.0/arm/arm-none-eabi/include/c++/10.3.1/bits/stl_algo.h ****     bool
2267:/Library/DaisyToolchain/0.2.0/arm/arm-none-eabi/include/c++/10.3.1/bits/stl_algo.h ****     binary_search(_ForwardIterator __first, _ForwardIterator __last,
2268:/Library/DaisyToolchain/0.2.0/arm/arm-none-eabi/include/c++/10.3.1/bits/stl_algo.h **** 		  const _Tp& __val)
2269:/Library/DaisyToolchain/0.2.0/arm/arm-none-eabi/include/c++/10.3.1/bits/stl_algo.h ****     {
2270:/Library/DaisyToolchain/0.2.0/arm/arm-none-eabi/include/c++/10.3.1/bits/stl_algo.h ****       // concept requirements
2271:/Library/DaisyToolchain/0.2.0/arm/arm-none-eabi/include/c++/10.3.1/bits/stl_algo.h ****       __glibcxx_function_requires(_ForwardIteratorConcept<_ForwardIterator>)
2272:/Library/DaisyToolchain/0.2.0/arm/arm-none-eabi/include/c++/10.3.1/bits/stl_algo.h ****       __glibcxx_function_requires(_LessThanOpConcept<
2273:/Library/DaisyToolchain/0.2.0/arm/arm-none-eabi/include/c++/10.3.1/bits/stl_algo.h **** 	_Tp, typename iterator_traits<_ForwardIterator>::value_type>)
2274:/Library/DaisyToolchain/0.2.0/arm/arm-none-eabi/include/c++/10.3.1/bits/stl_algo.h ****       __glibcxx_requires_partitioned_lower(__first, __last, __val);
2275:/Library/DaisyToolchain/0.2.0/arm/arm-none-eabi/include/c++/10.3.1/bits/stl_algo.h ****       __glibcxx_requires_partitioned_upper(__first, __last, __val);
2276:/Library/DaisyToolchain/0.2.0/arm/arm-none-eabi/include/c++/10.3.1/bits/stl_algo.h **** 
2277:/Library/DaisyToolchain/0.2.0/arm/arm-none-eabi/include/c++/10.3.1/bits/stl_algo.h ****       _ForwardIterator __i
2278:/Library/DaisyToolchain/0.2.0/arm/arm-none-eabi/include/c++/10.3.1/bits/stl_algo.h **** 	= std::__lower_bound(__first, __last, __val,
2279:/Library/DaisyToolchain/0.2.0/arm/arm-none-eabi/include/c++/10.3.1/bits/stl_algo.h **** 			     __gnu_cxx::__ops::__iter_less_val());
ARM GAS  /var/folders/th/s5djnwg15xxc0dk87c413f_h0000gn/T//ccCW3aXI.s 			page 122


2280:/Library/DaisyToolchain/0.2.0/arm/arm-none-eabi/include/c++/10.3.1/bits/stl_algo.h ****       return __i != __last && !(__val < *__i);
2281:/Library/DaisyToolchain/0.2.0/arm/arm-none-eabi/include/c++/10.3.1/bits/stl_algo.h ****     }
2282:/Library/DaisyToolchain/0.2.0/arm/arm-none-eabi/include/c++/10.3.1/bits/stl_algo.h **** 
2283:/Library/DaisyToolchain/0.2.0/arm/arm-none-eabi/include/c++/10.3.1/bits/stl_algo.h ****   /**
2284:/Library/DaisyToolchain/0.2.0/arm/arm-none-eabi/include/c++/10.3.1/bits/stl_algo.h ****    *  @brief Determines whether an element exists in a range.
2285:/Library/DaisyToolchain/0.2.0/arm/arm-none-eabi/include/c++/10.3.1/bits/stl_algo.h ****    *  @ingroup binary_search_algorithms
2286:/Library/DaisyToolchain/0.2.0/arm/arm-none-eabi/include/c++/10.3.1/bits/stl_algo.h ****    *  @param  __first   An iterator.
2287:/Library/DaisyToolchain/0.2.0/arm/arm-none-eabi/include/c++/10.3.1/bits/stl_algo.h ****    *  @param  __last    Another iterator.
2288:/Library/DaisyToolchain/0.2.0/arm/arm-none-eabi/include/c++/10.3.1/bits/stl_algo.h ****    *  @param  __val     The search term.
2289:/Library/DaisyToolchain/0.2.0/arm/arm-none-eabi/include/c++/10.3.1/bits/stl_algo.h ****    *  @param  __comp    A functor to use for comparisons.
2290:/Library/DaisyToolchain/0.2.0/arm/arm-none-eabi/include/c++/10.3.1/bits/stl_algo.h ****    *  @return  True if @p __val (or its equivalent) is in @p [__first,__last].
2291:/Library/DaisyToolchain/0.2.0/arm/arm-none-eabi/include/c++/10.3.1/bits/stl_algo.h ****    *
2292:/Library/DaisyToolchain/0.2.0/arm/arm-none-eabi/include/c++/10.3.1/bits/stl_algo.h ****    *  Note that this does not actually return an iterator to @p __val.  For
2293:/Library/DaisyToolchain/0.2.0/arm/arm-none-eabi/include/c++/10.3.1/bits/stl_algo.h ****    *  that, use std::find or a container's specialized find member functions.
2294:/Library/DaisyToolchain/0.2.0/arm/arm-none-eabi/include/c++/10.3.1/bits/stl_algo.h ****    *
2295:/Library/DaisyToolchain/0.2.0/arm/arm-none-eabi/include/c++/10.3.1/bits/stl_algo.h ****    *  The comparison function should have the same effects on ordering as
2296:/Library/DaisyToolchain/0.2.0/arm/arm-none-eabi/include/c++/10.3.1/bits/stl_algo.h ****    *  the function used for the initial sort.
2297:/Library/DaisyToolchain/0.2.0/arm/arm-none-eabi/include/c++/10.3.1/bits/stl_algo.h ****   */
2298:/Library/DaisyToolchain/0.2.0/arm/arm-none-eabi/include/c++/10.3.1/bits/stl_algo.h ****   template<typename _ForwardIterator, typename _Tp, typename _Compare>
2299:/Library/DaisyToolchain/0.2.0/arm/arm-none-eabi/include/c++/10.3.1/bits/stl_algo.h ****     _GLIBCXX20_CONSTEXPR
2300:/Library/DaisyToolchain/0.2.0/arm/arm-none-eabi/include/c++/10.3.1/bits/stl_algo.h ****     bool
2301:/Library/DaisyToolchain/0.2.0/arm/arm-none-eabi/include/c++/10.3.1/bits/stl_algo.h ****     binary_search(_ForwardIterator __first, _ForwardIterator __last,
2302:/Library/DaisyToolchain/0.2.0/arm/arm-none-eabi/include/c++/10.3.1/bits/stl_algo.h **** 		  const _Tp& __val, _Compare __comp)
2303:/Library/DaisyToolchain/0.2.0/arm/arm-none-eabi/include/c++/10.3.1/bits/stl_algo.h ****     {
2304:/Library/DaisyToolchain/0.2.0/arm/arm-none-eabi/include/c++/10.3.1/bits/stl_algo.h ****       // concept requirements
2305:/Library/DaisyToolchain/0.2.0/arm/arm-none-eabi/include/c++/10.3.1/bits/stl_algo.h ****       __glibcxx_function_requires(_ForwardIteratorConcept<_ForwardIterator>)
2306:/Library/DaisyToolchain/0.2.0/arm/arm-none-eabi/include/c++/10.3.1/bits/stl_algo.h ****       __glibcxx_function_requires(_BinaryPredicateConcept<_Compare,
2307:/Library/DaisyToolchain/0.2.0/arm/arm-none-eabi/include/c++/10.3.1/bits/stl_algo.h **** 	_Tp, typename iterator_traits<_ForwardIterator>::value_type>)
2308:/Library/DaisyToolchain/0.2.0/arm/arm-none-eabi/include/c++/10.3.1/bits/stl_algo.h ****       __glibcxx_requires_partitioned_lower_pred(__first, __last,
2309:/Library/DaisyToolchain/0.2.0/arm/arm-none-eabi/include/c++/10.3.1/bits/stl_algo.h **** 						__val, __comp);
2310:/Library/DaisyToolchain/0.2.0/arm/arm-none-eabi/include/c++/10.3.1/bits/stl_algo.h ****       __glibcxx_requires_partitioned_upper_pred(__first, __last,
2311:/Library/DaisyToolchain/0.2.0/arm/arm-none-eabi/include/c++/10.3.1/bits/stl_algo.h **** 						__val, __comp);
2312:/Library/DaisyToolchain/0.2.0/arm/arm-none-eabi/include/c++/10.3.1/bits/stl_algo.h **** 
2313:/Library/DaisyToolchain/0.2.0/arm/arm-none-eabi/include/c++/10.3.1/bits/stl_algo.h ****       _ForwardIterator __i
2314:/Library/DaisyToolchain/0.2.0/arm/arm-none-eabi/include/c++/10.3.1/bits/stl_algo.h **** 	= std::__lower_bound(__first, __last, __val,
2315:/Library/DaisyToolchain/0.2.0/arm/arm-none-eabi/include/c++/10.3.1/bits/stl_algo.h **** 			     __gnu_cxx::__ops::__iter_comp_val(__comp));
2316:/Library/DaisyToolchain/0.2.0/arm/arm-none-eabi/include/c++/10.3.1/bits/stl_algo.h ****       return __i != __last && !bool(__comp(__val, *__i));
2317:/Library/DaisyToolchain/0.2.0/arm/arm-none-eabi/include/c++/10.3.1/bits/stl_algo.h ****     }
2318:/Library/DaisyToolchain/0.2.0/arm/arm-none-eabi/include/c++/10.3.1/bits/stl_algo.h **** 
2319:/Library/DaisyToolchain/0.2.0/arm/arm-none-eabi/include/c++/10.3.1/bits/stl_algo.h ****   // merge
2320:/Library/DaisyToolchain/0.2.0/arm/arm-none-eabi/include/c++/10.3.1/bits/stl_algo.h **** 
2321:/Library/DaisyToolchain/0.2.0/arm/arm-none-eabi/include/c++/10.3.1/bits/stl_algo.h ****   /// This is a helper function for the __merge_adaptive routines.
2322:/Library/DaisyToolchain/0.2.0/arm/arm-none-eabi/include/c++/10.3.1/bits/stl_algo.h ****   template<typename _InputIterator1, typename _InputIterator2,
2323:/Library/DaisyToolchain/0.2.0/arm/arm-none-eabi/include/c++/10.3.1/bits/stl_algo.h **** 	   typename _OutputIterator, typename _Compare>
2324:/Library/DaisyToolchain/0.2.0/arm/arm-none-eabi/include/c++/10.3.1/bits/stl_algo.h ****     void
2325:/Library/DaisyToolchain/0.2.0/arm/arm-none-eabi/include/c++/10.3.1/bits/stl_algo.h ****     __move_merge_adaptive(_InputIterator1 __first1, _InputIterator1 __last1,
2326:/Library/DaisyToolchain/0.2.0/arm/arm-none-eabi/include/c++/10.3.1/bits/stl_algo.h **** 			  _InputIterator2 __first2, _InputIterator2 __last2,
2327:/Library/DaisyToolchain/0.2.0/arm/arm-none-eabi/include/c++/10.3.1/bits/stl_algo.h **** 			  _OutputIterator __result, _Compare __comp)
2328:/Library/DaisyToolchain/0.2.0/arm/arm-none-eabi/include/c++/10.3.1/bits/stl_algo.h ****     {
2329:/Library/DaisyToolchain/0.2.0/arm/arm-none-eabi/include/c++/10.3.1/bits/stl_algo.h ****       while (__first1 != __last1 && __first2 != __last2)
2330:/Library/DaisyToolchain/0.2.0/arm/arm-none-eabi/include/c++/10.3.1/bits/stl_algo.h **** 	{
2331:/Library/DaisyToolchain/0.2.0/arm/arm-none-eabi/include/c++/10.3.1/bits/stl_algo.h **** 	  if (__comp(__first2, __first1))
2332:/Library/DaisyToolchain/0.2.0/arm/arm-none-eabi/include/c++/10.3.1/bits/stl_algo.h **** 	    {
2333:/Library/DaisyToolchain/0.2.0/arm/arm-none-eabi/include/c++/10.3.1/bits/stl_algo.h **** 	      *__result = _GLIBCXX_MOVE(*__first2);
2334:/Library/DaisyToolchain/0.2.0/arm/arm-none-eabi/include/c++/10.3.1/bits/stl_algo.h **** 	      ++__first2;
2335:/Library/DaisyToolchain/0.2.0/arm/arm-none-eabi/include/c++/10.3.1/bits/stl_algo.h **** 	    }
2336:/Library/DaisyToolchain/0.2.0/arm/arm-none-eabi/include/c++/10.3.1/bits/stl_algo.h **** 	  else
ARM GAS  /var/folders/th/s5djnwg15xxc0dk87c413f_h0000gn/T//ccCW3aXI.s 			page 123


2337:/Library/DaisyToolchain/0.2.0/arm/arm-none-eabi/include/c++/10.3.1/bits/stl_algo.h **** 	    {
2338:/Library/DaisyToolchain/0.2.0/arm/arm-none-eabi/include/c++/10.3.1/bits/stl_algo.h **** 	      *__result = _GLIBCXX_MOVE(*__first1);
2339:/Library/DaisyToolchain/0.2.0/arm/arm-none-eabi/include/c++/10.3.1/bits/stl_algo.h **** 	      ++__first1;
2340:/Library/DaisyToolchain/0.2.0/arm/arm-none-eabi/include/c++/10.3.1/bits/stl_algo.h **** 	    }
2341:/Library/DaisyToolchain/0.2.0/arm/arm-none-eabi/include/c++/10.3.1/bits/stl_algo.h **** 	  ++__result;
2342:/Library/DaisyToolchain/0.2.0/arm/arm-none-eabi/include/c++/10.3.1/bits/stl_algo.h **** 	}
2343:/Library/DaisyToolchain/0.2.0/arm/arm-none-eabi/include/c++/10.3.1/bits/stl_algo.h ****       if (__first1 != __last1)
2344:/Library/DaisyToolchain/0.2.0/arm/arm-none-eabi/include/c++/10.3.1/bits/stl_algo.h **** 	_GLIBCXX_MOVE3(__first1, __last1, __result);
2345:/Library/DaisyToolchain/0.2.0/arm/arm-none-eabi/include/c++/10.3.1/bits/stl_algo.h ****     }
2346:/Library/DaisyToolchain/0.2.0/arm/arm-none-eabi/include/c++/10.3.1/bits/stl_algo.h **** 
2347:/Library/DaisyToolchain/0.2.0/arm/arm-none-eabi/include/c++/10.3.1/bits/stl_algo.h ****   /// This is a helper function for the __merge_adaptive routines.
2348:/Library/DaisyToolchain/0.2.0/arm/arm-none-eabi/include/c++/10.3.1/bits/stl_algo.h ****   template<typename _BidirectionalIterator1, typename _BidirectionalIterator2,
2349:/Library/DaisyToolchain/0.2.0/arm/arm-none-eabi/include/c++/10.3.1/bits/stl_algo.h **** 	   typename _BidirectionalIterator3, typename _Compare>
2350:/Library/DaisyToolchain/0.2.0/arm/arm-none-eabi/include/c++/10.3.1/bits/stl_algo.h ****     void
2351:/Library/DaisyToolchain/0.2.0/arm/arm-none-eabi/include/c++/10.3.1/bits/stl_algo.h ****     __move_merge_adaptive_backward(_BidirectionalIterator1 __first1,
2352:/Library/DaisyToolchain/0.2.0/arm/arm-none-eabi/include/c++/10.3.1/bits/stl_algo.h **** 				   _BidirectionalIterator1 __last1,
2353:/Library/DaisyToolchain/0.2.0/arm/arm-none-eabi/include/c++/10.3.1/bits/stl_algo.h **** 				   _BidirectionalIterator2 __first2,
2354:/Library/DaisyToolchain/0.2.0/arm/arm-none-eabi/include/c++/10.3.1/bits/stl_algo.h **** 				   _BidirectionalIterator2 __last2,
2355:/Library/DaisyToolchain/0.2.0/arm/arm-none-eabi/include/c++/10.3.1/bits/stl_algo.h **** 				   _BidirectionalIterator3 __result,
2356:/Library/DaisyToolchain/0.2.0/arm/arm-none-eabi/include/c++/10.3.1/bits/stl_algo.h **** 				   _Compare __comp)
2357:/Library/DaisyToolchain/0.2.0/arm/arm-none-eabi/include/c++/10.3.1/bits/stl_algo.h ****     {
2358:/Library/DaisyToolchain/0.2.0/arm/arm-none-eabi/include/c++/10.3.1/bits/stl_algo.h ****       if (__first1 == __last1)
2359:/Library/DaisyToolchain/0.2.0/arm/arm-none-eabi/include/c++/10.3.1/bits/stl_algo.h **** 	{
2360:/Library/DaisyToolchain/0.2.0/arm/arm-none-eabi/include/c++/10.3.1/bits/stl_algo.h **** 	  _GLIBCXX_MOVE_BACKWARD3(__first2, __last2, __result);
2361:/Library/DaisyToolchain/0.2.0/arm/arm-none-eabi/include/c++/10.3.1/bits/stl_algo.h **** 	  return;
2362:/Library/DaisyToolchain/0.2.0/arm/arm-none-eabi/include/c++/10.3.1/bits/stl_algo.h **** 	}
2363:/Library/DaisyToolchain/0.2.0/arm/arm-none-eabi/include/c++/10.3.1/bits/stl_algo.h ****       else if (__first2 == __last2)
2364:/Library/DaisyToolchain/0.2.0/arm/arm-none-eabi/include/c++/10.3.1/bits/stl_algo.h **** 	return;
2365:/Library/DaisyToolchain/0.2.0/arm/arm-none-eabi/include/c++/10.3.1/bits/stl_algo.h **** 
2366:/Library/DaisyToolchain/0.2.0/arm/arm-none-eabi/include/c++/10.3.1/bits/stl_algo.h ****       --__last1;
2367:/Library/DaisyToolchain/0.2.0/arm/arm-none-eabi/include/c++/10.3.1/bits/stl_algo.h ****       --__last2;
2368:/Library/DaisyToolchain/0.2.0/arm/arm-none-eabi/include/c++/10.3.1/bits/stl_algo.h ****       while (true)
2369:/Library/DaisyToolchain/0.2.0/arm/arm-none-eabi/include/c++/10.3.1/bits/stl_algo.h **** 	{
2370:/Library/DaisyToolchain/0.2.0/arm/arm-none-eabi/include/c++/10.3.1/bits/stl_algo.h **** 	  if (__comp(__last2, __last1))
2371:/Library/DaisyToolchain/0.2.0/arm/arm-none-eabi/include/c++/10.3.1/bits/stl_algo.h **** 	    {
2372:/Library/DaisyToolchain/0.2.0/arm/arm-none-eabi/include/c++/10.3.1/bits/stl_algo.h **** 	      *--__result = _GLIBCXX_MOVE(*__last1);
2373:/Library/DaisyToolchain/0.2.0/arm/arm-none-eabi/include/c++/10.3.1/bits/stl_algo.h **** 	      if (__first1 == __last1)
2374:/Library/DaisyToolchain/0.2.0/arm/arm-none-eabi/include/c++/10.3.1/bits/stl_algo.h **** 		{
2375:/Library/DaisyToolchain/0.2.0/arm/arm-none-eabi/include/c++/10.3.1/bits/stl_algo.h **** 		  _GLIBCXX_MOVE_BACKWARD3(__first2, ++__last2, __result);
2376:/Library/DaisyToolchain/0.2.0/arm/arm-none-eabi/include/c++/10.3.1/bits/stl_algo.h **** 		  return;
2377:/Library/DaisyToolchain/0.2.0/arm/arm-none-eabi/include/c++/10.3.1/bits/stl_algo.h **** 		}
2378:/Library/DaisyToolchain/0.2.0/arm/arm-none-eabi/include/c++/10.3.1/bits/stl_algo.h **** 	      --__last1;
2379:/Library/DaisyToolchain/0.2.0/arm/arm-none-eabi/include/c++/10.3.1/bits/stl_algo.h **** 	    }
2380:/Library/DaisyToolchain/0.2.0/arm/arm-none-eabi/include/c++/10.3.1/bits/stl_algo.h **** 	  else
2381:/Library/DaisyToolchain/0.2.0/arm/arm-none-eabi/include/c++/10.3.1/bits/stl_algo.h **** 	    {
2382:/Library/DaisyToolchain/0.2.0/arm/arm-none-eabi/include/c++/10.3.1/bits/stl_algo.h **** 	      *--__result = _GLIBCXX_MOVE(*__last2);
2383:/Library/DaisyToolchain/0.2.0/arm/arm-none-eabi/include/c++/10.3.1/bits/stl_algo.h **** 	      if (__first2 == __last2)
2384:/Library/DaisyToolchain/0.2.0/arm/arm-none-eabi/include/c++/10.3.1/bits/stl_algo.h **** 		return;
2385:/Library/DaisyToolchain/0.2.0/arm/arm-none-eabi/include/c++/10.3.1/bits/stl_algo.h **** 	      --__last2;
2386:/Library/DaisyToolchain/0.2.0/arm/arm-none-eabi/include/c++/10.3.1/bits/stl_algo.h **** 	    }
2387:/Library/DaisyToolchain/0.2.0/arm/arm-none-eabi/include/c++/10.3.1/bits/stl_algo.h **** 	}
2388:/Library/DaisyToolchain/0.2.0/arm/arm-none-eabi/include/c++/10.3.1/bits/stl_algo.h ****     }
2389:/Library/DaisyToolchain/0.2.0/arm/arm-none-eabi/include/c++/10.3.1/bits/stl_algo.h **** 
2390:/Library/DaisyToolchain/0.2.0/arm/arm-none-eabi/include/c++/10.3.1/bits/stl_algo.h ****   /// This is a helper function for the merge routines.
2391:/Library/DaisyToolchain/0.2.0/arm/arm-none-eabi/include/c++/10.3.1/bits/stl_algo.h ****   template<typename _BidirectionalIterator1, typename _BidirectionalIterator2,
2392:/Library/DaisyToolchain/0.2.0/arm/arm-none-eabi/include/c++/10.3.1/bits/stl_algo.h **** 	   typename _Distance>
2393:/Library/DaisyToolchain/0.2.0/arm/arm-none-eabi/include/c++/10.3.1/bits/stl_algo.h ****     _BidirectionalIterator1
ARM GAS  /var/folders/th/s5djnwg15xxc0dk87c413f_h0000gn/T//ccCW3aXI.s 			page 124


2394:/Library/DaisyToolchain/0.2.0/arm/arm-none-eabi/include/c++/10.3.1/bits/stl_algo.h ****     __rotate_adaptive(_BidirectionalIterator1 __first,
2395:/Library/DaisyToolchain/0.2.0/arm/arm-none-eabi/include/c++/10.3.1/bits/stl_algo.h **** 		      _BidirectionalIterator1 __middle,
2396:/Library/DaisyToolchain/0.2.0/arm/arm-none-eabi/include/c++/10.3.1/bits/stl_algo.h **** 		      _BidirectionalIterator1 __last,
2397:/Library/DaisyToolchain/0.2.0/arm/arm-none-eabi/include/c++/10.3.1/bits/stl_algo.h **** 		      _Distance __len1, _Distance __len2,
2398:/Library/DaisyToolchain/0.2.0/arm/arm-none-eabi/include/c++/10.3.1/bits/stl_algo.h **** 		      _BidirectionalIterator2 __buffer,
2399:/Library/DaisyToolchain/0.2.0/arm/arm-none-eabi/include/c++/10.3.1/bits/stl_algo.h **** 		      _Distance __buffer_size)
2400:/Library/DaisyToolchain/0.2.0/arm/arm-none-eabi/include/c++/10.3.1/bits/stl_algo.h ****     {
2401:/Library/DaisyToolchain/0.2.0/arm/arm-none-eabi/include/c++/10.3.1/bits/stl_algo.h ****       _BidirectionalIterator2 __buffer_end;
2402:/Library/DaisyToolchain/0.2.0/arm/arm-none-eabi/include/c++/10.3.1/bits/stl_algo.h ****       if (__len1 > __len2 && __len2 <= __buffer_size)
2403:/Library/DaisyToolchain/0.2.0/arm/arm-none-eabi/include/c++/10.3.1/bits/stl_algo.h **** 	{
2404:/Library/DaisyToolchain/0.2.0/arm/arm-none-eabi/include/c++/10.3.1/bits/stl_algo.h **** 	  if (__len2)
2405:/Library/DaisyToolchain/0.2.0/arm/arm-none-eabi/include/c++/10.3.1/bits/stl_algo.h **** 	    {
2406:/Library/DaisyToolchain/0.2.0/arm/arm-none-eabi/include/c++/10.3.1/bits/stl_algo.h **** 	      __buffer_end = _GLIBCXX_MOVE3(__middle, __last, __buffer);
2407:/Library/DaisyToolchain/0.2.0/arm/arm-none-eabi/include/c++/10.3.1/bits/stl_algo.h **** 	      _GLIBCXX_MOVE_BACKWARD3(__first, __middle, __last);
2408:/Library/DaisyToolchain/0.2.0/arm/arm-none-eabi/include/c++/10.3.1/bits/stl_algo.h **** 	      return _GLIBCXX_MOVE3(__buffer, __buffer_end, __first);
2409:/Library/DaisyToolchain/0.2.0/arm/arm-none-eabi/include/c++/10.3.1/bits/stl_algo.h **** 	    }
2410:/Library/DaisyToolchain/0.2.0/arm/arm-none-eabi/include/c++/10.3.1/bits/stl_algo.h **** 	  else
2411:/Library/DaisyToolchain/0.2.0/arm/arm-none-eabi/include/c++/10.3.1/bits/stl_algo.h **** 	    return __first;
2412:/Library/DaisyToolchain/0.2.0/arm/arm-none-eabi/include/c++/10.3.1/bits/stl_algo.h **** 	}
2413:/Library/DaisyToolchain/0.2.0/arm/arm-none-eabi/include/c++/10.3.1/bits/stl_algo.h ****       else if (__len1 <= __buffer_size)
2414:/Library/DaisyToolchain/0.2.0/arm/arm-none-eabi/include/c++/10.3.1/bits/stl_algo.h **** 	{
2415:/Library/DaisyToolchain/0.2.0/arm/arm-none-eabi/include/c++/10.3.1/bits/stl_algo.h **** 	  if (__len1)
2416:/Library/DaisyToolchain/0.2.0/arm/arm-none-eabi/include/c++/10.3.1/bits/stl_algo.h **** 	    {
2417:/Library/DaisyToolchain/0.2.0/arm/arm-none-eabi/include/c++/10.3.1/bits/stl_algo.h **** 	      __buffer_end = _GLIBCXX_MOVE3(__first, __middle, __buffer);
2418:/Library/DaisyToolchain/0.2.0/arm/arm-none-eabi/include/c++/10.3.1/bits/stl_algo.h **** 	      _GLIBCXX_MOVE3(__middle, __last, __first);
2419:/Library/DaisyToolchain/0.2.0/arm/arm-none-eabi/include/c++/10.3.1/bits/stl_algo.h **** 	      return _GLIBCXX_MOVE_BACKWARD3(__buffer, __buffer_end, __last);
2420:/Library/DaisyToolchain/0.2.0/arm/arm-none-eabi/include/c++/10.3.1/bits/stl_algo.h **** 	    }
2421:/Library/DaisyToolchain/0.2.0/arm/arm-none-eabi/include/c++/10.3.1/bits/stl_algo.h **** 	  else
2422:/Library/DaisyToolchain/0.2.0/arm/arm-none-eabi/include/c++/10.3.1/bits/stl_algo.h **** 	    return __last;
2423:/Library/DaisyToolchain/0.2.0/arm/arm-none-eabi/include/c++/10.3.1/bits/stl_algo.h **** 	}
2424:/Library/DaisyToolchain/0.2.0/arm/arm-none-eabi/include/c++/10.3.1/bits/stl_algo.h ****       else
2425:/Library/DaisyToolchain/0.2.0/arm/arm-none-eabi/include/c++/10.3.1/bits/stl_algo.h **** 	return std::rotate(__first, __middle, __last);
2426:/Library/DaisyToolchain/0.2.0/arm/arm-none-eabi/include/c++/10.3.1/bits/stl_algo.h ****     }
2427:/Library/DaisyToolchain/0.2.0/arm/arm-none-eabi/include/c++/10.3.1/bits/stl_algo.h **** 
2428:/Library/DaisyToolchain/0.2.0/arm/arm-none-eabi/include/c++/10.3.1/bits/stl_algo.h ****   /// This is a helper function for the merge routines.
2429:/Library/DaisyToolchain/0.2.0/arm/arm-none-eabi/include/c++/10.3.1/bits/stl_algo.h ****   template<typename _BidirectionalIterator, typename _Distance, 
2430:/Library/DaisyToolchain/0.2.0/arm/arm-none-eabi/include/c++/10.3.1/bits/stl_algo.h **** 	   typename _Pointer, typename _Compare>
2431:/Library/DaisyToolchain/0.2.0/arm/arm-none-eabi/include/c++/10.3.1/bits/stl_algo.h ****     void
2432:/Library/DaisyToolchain/0.2.0/arm/arm-none-eabi/include/c++/10.3.1/bits/stl_algo.h ****     __merge_adaptive(_BidirectionalIterator __first,
2433:/Library/DaisyToolchain/0.2.0/arm/arm-none-eabi/include/c++/10.3.1/bits/stl_algo.h **** 		     _BidirectionalIterator __middle,
2434:/Library/DaisyToolchain/0.2.0/arm/arm-none-eabi/include/c++/10.3.1/bits/stl_algo.h **** 		     _BidirectionalIterator __last,
2435:/Library/DaisyToolchain/0.2.0/arm/arm-none-eabi/include/c++/10.3.1/bits/stl_algo.h **** 		     _Distance __len1, _Distance __len2,
2436:/Library/DaisyToolchain/0.2.0/arm/arm-none-eabi/include/c++/10.3.1/bits/stl_algo.h **** 		     _Pointer __buffer, _Distance __buffer_size,
2437:/Library/DaisyToolchain/0.2.0/arm/arm-none-eabi/include/c++/10.3.1/bits/stl_algo.h **** 		     _Compare __comp)
2438:/Library/DaisyToolchain/0.2.0/arm/arm-none-eabi/include/c++/10.3.1/bits/stl_algo.h ****     {
2439:/Library/DaisyToolchain/0.2.0/arm/arm-none-eabi/include/c++/10.3.1/bits/stl_algo.h ****       if (__len1 <= __len2 && __len1 <= __buffer_size)
2440:/Library/DaisyToolchain/0.2.0/arm/arm-none-eabi/include/c++/10.3.1/bits/stl_algo.h **** 	{
2441:/Library/DaisyToolchain/0.2.0/arm/arm-none-eabi/include/c++/10.3.1/bits/stl_algo.h **** 	  _Pointer __buffer_end = _GLIBCXX_MOVE3(__first, __middle, __buffer);
2442:/Library/DaisyToolchain/0.2.0/arm/arm-none-eabi/include/c++/10.3.1/bits/stl_algo.h **** 	  std::__move_merge_adaptive(__buffer, __buffer_end, __middle, __last,
2443:/Library/DaisyToolchain/0.2.0/arm/arm-none-eabi/include/c++/10.3.1/bits/stl_algo.h **** 				     __first, __comp);
2444:/Library/DaisyToolchain/0.2.0/arm/arm-none-eabi/include/c++/10.3.1/bits/stl_algo.h **** 	}
2445:/Library/DaisyToolchain/0.2.0/arm/arm-none-eabi/include/c++/10.3.1/bits/stl_algo.h ****       else if (__len2 <= __buffer_size)
2446:/Library/DaisyToolchain/0.2.0/arm/arm-none-eabi/include/c++/10.3.1/bits/stl_algo.h **** 	{
2447:/Library/DaisyToolchain/0.2.0/arm/arm-none-eabi/include/c++/10.3.1/bits/stl_algo.h **** 	  _Pointer __buffer_end = _GLIBCXX_MOVE3(__middle, __last, __buffer);
2448:/Library/DaisyToolchain/0.2.0/arm/arm-none-eabi/include/c++/10.3.1/bits/stl_algo.h **** 	  std::__move_merge_adaptive_backward(__first, __middle, __buffer,
2449:/Library/DaisyToolchain/0.2.0/arm/arm-none-eabi/include/c++/10.3.1/bits/stl_algo.h **** 					      __buffer_end, __last, __comp);
2450:/Library/DaisyToolchain/0.2.0/arm/arm-none-eabi/include/c++/10.3.1/bits/stl_algo.h **** 	}
ARM GAS  /var/folders/th/s5djnwg15xxc0dk87c413f_h0000gn/T//ccCW3aXI.s 			page 125


2451:/Library/DaisyToolchain/0.2.0/arm/arm-none-eabi/include/c++/10.3.1/bits/stl_algo.h ****       else
2452:/Library/DaisyToolchain/0.2.0/arm/arm-none-eabi/include/c++/10.3.1/bits/stl_algo.h **** 	{
2453:/Library/DaisyToolchain/0.2.0/arm/arm-none-eabi/include/c++/10.3.1/bits/stl_algo.h **** 	  _BidirectionalIterator __first_cut = __first;
2454:/Library/DaisyToolchain/0.2.0/arm/arm-none-eabi/include/c++/10.3.1/bits/stl_algo.h **** 	  _BidirectionalIterator __second_cut = __middle;
2455:/Library/DaisyToolchain/0.2.0/arm/arm-none-eabi/include/c++/10.3.1/bits/stl_algo.h **** 	  _Distance __len11 = 0;
2456:/Library/DaisyToolchain/0.2.0/arm/arm-none-eabi/include/c++/10.3.1/bits/stl_algo.h **** 	  _Distance __len22 = 0;
2457:/Library/DaisyToolchain/0.2.0/arm/arm-none-eabi/include/c++/10.3.1/bits/stl_algo.h **** 	  if (__len1 > __len2)
2458:/Library/DaisyToolchain/0.2.0/arm/arm-none-eabi/include/c++/10.3.1/bits/stl_algo.h **** 	    {
2459:/Library/DaisyToolchain/0.2.0/arm/arm-none-eabi/include/c++/10.3.1/bits/stl_algo.h **** 	      __len11 = __len1 / 2;
2460:/Library/DaisyToolchain/0.2.0/arm/arm-none-eabi/include/c++/10.3.1/bits/stl_algo.h **** 	      std::advance(__first_cut, __len11);
2461:/Library/DaisyToolchain/0.2.0/arm/arm-none-eabi/include/c++/10.3.1/bits/stl_algo.h **** 	      __second_cut
2462:/Library/DaisyToolchain/0.2.0/arm/arm-none-eabi/include/c++/10.3.1/bits/stl_algo.h **** 		= std::__lower_bound(__middle, __last, *__first_cut,
2463:/Library/DaisyToolchain/0.2.0/arm/arm-none-eabi/include/c++/10.3.1/bits/stl_algo.h **** 				     __gnu_cxx::__ops::__iter_comp_val(__comp));
2464:/Library/DaisyToolchain/0.2.0/arm/arm-none-eabi/include/c++/10.3.1/bits/stl_algo.h **** 	      __len22 = std::distance(__middle, __second_cut);
2465:/Library/DaisyToolchain/0.2.0/arm/arm-none-eabi/include/c++/10.3.1/bits/stl_algo.h **** 	    }
2466:/Library/DaisyToolchain/0.2.0/arm/arm-none-eabi/include/c++/10.3.1/bits/stl_algo.h **** 	  else
2467:/Library/DaisyToolchain/0.2.0/arm/arm-none-eabi/include/c++/10.3.1/bits/stl_algo.h **** 	    {
2468:/Library/DaisyToolchain/0.2.0/arm/arm-none-eabi/include/c++/10.3.1/bits/stl_algo.h **** 	      __len22 = __len2 / 2;
2469:/Library/DaisyToolchain/0.2.0/arm/arm-none-eabi/include/c++/10.3.1/bits/stl_algo.h **** 	      std::advance(__second_cut, __len22);
2470:/Library/DaisyToolchain/0.2.0/arm/arm-none-eabi/include/c++/10.3.1/bits/stl_algo.h **** 	      __first_cut
2471:/Library/DaisyToolchain/0.2.0/arm/arm-none-eabi/include/c++/10.3.1/bits/stl_algo.h **** 		= std::__upper_bound(__first, __middle, *__second_cut,
2472:/Library/DaisyToolchain/0.2.0/arm/arm-none-eabi/include/c++/10.3.1/bits/stl_algo.h **** 				     __gnu_cxx::__ops::__val_comp_iter(__comp));
2473:/Library/DaisyToolchain/0.2.0/arm/arm-none-eabi/include/c++/10.3.1/bits/stl_algo.h **** 	      __len11 = std::distance(__first, __first_cut);
2474:/Library/DaisyToolchain/0.2.0/arm/arm-none-eabi/include/c++/10.3.1/bits/stl_algo.h **** 	    }
2475:/Library/DaisyToolchain/0.2.0/arm/arm-none-eabi/include/c++/10.3.1/bits/stl_algo.h **** 
2476:/Library/DaisyToolchain/0.2.0/arm/arm-none-eabi/include/c++/10.3.1/bits/stl_algo.h **** 	  _BidirectionalIterator __new_middle
2477:/Library/DaisyToolchain/0.2.0/arm/arm-none-eabi/include/c++/10.3.1/bits/stl_algo.h **** 	    = std::__rotate_adaptive(__first_cut, __middle, __second_cut,
2478:/Library/DaisyToolchain/0.2.0/arm/arm-none-eabi/include/c++/10.3.1/bits/stl_algo.h **** 				     __len1 - __len11, __len22, __buffer,
2479:/Library/DaisyToolchain/0.2.0/arm/arm-none-eabi/include/c++/10.3.1/bits/stl_algo.h **** 				     __buffer_size);
2480:/Library/DaisyToolchain/0.2.0/arm/arm-none-eabi/include/c++/10.3.1/bits/stl_algo.h **** 	  std::__merge_adaptive(__first, __first_cut, __new_middle, __len11,
2481:/Library/DaisyToolchain/0.2.0/arm/arm-none-eabi/include/c++/10.3.1/bits/stl_algo.h **** 				__len22, __buffer, __buffer_size, __comp);
2482:/Library/DaisyToolchain/0.2.0/arm/arm-none-eabi/include/c++/10.3.1/bits/stl_algo.h **** 	  std::__merge_adaptive(__new_middle, __second_cut, __last,
2483:/Library/DaisyToolchain/0.2.0/arm/arm-none-eabi/include/c++/10.3.1/bits/stl_algo.h **** 				__len1 - __len11,
2484:/Library/DaisyToolchain/0.2.0/arm/arm-none-eabi/include/c++/10.3.1/bits/stl_algo.h **** 				__len2 - __len22, __buffer,
2485:/Library/DaisyToolchain/0.2.0/arm/arm-none-eabi/include/c++/10.3.1/bits/stl_algo.h **** 				__buffer_size, __comp);
2486:/Library/DaisyToolchain/0.2.0/arm/arm-none-eabi/include/c++/10.3.1/bits/stl_algo.h **** 	}
2487:/Library/DaisyToolchain/0.2.0/arm/arm-none-eabi/include/c++/10.3.1/bits/stl_algo.h ****     }
2488:/Library/DaisyToolchain/0.2.0/arm/arm-none-eabi/include/c++/10.3.1/bits/stl_algo.h **** 
2489:/Library/DaisyToolchain/0.2.0/arm/arm-none-eabi/include/c++/10.3.1/bits/stl_algo.h ****   /// This is a helper function for the merge routines.
2490:/Library/DaisyToolchain/0.2.0/arm/arm-none-eabi/include/c++/10.3.1/bits/stl_algo.h ****   template<typename _BidirectionalIterator, typename _Distance,
2491:/Library/DaisyToolchain/0.2.0/arm/arm-none-eabi/include/c++/10.3.1/bits/stl_algo.h **** 	   typename _Compare>
2492:/Library/DaisyToolchain/0.2.0/arm/arm-none-eabi/include/c++/10.3.1/bits/stl_algo.h ****     void
2493:/Library/DaisyToolchain/0.2.0/arm/arm-none-eabi/include/c++/10.3.1/bits/stl_algo.h ****     __merge_without_buffer(_BidirectionalIterator __first,
2494:/Library/DaisyToolchain/0.2.0/arm/arm-none-eabi/include/c++/10.3.1/bits/stl_algo.h **** 			   _BidirectionalIterator __middle,
2495:/Library/DaisyToolchain/0.2.0/arm/arm-none-eabi/include/c++/10.3.1/bits/stl_algo.h **** 			   _BidirectionalIterator __last,
2496:/Library/DaisyToolchain/0.2.0/arm/arm-none-eabi/include/c++/10.3.1/bits/stl_algo.h **** 			   _Distance __len1, _Distance __len2,
2497:/Library/DaisyToolchain/0.2.0/arm/arm-none-eabi/include/c++/10.3.1/bits/stl_algo.h **** 			   _Compare __comp)
2498:/Library/DaisyToolchain/0.2.0/arm/arm-none-eabi/include/c++/10.3.1/bits/stl_algo.h ****     {
2499:/Library/DaisyToolchain/0.2.0/arm/arm-none-eabi/include/c++/10.3.1/bits/stl_algo.h ****       if (__len1 == 0 || __len2 == 0)
2500:/Library/DaisyToolchain/0.2.0/arm/arm-none-eabi/include/c++/10.3.1/bits/stl_algo.h **** 	return;
2501:/Library/DaisyToolchain/0.2.0/arm/arm-none-eabi/include/c++/10.3.1/bits/stl_algo.h **** 
2502:/Library/DaisyToolchain/0.2.0/arm/arm-none-eabi/include/c++/10.3.1/bits/stl_algo.h ****       if (__len1 + __len2 == 2)
2503:/Library/DaisyToolchain/0.2.0/arm/arm-none-eabi/include/c++/10.3.1/bits/stl_algo.h **** 	{
2504:/Library/DaisyToolchain/0.2.0/arm/arm-none-eabi/include/c++/10.3.1/bits/stl_algo.h **** 	  if (__comp(__middle, __first))
2505:/Library/DaisyToolchain/0.2.0/arm/arm-none-eabi/include/c++/10.3.1/bits/stl_algo.h **** 	    std::iter_swap(__first, __middle);
2506:/Library/DaisyToolchain/0.2.0/arm/arm-none-eabi/include/c++/10.3.1/bits/stl_algo.h **** 	  return;
2507:/Library/DaisyToolchain/0.2.0/arm/arm-none-eabi/include/c++/10.3.1/bits/stl_algo.h **** 	}
ARM GAS  /var/folders/th/s5djnwg15xxc0dk87c413f_h0000gn/T//ccCW3aXI.s 			page 126


2508:/Library/DaisyToolchain/0.2.0/arm/arm-none-eabi/include/c++/10.3.1/bits/stl_algo.h **** 
2509:/Library/DaisyToolchain/0.2.0/arm/arm-none-eabi/include/c++/10.3.1/bits/stl_algo.h ****       _BidirectionalIterator __first_cut = __first;
2510:/Library/DaisyToolchain/0.2.0/arm/arm-none-eabi/include/c++/10.3.1/bits/stl_algo.h ****       _BidirectionalIterator __second_cut = __middle;
2511:/Library/DaisyToolchain/0.2.0/arm/arm-none-eabi/include/c++/10.3.1/bits/stl_algo.h ****       _Distance __len11 = 0;
2512:/Library/DaisyToolchain/0.2.0/arm/arm-none-eabi/include/c++/10.3.1/bits/stl_algo.h ****       _Distance __len22 = 0;
2513:/Library/DaisyToolchain/0.2.0/arm/arm-none-eabi/include/c++/10.3.1/bits/stl_algo.h ****       if (__len1 > __len2)
2514:/Library/DaisyToolchain/0.2.0/arm/arm-none-eabi/include/c++/10.3.1/bits/stl_algo.h **** 	{
2515:/Library/DaisyToolchain/0.2.0/arm/arm-none-eabi/include/c++/10.3.1/bits/stl_algo.h **** 	  __len11 = __len1 / 2;
2516:/Library/DaisyToolchain/0.2.0/arm/arm-none-eabi/include/c++/10.3.1/bits/stl_algo.h **** 	  std::advance(__first_cut, __len11);
2517:/Library/DaisyToolchain/0.2.0/arm/arm-none-eabi/include/c++/10.3.1/bits/stl_algo.h **** 	  __second_cut
2518:/Library/DaisyToolchain/0.2.0/arm/arm-none-eabi/include/c++/10.3.1/bits/stl_algo.h **** 	    = std::__lower_bound(__middle, __last, *__first_cut,
2519:/Library/DaisyToolchain/0.2.0/arm/arm-none-eabi/include/c++/10.3.1/bits/stl_algo.h **** 				 __gnu_cxx::__ops::__iter_comp_val(__comp));
2520:/Library/DaisyToolchain/0.2.0/arm/arm-none-eabi/include/c++/10.3.1/bits/stl_algo.h **** 	  __len22 = std::distance(__middle, __second_cut);
2521:/Library/DaisyToolchain/0.2.0/arm/arm-none-eabi/include/c++/10.3.1/bits/stl_algo.h **** 	}
2522:/Library/DaisyToolchain/0.2.0/arm/arm-none-eabi/include/c++/10.3.1/bits/stl_algo.h ****       else
2523:/Library/DaisyToolchain/0.2.0/arm/arm-none-eabi/include/c++/10.3.1/bits/stl_algo.h **** 	{
2524:/Library/DaisyToolchain/0.2.0/arm/arm-none-eabi/include/c++/10.3.1/bits/stl_algo.h **** 	  __len22 = __len2 / 2;
2525:/Library/DaisyToolchain/0.2.0/arm/arm-none-eabi/include/c++/10.3.1/bits/stl_algo.h **** 	  std::advance(__second_cut, __len22);
2526:/Library/DaisyToolchain/0.2.0/arm/arm-none-eabi/include/c++/10.3.1/bits/stl_algo.h **** 	  __first_cut
2527:/Library/DaisyToolchain/0.2.0/arm/arm-none-eabi/include/c++/10.3.1/bits/stl_algo.h **** 	    = std::__upper_bound(__first, __middle, *__second_cut,
2528:/Library/DaisyToolchain/0.2.0/arm/arm-none-eabi/include/c++/10.3.1/bits/stl_algo.h **** 				 __gnu_cxx::__ops::__val_comp_iter(__comp));
2529:/Library/DaisyToolchain/0.2.0/arm/arm-none-eabi/include/c++/10.3.1/bits/stl_algo.h **** 	  __len11 = std::distance(__first, __first_cut);
2530:/Library/DaisyToolchain/0.2.0/arm/arm-none-eabi/include/c++/10.3.1/bits/stl_algo.h **** 	}
2531:/Library/DaisyToolchain/0.2.0/arm/arm-none-eabi/include/c++/10.3.1/bits/stl_algo.h **** 
2532:/Library/DaisyToolchain/0.2.0/arm/arm-none-eabi/include/c++/10.3.1/bits/stl_algo.h ****       _BidirectionalIterator __new_middle
2533:/Library/DaisyToolchain/0.2.0/arm/arm-none-eabi/include/c++/10.3.1/bits/stl_algo.h **** 	= std::rotate(__first_cut, __middle, __second_cut);
2534:/Library/DaisyToolchain/0.2.0/arm/arm-none-eabi/include/c++/10.3.1/bits/stl_algo.h ****       std::__merge_without_buffer(__first, __first_cut, __new_middle,
2535:/Library/DaisyToolchain/0.2.0/arm/arm-none-eabi/include/c++/10.3.1/bits/stl_algo.h **** 				  __len11, __len22, __comp);
2536:/Library/DaisyToolchain/0.2.0/arm/arm-none-eabi/include/c++/10.3.1/bits/stl_algo.h ****       std::__merge_without_buffer(__new_middle, __second_cut, __last,
2537:/Library/DaisyToolchain/0.2.0/arm/arm-none-eabi/include/c++/10.3.1/bits/stl_algo.h **** 				  __len1 - __len11, __len2 - __len22, __comp);
2538:/Library/DaisyToolchain/0.2.0/arm/arm-none-eabi/include/c++/10.3.1/bits/stl_algo.h ****     }
2539:/Library/DaisyToolchain/0.2.0/arm/arm-none-eabi/include/c++/10.3.1/bits/stl_algo.h **** 
2540:/Library/DaisyToolchain/0.2.0/arm/arm-none-eabi/include/c++/10.3.1/bits/stl_algo.h ****   template<typename _BidirectionalIterator, typename _Compare>
2541:/Library/DaisyToolchain/0.2.0/arm/arm-none-eabi/include/c++/10.3.1/bits/stl_algo.h ****     void
2542:/Library/DaisyToolchain/0.2.0/arm/arm-none-eabi/include/c++/10.3.1/bits/stl_algo.h ****     __inplace_merge(_BidirectionalIterator __first,
2543:/Library/DaisyToolchain/0.2.0/arm/arm-none-eabi/include/c++/10.3.1/bits/stl_algo.h **** 		    _BidirectionalIterator __middle,
2544:/Library/DaisyToolchain/0.2.0/arm/arm-none-eabi/include/c++/10.3.1/bits/stl_algo.h **** 		    _BidirectionalIterator __last,
2545:/Library/DaisyToolchain/0.2.0/arm/arm-none-eabi/include/c++/10.3.1/bits/stl_algo.h **** 		    _Compare __comp)
2546:/Library/DaisyToolchain/0.2.0/arm/arm-none-eabi/include/c++/10.3.1/bits/stl_algo.h ****     {
2547:/Library/DaisyToolchain/0.2.0/arm/arm-none-eabi/include/c++/10.3.1/bits/stl_algo.h ****       typedef typename iterator_traits<_BidirectionalIterator>::value_type
2548:/Library/DaisyToolchain/0.2.0/arm/arm-none-eabi/include/c++/10.3.1/bits/stl_algo.h **** 	  _ValueType;
2549:/Library/DaisyToolchain/0.2.0/arm/arm-none-eabi/include/c++/10.3.1/bits/stl_algo.h ****       typedef typename iterator_traits<_BidirectionalIterator>::difference_type
2550:/Library/DaisyToolchain/0.2.0/arm/arm-none-eabi/include/c++/10.3.1/bits/stl_algo.h **** 	  _DistanceType;
2551:/Library/DaisyToolchain/0.2.0/arm/arm-none-eabi/include/c++/10.3.1/bits/stl_algo.h **** 
2552:/Library/DaisyToolchain/0.2.0/arm/arm-none-eabi/include/c++/10.3.1/bits/stl_algo.h ****       if (__first == __middle || __middle == __last)
2553:/Library/DaisyToolchain/0.2.0/arm/arm-none-eabi/include/c++/10.3.1/bits/stl_algo.h **** 	return;
2554:/Library/DaisyToolchain/0.2.0/arm/arm-none-eabi/include/c++/10.3.1/bits/stl_algo.h **** 
2555:/Library/DaisyToolchain/0.2.0/arm/arm-none-eabi/include/c++/10.3.1/bits/stl_algo.h ****       const _DistanceType __len1 = std::distance(__first, __middle);
2556:/Library/DaisyToolchain/0.2.0/arm/arm-none-eabi/include/c++/10.3.1/bits/stl_algo.h ****       const _DistanceType __len2 = std::distance(__middle, __last);
2557:/Library/DaisyToolchain/0.2.0/arm/arm-none-eabi/include/c++/10.3.1/bits/stl_algo.h **** 
2558:/Library/DaisyToolchain/0.2.0/arm/arm-none-eabi/include/c++/10.3.1/bits/stl_algo.h ****       typedef _Temporary_buffer<_BidirectionalIterator, _ValueType> _TmpBuf;
2559:/Library/DaisyToolchain/0.2.0/arm/arm-none-eabi/include/c++/10.3.1/bits/stl_algo.h ****       _TmpBuf __buf(__first, __len1 + __len2);
2560:/Library/DaisyToolchain/0.2.0/arm/arm-none-eabi/include/c++/10.3.1/bits/stl_algo.h **** 
2561:/Library/DaisyToolchain/0.2.0/arm/arm-none-eabi/include/c++/10.3.1/bits/stl_algo.h ****       if (__buf.begin() == 0)
2562:/Library/DaisyToolchain/0.2.0/arm/arm-none-eabi/include/c++/10.3.1/bits/stl_algo.h **** 	std::__merge_without_buffer
2563:/Library/DaisyToolchain/0.2.0/arm/arm-none-eabi/include/c++/10.3.1/bits/stl_algo.h **** 	  (__first, __middle, __last, __len1, __len2, __comp);
2564:/Library/DaisyToolchain/0.2.0/arm/arm-none-eabi/include/c++/10.3.1/bits/stl_algo.h ****       else
ARM GAS  /var/folders/th/s5djnwg15xxc0dk87c413f_h0000gn/T//ccCW3aXI.s 			page 127


2565:/Library/DaisyToolchain/0.2.0/arm/arm-none-eabi/include/c++/10.3.1/bits/stl_algo.h **** 	std::__merge_adaptive
2566:/Library/DaisyToolchain/0.2.0/arm/arm-none-eabi/include/c++/10.3.1/bits/stl_algo.h **** 	  (__first, __middle, __last, __len1, __len2, __buf.begin(),
2567:/Library/DaisyToolchain/0.2.0/arm/arm-none-eabi/include/c++/10.3.1/bits/stl_algo.h **** 	   _DistanceType(__buf.size()), __comp);
2568:/Library/DaisyToolchain/0.2.0/arm/arm-none-eabi/include/c++/10.3.1/bits/stl_algo.h ****     }
2569:/Library/DaisyToolchain/0.2.0/arm/arm-none-eabi/include/c++/10.3.1/bits/stl_algo.h **** 
2570:/Library/DaisyToolchain/0.2.0/arm/arm-none-eabi/include/c++/10.3.1/bits/stl_algo.h ****   /**
2571:/Library/DaisyToolchain/0.2.0/arm/arm-none-eabi/include/c++/10.3.1/bits/stl_algo.h ****    *  @brief Merges two sorted ranges in place.
2572:/Library/DaisyToolchain/0.2.0/arm/arm-none-eabi/include/c++/10.3.1/bits/stl_algo.h ****    *  @ingroup sorting_algorithms
2573:/Library/DaisyToolchain/0.2.0/arm/arm-none-eabi/include/c++/10.3.1/bits/stl_algo.h ****    *  @param  __first   An iterator.
2574:/Library/DaisyToolchain/0.2.0/arm/arm-none-eabi/include/c++/10.3.1/bits/stl_algo.h ****    *  @param  __middle  Another iterator.
2575:/Library/DaisyToolchain/0.2.0/arm/arm-none-eabi/include/c++/10.3.1/bits/stl_algo.h ****    *  @param  __last    Another iterator.
2576:/Library/DaisyToolchain/0.2.0/arm/arm-none-eabi/include/c++/10.3.1/bits/stl_algo.h ****    *  @return  Nothing.
2577:/Library/DaisyToolchain/0.2.0/arm/arm-none-eabi/include/c++/10.3.1/bits/stl_algo.h ****    *
2578:/Library/DaisyToolchain/0.2.0/arm/arm-none-eabi/include/c++/10.3.1/bits/stl_algo.h ****    *  Merges two sorted and consecutive ranges, [__first,__middle) and
2579:/Library/DaisyToolchain/0.2.0/arm/arm-none-eabi/include/c++/10.3.1/bits/stl_algo.h ****    *  [__middle,__last), and puts the result in [__first,__last).  The
2580:/Library/DaisyToolchain/0.2.0/arm/arm-none-eabi/include/c++/10.3.1/bits/stl_algo.h ****    *  output will be sorted.  The sort is @e stable, that is, for
2581:/Library/DaisyToolchain/0.2.0/arm/arm-none-eabi/include/c++/10.3.1/bits/stl_algo.h ****    *  equivalent elements in the two ranges, elements from the first
2582:/Library/DaisyToolchain/0.2.0/arm/arm-none-eabi/include/c++/10.3.1/bits/stl_algo.h ****    *  range will always come before elements from the second.
2583:/Library/DaisyToolchain/0.2.0/arm/arm-none-eabi/include/c++/10.3.1/bits/stl_algo.h ****    *
2584:/Library/DaisyToolchain/0.2.0/arm/arm-none-eabi/include/c++/10.3.1/bits/stl_algo.h ****    *  If enough additional memory is available, this takes (__last-__first)-1
2585:/Library/DaisyToolchain/0.2.0/arm/arm-none-eabi/include/c++/10.3.1/bits/stl_algo.h ****    *  comparisons.  Otherwise an NlogN algorithm is used, where N is
2586:/Library/DaisyToolchain/0.2.0/arm/arm-none-eabi/include/c++/10.3.1/bits/stl_algo.h ****    *  distance(__first,__last).
2587:/Library/DaisyToolchain/0.2.0/arm/arm-none-eabi/include/c++/10.3.1/bits/stl_algo.h ****   */
2588:/Library/DaisyToolchain/0.2.0/arm/arm-none-eabi/include/c++/10.3.1/bits/stl_algo.h ****   template<typename _BidirectionalIterator>
2589:/Library/DaisyToolchain/0.2.0/arm/arm-none-eabi/include/c++/10.3.1/bits/stl_algo.h ****     inline void
2590:/Library/DaisyToolchain/0.2.0/arm/arm-none-eabi/include/c++/10.3.1/bits/stl_algo.h ****     inplace_merge(_BidirectionalIterator __first,
2591:/Library/DaisyToolchain/0.2.0/arm/arm-none-eabi/include/c++/10.3.1/bits/stl_algo.h **** 		  _BidirectionalIterator __middle,
2592:/Library/DaisyToolchain/0.2.0/arm/arm-none-eabi/include/c++/10.3.1/bits/stl_algo.h **** 		  _BidirectionalIterator __last)
2593:/Library/DaisyToolchain/0.2.0/arm/arm-none-eabi/include/c++/10.3.1/bits/stl_algo.h ****     {
2594:/Library/DaisyToolchain/0.2.0/arm/arm-none-eabi/include/c++/10.3.1/bits/stl_algo.h ****       // concept requirements
2595:/Library/DaisyToolchain/0.2.0/arm/arm-none-eabi/include/c++/10.3.1/bits/stl_algo.h ****       __glibcxx_function_requires(_Mutable_BidirectionalIteratorConcept<
2596:/Library/DaisyToolchain/0.2.0/arm/arm-none-eabi/include/c++/10.3.1/bits/stl_algo.h **** 	    _BidirectionalIterator>)
2597:/Library/DaisyToolchain/0.2.0/arm/arm-none-eabi/include/c++/10.3.1/bits/stl_algo.h ****       __glibcxx_function_requires(_LessThanComparableConcept<
2598:/Library/DaisyToolchain/0.2.0/arm/arm-none-eabi/include/c++/10.3.1/bits/stl_algo.h **** 	    typename iterator_traits<_BidirectionalIterator>::value_type>)
2599:/Library/DaisyToolchain/0.2.0/arm/arm-none-eabi/include/c++/10.3.1/bits/stl_algo.h ****       __glibcxx_requires_sorted(__first, __middle);
2600:/Library/DaisyToolchain/0.2.0/arm/arm-none-eabi/include/c++/10.3.1/bits/stl_algo.h ****       __glibcxx_requires_sorted(__middle, __last);
2601:/Library/DaisyToolchain/0.2.0/arm/arm-none-eabi/include/c++/10.3.1/bits/stl_algo.h ****       __glibcxx_requires_irreflexive(__first, __last);
2602:/Library/DaisyToolchain/0.2.0/arm/arm-none-eabi/include/c++/10.3.1/bits/stl_algo.h **** 
2603:/Library/DaisyToolchain/0.2.0/arm/arm-none-eabi/include/c++/10.3.1/bits/stl_algo.h ****       std::__inplace_merge(__first, __middle, __last,
2604:/Library/DaisyToolchain/0.2.0/arm/arm-none-eabi/include/c++/10.3.1/bits/stl_algo.h **** 			   __gnu_cxx::__ops::__iter_less_iter());
2605:/Library/DaisyToolchain/0.2.0/arm/arm-none-eabi/include/c++/10.3.1/bits/stl_algo.h ****     }
2606:/Library/DaisyToolchain/0.2.0/arm/arm-none-eabi/include/c++/10.3.1/bits/stl_algo.h **** 
2607:/Library/DaisyToolchain/0.2.0/arm/arm-none-eabi/include/c++/10.3.1/bits/stl_algo.h ****   /**
2608:/Library/DaisyToolchain/0.2.0/arm/arm-none-eabi/include/c++/10.3.1/bits/stl_algo.h ****    *  @brief Merges two sorted ranges in place.
2609:/Library/DaisyToolchain/0.2.0/arm/arm-none-eabi/include/c++/10.3.1/bits/stl_algo.h ****    *  @ingroup sorting_algorithms
2610:/Library/DaisyToolchain/0.2.0/arm/arm-none-eabi/include/c++/10.3.1/bits/stl_algo.h ****    *  @param  __first   An iterator.
2611:/Library/DaisyToolchain/0.2.0/arm/arm-none-eabi/include/c++/10.3.1/bits/stl_algo.h ****    *  @param  __middle  Another iterator.
2612:/Library/DaisyToolchain/0.2.0/arm/arm-none-eabi/include/c++/10.3.1/bits/stl_algo.h ****    *  @param  __last    Another iterator.
2613:/Library/DaisyToolchain/0.2.0/arm/arm-none-eabi/include/c++/10.3.1/bits/stl_algo.h ****    *  @param  __comp    A functor to use for comparisons.
2614:/Library/DaisyToolchain/0.2.0/arm/arm-none-eabi/include/c++/10.3.1/bits/stl_algo.h ****    *  @return  Nothing.
2615:/Library/DaisyToolchain/0.2.0/arm/arm-none-eabi/include/c++/10.3.1/bits/stl_algo.h ****    *
2616:/Library/DaisyToolchain/0.2.0/arm/arm-none-eabi/include/c++/10.3.1/bits/stl_algo.h ****    *  Merges two sorted and consecutive ranges, [__first,__middle) and
2617:/Library/DaisyToolchain/0.2.0/arm/arm-none-eabi/include/c++/10.3.1/bits/stl_algo.h ****    *  [middle,last), and puts the result in [__first,__last).  The output will
2618:/Library/DaisyToolchain/0.2.0/arm/arm-none-eabi/include/c++/10.3.1/bits/stl_algo.h ****    *  be sorted.  The sort is @e stable, that is, for equivalent
2619:/Library/DaisyToolchain/0.2.0/arm/arm-none-eabi/include/c++/10.3.1/bits/stl_algo.h ****    *  elements in the two ranges, elements from the first range will always
2620:/Library/DaisyToolchain/0.2.0/arm/arm-none-eabi/include/c++/10.3.1/bits/stl_algo.h ****    *  come before elements from the second.
2621:/Library/DaisyToolchain/0.2.0/arm/arm-none-eabi/include/c++/10.3.1/bits/stl_algo.h ****    *
ARM GAS  /var/folders/th/s5djnwg15xxc0dk87c413f_h0000gn/T//ccCW3aXI.s 			page 128


2622:/Library/DaisyToolchain/0.2.0/arm/arm-none-eabi/include/c++/10.3.1/bits/stl_algo.h ****    *  If enough additional memory is available, this takes (__last-__first)-1
2623:/Library/DaisyToolchain/0.2.0/arm/arm-none-eabi/include/c++/10.3.1/bits/stl_algo.h ****    *  comparisons.  Otherwise an NlogN algorithm is used, where N is
2624:/Library/DaisyToolchain/0.2.0/arm/arm-none-eabi/include/c++/10.3.1/bits/stl_algo.h ****    *  distance(__first,__last).
2625:/Library/DaisyToolchain/0.2.0/arm/arm-none-eabi/include/c++/10.3.1/bits/stl_algo.h ****    *
2626:/Library/DaisyToolchain/0.2.0/arm/arm-none-eabi/include/c++/10.3.1/bits/stl_algo.h ****    *  The comparison function should have the same effects on ordering as
2627:/Library/DaisyToolchain/0.2.0/arm/arm-none-eabi/include/c++/10.3.1/bits/stl_algo.h ****    *  the function used for the initial sort.
2628:/Library/DaisyToolchain/0.2.0/arm/arm-none-eabi/include/c++/10.3.1/bits/stl_algo.h ****   */
2629:/Library/DaisyToolchain/0.2.0/arm/arm-none-eabi/include/c++/10.3.1/bits/stl_algo.h ****   template<typename _BidirectionalIterator, typename _Compare>
2630:/Library/DaisyToolchain/0.2.0/arm/arm-none-eabi/include/c++/10.3.1/bits/stl_algo.h ****     inline void
2631:/Library/DaisyToolchain/0.2.0/arm/arm-none-eabi/include/c++/10.3.1/bits/stl_algo.h ****     inplace_merge(_BidirectionalIterator __first,
2632:/Library/DaisyToolchain/0.2.0/arm/arm-none-eabi/include/c++/10.3.1/bits/stl_algo.h **** 		  _BidirectionalIterator __middle,
2633:/Library/DaisyToolchain/0.2.0/arm/arm-none-eabi/include/c++/10.3.1/bits/stl_algo.h **** 		  _BidirectionalIterator __last,
2634:/Library/DaisyToolchain/0.2.0/arm/arm-none-eabi/include/c++/10.3.1/bits/stl_algo.h **** 		  _Compare __comp)
2635:/Library/DaisyToolchain/0.2.0/arm/arm-none-eabi/include/c++/10.3.1/bits/stl_algo.h ****     {
2636:/Library/DaisyToolchain/0.2.0/arm/arm-none-eabi/include/c++/10.3.1/bits/stl_algo.h ****       // concept requirements
2637:/Library/DaisyToolchain/0.2.0/arm/arm-none-eabi/include/c++/10.3.1/bits/stl_algo.h ****       __glibcxx_function_requires(_Mutable_BidirectionalIteratorConcept<
2638:/Library/DaisyToolchain/0.2.0/arm/arm-none-eabi/include/c++/10.3.1/bits/stl_algo.h **** 	    _BidirectionalIterator>)
2639:/Library/DaisyToolchain/0.2.0/arm/arm-none-eabi/include/c++/10.3.1/bits/stl_algo.h ****       __glibcxx_function_requires(_BinaryPredicateConcept<_Compare,
2640:/Library/DaisyToolchain/0.2.0/arm/arm-none-eabi/include/c++/10.3.1/bits/stl_algo.h **** 	    typename iterator_traits<_BidirectionalIterator>::value_type,
2641:/Library/DaisyToolchain/0.2.0/arm/arm-none-eabi/include/c++/10.3.1/bits/stl_algo.h **** 	    typename iterator_traits<_BidirectionalIterator>::value_type>)
2642:/Library/DaisyToolchain/0.2.0/arm/arm-none-eabi/include/c++/10.3.1/bits/stl_algo.h ****       __glibcxx_requires_sorted_pred(__first, __middle, __comp);
2643:/Library/DaisyToolchain/0.2.0/arm/arm-none-eabi/include/c++/10.3.1/bits/stl_algo.h ****       __glibcxx_requires_sorted_pred(__middle, __last, __comp);
2644:/Library/DaisyToolchain/0.2.0/arm/arm-none-eabi/include/c++/10.3.1/bits/stl_algo.h ****       __glibcxx_requires_irreflexive_pred(__first, __last, __comp);
2645:/Library/DaisyToolchain/0.2.0/arm/arm-none-eabi/include/c++/10.3.1/bits/stl_algo.h **** 
2646:/Library/DaisyToolchain/0.2.0/arm/arm-none-eabi/include/c++/10.3.1/bits/stl_algo.h ****       std::__inplace_merge(__first, __middle, __last,
2647:/Library/DaisyToolchain/0.2.0/arm/arm-none-eabi/include/c++/10.3.1/bits/stl_algo.h **** 			   __gnu_cxx::__ops::__iter_comp_iter(__comp));
2648:/Library/DaisyToolchain/0.2.0/arm/arm-none-eabi/include/c++/10.3.1/bits/stl_algo.h ****     }
2649:/Library/DaisyToolchain/0.2.0/arm/arm-none-eabi/include/c++/10.3.1/bits/stl_algo.h **** 
2650:/Library/DaisyToolchain/0.2.0/arm/arm-none-eabi/include/c++/10.3.1/bits/stl_algo.h **** 
2651:/Library/DaisyToolchain/0.2.0/arm/arm-none-eabi/include/c++/10.3.1/bits/stl_algo.h ****   /// This is a helper function for the __merge_sort_loop routines.
2652:/Library/DaisyToolchain/0.2.0/arm/arm-none-eabi/include/c++/10.3.1/bits/stl_algo.h ****   template<typename _InputIterator, typename _OutputIterator,
2653:/Library/DaisyToolchain/0.2.0/arm/arm-none-eabi/include/c++/10.3.1/bits/stl_algo.h **** 	   typename _Compare>
2654:/Library/DaisyToolchain/0.2.0/arm/arm-none-eabi/include/c++/10.3.1/bits/stl_algo.h ****     _OutputIterator
2655:/Library/DaisyToolchain/0.2.0/arm/arm-none-eabi/include/c++/10.3.1/bits/stl_algo.h ****     __move_merge(_InputIterator __first1, _InputIterator __last1,
2656:/Library/DaisyToolchain/0.2.0/arm/arm-none-eabi/include/c++/10.3.1/bits/stl_algo.h **** 		 _InputIterator __first2, _InputIterator __last2,
2657:/Library/DaisyToolchain/0.2.0/arm/arm-none-eabi/include/c++/10.3.1/bits/stl_algo.h **** 		 _OutputIterator __result, _Compare __comp)
2658:/Library/DaisyToolchain/0.2.0/arm/arm-none-eabi/include/c++/10.3.1/bits/stl_algo.h ****     {
2659:/Library/DaisyToolchain/0.2.0/arm/arm-none-eabi/include/c++/10.3.1/bits/stl_algo.h ****       while (__first1 != __last1 && __first2 != __last2)
2660:/Library/DaisyToolchain/0.2.0/arm/arm-none-eabi/include/c++/10.3.1/bits/stl_algo.h **** 	{
2661:/Library/DaisyToolchain/0.2.0/arm/arm-none-eabi/include/c++/10.3.1/bits/stl_algo.h **** 	  if (__comp(__first2, __first1))
2662:/Library/DaisyToolchain/0.2.0/arm/arm-none-eabi/include/c++/10.3.1/bits/stl_algo.h **** 	    {
2663:/Library/DaisyToolchain/0.2.0/arm/arm-none-eabi/include/c++/10.3.1/bits/stl_algo.h **** 	      *__result = _GLIBCXX_MOVE(*__first2);
2664:/Library/DaisyToolchain/0.2.0/arm/arm-none-eabi/include/c++/10.3.1/bits/stl_algo.h **** 	      ++__first2;
2665:/Library/DaisyToolchain/0.2.0/arm/arm-none-eabi/include/c++/10.3.1/bits/stl_algo.h **** 	    }
2666:/Library/DaisyToolchain/0.2.0/arm/arm-none-eabi/include/c++/10.3.1/bits/stl_algo.h **** 	  else
2667:/Library/DaisyToolchain/0.2.0/arm/arm-none-eabi/include/c++/10.3.1/bits/stl_algo.h **** 	    {
2668:/Library/DaisyToolchain/0.2.0/arm/arm-none-eabi/include/c++/10.3.1/bits/stl_algo.h **** 	      *__result = _GLIBCXX_MOVE(*__first1);
2669:/Library/DaisyToolchain/0.2.0/arm/arm-none-eabi/include/c++/10.3.1/bits/stl_algo.h **** 	      ++__first1;
2670:/Library/DaisyToolchain/0.2.0/arm/arm-none-eabi/include/c++/10.3.1/bits/stl_algo.h **** 	    }
2671:/Library/DaisyToolchain/0.2.0/arm/arm-none-eabi/include/c++/10.3.1/bits/stl_algo.h **** 	  ++__result;
2672:/Library/DaisyToolchain/0.2.0/arm/arm-none-eabi/include/c++/10.3.1/bits/stl_algo.h **** 	}
2673:/Library/DaisyToolchain/0.2.0/arm/arm-none-eabi/include/c++/10.3.1/bits/stl_algo.h ****       return _GLIBCXX_MOVE3(__first2, __last2,
2674:/Library/DaisyToolchain/0.2.0/arm/arm-none-eabi/include/c++/10.3.1/bits/stl_algo.h **** 			    _GLIBCXX_MOVE3(__first1, __last1,
2675:/Library/DaisyToolchain/0.2.0/arm/arm-none-eabi/include/c++/10.3.1/bits/stl_algo.h **** 					   __result));
2676:/Library/DaisyToolchain/0.2.0/arm/arm-none-eabi/include/c++/10.3.1/bits/stl_algo.h ****     }
2677:/Library/DaisyToolchain/0.2.0/arm/arm-none-eabi/include/c++/10.3.1/bits/stl_algo.h **** 
2678:/Library/DaisyToolchain/0.2.0/arm/arm-none-eabi/include/c++/10.3.1/bits/stl_algo.h ****   template<typename _RandomAccessIterator1, typename _RandomAccessIterator2,
ARM GAS  /var/folders/th/s5djnwg15xxc0dk87c413f_h0000gn/T//ccCW3aXI.s 			page 129


2679:/Library/DaisyToolchain/0.2.0/arm/arm-none-eabi/include/c++/10.3.1/bits/stl_algo.h **** 	   typename _Distance, typename _Compare>
2680:/Library/DaisyToolchain/0.2.0/arm/arm-none-eabi/include/c++/10.3.1/bits/stl_algo.h ****     void
2681:/Library/DaisyToolchain/0.2.0/arm/arm-none-eabi/include/c++/10.3.1/bits/stl_algo.h ****     __merge_sort_loop(_RandomAccessIterator1 __first,
2682:/Library/DaisyToolchain/0.2.0/arm/arm-none-eabi/include/c++/10.3.1/bits/stl_algo.h **** 		      _RandomAccessIterator1 __last,
2683:/Library/DaisyToolchain/0.2.0/arm/arm-none-eabi/include/c++/10.3.1/bits/stl_algo.h **** 		      _RandomAccessIterator2 __result, _Distance __step_size,
2684:/Library/DaisyToolchain/0.2.0/arm/arm-none-eabi/include/c++/10.3.1/bits/stl_algo.h **** 		      _Compare __comp)
2685:/Library/DaisyToolchain/0.2.0/arm/arm-none-eabi/include/c++/10.3.1/bits/stl_algo.h ****     {
2686:/Library/DaisyToolchain/0.2.0/arm/arm-none-eabi/include/c++/10.3.1/bits/stl_algo.h ****       const _Distance __two_step = 2 * __step_size;
2687:/Library/DaisyToolchain/0.2.0/arm/arm-none-eabi/include/c++/10.3.1/bits/stl_algo.h **** 
2688:/Library/DaisyToolchain/0.2.0/arm/arm-none-eabi/include/c++/10.3.1/bits/stl_algo.h ****       while (__last - __first >= __two_step)
2689:/Library/DaisyToolchain/0.2.0/arm/arm-none-eabi/include/c++/10.3.1/bits/stl_algo.h **** 	{
2690:/Library/DaisyToolchain/0.2.0/arm/arm-none-eabi/include/c++/10.3.1/bits/stl_algo.h **** 	  __result = std::__move_merge(__first, __first + __step_size,
2691:/Library/DaisyToolchain/0.2.0/arm/arm-none-eabi/include/c++/10.3.1/bits/stl_algo.h **** 				       __first + __step_size,
2692:/Library/DaisyToolchain/0.2.0/arm/arm-none-eabi/include/c++/10.3.1/bits/stl_algo.h **** 				       __first + __two_step,
2693:/Library/DaisyToolchain/0.2.0/arm/arm-none-eabi/include/c++/10.3.1/bits/stl_algo.h **** 				       __result, __comp);
2694:/Library/DaisyToolchain/0.2.0/arm/arm-none-eabi/include/c++/10.3.1/bits/stl_algo.h **** 	  __first += __two_step;
2695:/Library/DaisyToolchain/0.2.0/arm/arm-none-eabi/include/c++/10.3.1/bits/stl_algo.h **** 	}
2696:/Library/DaisyToolchain/0.2.0/arm/arm-none-eabi/include/c++/10.3.1/bits/stl_algo.h ****       __step_size = std::min(_Distance(__last - __first), __step_size);
2697:/Library/DaisyToolchain/0.2.0/arm/arm-none-eabi/include/c++/10.3.1/bits/stl_algo.h **** 
2698:/Library/DaisyToolchain/0.2.0/arm/arm-none-eabi/include/c++/10.3.1/bits/stl_algo.h ****       std::__move_merge(__first, __first + __step_size,
2699:/Library/DaisyToolchain/0.2.0/arm/arm-none-eabi/include/c++/10.3.1/bits/stl_algo.h **** 			__first + __step_size, __last, __result, __comp);
2700:/Library/DaisyToolchain/0.2.0/arm/arm-none-eabi/include/c++/10.3.1/bits/stl_algo.h ****     }
2701:/Library/DaisyToolchain/0.2.0/arm/arm-none-eabi/include/c++/10.3.1/bits/stl_algo.h **** 
2702:/Library/DaisyToolchain/0.2.0/arm/arm-none-eabi/include/c++/10.3.1/bits/stl_algo.h ****   template<typename _RandomAccessIterator, typename _Distance,
2703:/Library/DaisyToolchain/0.2.0/arm/arm-none-eabi/include/c++/10.3.1/bits/stl_algo.h **** 	   typename _Compare>
2704:/Library/DaisyToolchain/0.2.0/arm/arm-none-eabi/include/c++/10.3.1/bits/stl_algo.h ****     _GLIBCXX20_CONSTEXPR
2705:/Library/DaisyToolchain/0.2.0/arm/arm-none-eabi/include/c++/10.3.1/bits/stl_algo.h ****     void
2706:/Library/DaisyToolchain/0.2.0/arm/arm-none-eabi/include/c++/10.3.1/bits/stl_algo.h ****     __chunk_insertion_sort(_RandomAccessIterator __first,
2707:/Library/DaisyToolchain/0.2.0/arm/arm-none-eabi/include/c++/10.3.1/bits/stl_algo.h **** 			   _RandomAccessIterator __last,
2708:/Library/DaisyToolchain/0.2.0/arm/arm-none-eabi/include/c++/10.3.1/bits/stl_algo.h **** 			   _Distance __chunk_size, _Compare __comp)
2709:/Library/DaisyToolchain/0.2.0/arm/arm-none-eabi/include/c++/10.3.1/bits/stl_algo.h ****     {
2710:/Library/DaisyToolchain/0.2.0/arm/arm-none-eabi/include/c++/10.3.1/bits/stl_algo.h ****       while (__last - __first >= __chunk_size)
2711:/Library/DaisyToolchain/0.2.0/arm/arm-none-eabi/include/c++/10.3.1/bits/stl_algo.h **** 	{
2712:/Library/DaisyToolchain/0.2.0/arm/arm-none-eabi/include/c++/10.3.1/bits/stl_algo.h **** 	  std::__insertion_sort(__first, __first + __chunk_size, __comp);
2713:/Library/DaisyToolchain/0.2.0/arm/arm-none-eabi/include/c++/10.3.1/bits/stl_algo.h **** 	  __first += __chunk_size;
2714:/Library/DaisyToolchain/0.2.0/arm/arm-none-eabi/include/c++/10.3.1/bits/stl_algo.h **** 	}
2715:/Library/DaisyToolchain/0.2.0/arm/arm-none-eabi/include/c++/10.3.1/bits/stl_algo.h ****       std::__insertion_sort(__first, __last, __comp);
2716:/Library/DaisyToolchain/0.2.0/arm/arm-none-eabi/include/c++/10.3.1/bits/stl_algo.h ****     }
2717:/Library/DaisyToolchain/0.2.0/arm/arm-none-eabi/include/c++/10.3.1/bits/stl_algo.h **** 
2718:/Library/DaisyToolchain/0.2.0/arm/arm-none-eabi/include/c++/10.3.1/bits/stl_algo.h ****   enum { _S_chunk_size = 7 };
2719:/Library/DaisyToolchain/0.2.0/arm/arm-none-eabi/include/c++/10.3.1/bits/stl_algo.h **** 
2720:/Library/DaisyToolchain/0.2.0/arm/arm-none-eabi/include/c++/10.3.1/bits/stl_algo.h ****   template<typename _RandomAccessIterator, typename _Pointer, typename _Compare>
2721:/Library/DaisyToolchain/0.2.0/arm/arm-none-eabi/include/c++/10.3.1/bits/stl_algo.h ****     void
2722:/Library/DaisyToolchain/0.2.0/arm/arm-none-eabi/include/c++/10.3.1/bits/stl_algo.h ****     __merge_sort_with_buffer(_RandomAccessIterator __first,
2723:/Library/DaisyToolchain/0.2.0/arm/arm-none-eabi/include/c++/10.3.1/bits/stl_algo.h **** 			     _RandomAccessIterator __last,
2724:/Library/DaisyToolchain/0.2.0/arm/arm-none-eabi/include/c++/10.3.1/bits/stl_algo.h **** 			     _Pointer __buffer, _Compare __comp)
2725:/Library/DaisyToolchain/0.2.0/arm/arm-none-eabi/include/c++/10.3.1/bits/stl_algo.h ****     {
2726:/Library/DaisyToolchain/0.2.0/arm/arm-none-eabi/include/c++/10.3.1/bits/stl_algo.h ****       typedef typename iterator_traits<_RandomAccessIterator>::difference_type
2727:/Library/DaisyToolchain/0.2.0/arm/arm-none-eabi/include/c++/10.3.1/bits/stl_algo.h **** 	_Distance;
2728:/Library/DaisyToolchain/0.2.0/arm/arm-none-eabi/include/c++/10.3.1/bits/stl_algo.h **** 
2729:/Library/DaisyToolchain/0.2.0/arm/arm-none-eabi/include/c++/10.3.1/bits/stl_algo.h ****       const _Distance __len = __last - __first;
2730:/Library/DaisyToolchain/0.2.0/arm/arm-none-eabi/include/c++/10.3.1/bits/stl_algo.h ****       const _Pointer __buffer_last = __buffer + __len;
2731:/Library/DaisyToolchain/0.2.0/arm/arm-none-eabi/include/c++/10.3.1/bits/stl_algo.h **** 
2732:/Library/DaisyToolchain/0.2.0/arm/arm-none-eabi/include/c++/10.3.1/bits/stl_algo.h ****       _Distance __step_size = _S_chunk_size;
2733:/Library/DaisyToolchain/0.2.0/arm/arm-none-eabi/include/c++/10.3.1/bits/stl_algo.h ****       std::__chunk_insertion_sort(__first, __last, __step_size, __comp);
2734:/Library/DaisyToolchain/0.2.0/arm/arm-none-eabi/include/c++/10.3.1/bits/stl_algo.h **** 
2735:/Library/DaisyToolchain/0.2.0/arm/arm-none-eabi/include/c++/10.3.1/bits/stl_algo.h ****       while (__step_size < __len)
ARM GAS  /var/folders/th/s5djnwg15xxc0dk87c413f_h0000gn/T//ccCW3aXI.s 			page 130


2736:/Library/DaisyToolchain/0.2.0/arm/arm-none-eabi/include/c++/10.3.1/bits/stl_algo.h **** 	{
2737:/Library/DaisyToolchain/0.2.0/arm/arm-none-eabi/include/c++/10.3.1/bits/stl_algo.h **** 	  std::__merge_sort_loop(__first, __last, __buffer,
2738:/Library/DaisyToolchain/0.2.0/arm/arm-none-eabi/include/c++/10.3.1/bits/stl_algo.h **** 				 __step_size, __comp);
2739:/Library/DaisyToolchain/0.2.0/arm/arm-none-eabi/include/c++/10.3.1/bits/stl_algo.h **** 	  __step_size *= 2;
2740:/Library/DaisyToolchain/0.2.0/arm/arm-none-eabi/include/c++/10.3.1/bits/stl_algo.h **** 	  std::__merge_sort_loop(__buffer, __buffer_last, __first,
2741:/Library/DaisyToolchain/0.2.0/arm/arm-none-eabi/include/c++/10.3.1/bits/stl_algo.h **** 				 __step_size, __comp);
2742:/Library/DaisyToolchain/0.2.0/arm/arm-none-eabi/include/c++/10.3.1/bits/stl_algo.h **** 	  __step_size *= 2;
2743:/Library/DaisyToolchain/0.2.0/arm/arm-none-eabi/include/c++/10.3.1/bits/stl_algo.h **** 	}
2744:/Library/DaisyToolchain/0.2.0/arm/arm-none-eabi/include/c++/10.3.1/bits/stl_algo.h ****     }
2745:/Library/DaisyToolchain/0.2.0/arm/arm-none-eabi/include/c++/10.3.1/bits/stl_algo.h **** 
2746:/Library/DaisyToolchain/0.2.0/arm/arm-none-eabi/include/c++/10.3.1/bits/stl_algo.h ****   template<typename _RandomAccessIterator, typename _Pointer,
2747:/Library/DaisyToolchain/0.2.0/arm/arm-none-eabi/include/c++/10.3.1/bits/stl_algo.h **** 	   typename _Distance, typename _Compare>
2748:/Library/DaisyToolchain/0.2.0/arm/arm-none-eabi/include/c++/10.3.1/bits/stl_algo.h ****     void
2749:/Library/DaisyToolchain/0.2.0/arm/arm-none-eabi/include/c++/10.3.1/bits/stl_algo.h ****     __stable_sort_adaptive(_RandomAccessIterator __first,
2750:/Library/DaisyToolchain/0.2.0/arm/arm-none-eabi/include/c++/10.3.1/bits/stl_algo.h **** 			   _RandomAccessIterator __last,
2751:/Library/DaisyToolchain/0.2.0/arm/arm-none-eabi/include/c++/10.3.1/bits/stl_algo.h **** 			   _Pointer __buffer, _Distance __buffer_size,
2752:/Library/DaisyToolchain/0.2.0/arm/arm-none-eabi/include/c++/10.3.1/bits/stl_algo.h **** 			   _Compare __comp)
2753:/Library/DaisyToolchain/0.2.0/arm/arm-none-eabi/include/c++/10.3.1/bits/stl_algo.h ****     {
2754:/Library/DaisyToolchain/0.2.0/arm/arm-none-eabi/include/c++/10.3.1/bits/stl_algo.h ****       const _Distance __len = (__last - __first + 1) / 2;
2755:/Library/DaisyToolchain/0.2.0/arm/arm-none-eabi/include/c++/10.3.1/bits/stl_algo.h ****       const _RandomAccessIterator __middle = __first + __len;
2756:/Library/DaisyToolchain/0.2.0/arm/arm-none-eabi/include/c++/10.3.1/bits/stl_algo.h ****       if (__len > __buffer_size)
2757:/Library/DaisyToolchain/0.2.0/arm/arm-none-eabi/include/c++/10.3.1/bits/stl_algo.h **** 	{
2758:/Library/DaisyToolchain/0.2.0/arm/arm-none-eabi/include/c++/10.3.1/bits/stl_algo.h **** 	  std::__stable_sort_adaptive(__first, __middle, __buffer,
2759:/Library/DaisyToolchain/0.2.0/arm/arm-none-eabi/include/c++/10.3.1/bits/stl_algo.h **** 				      __buffer_size, __comp);
2760:/Library/DaisyToolchain/0.2.0/arm/arm-none-eabi/include/c++/10.3.1/bits/stl_algo.h **** 	  std::__stable_sort_adaptive(__middle, __last, __buffer,
2761:/Library/DaisyToolchain/0.2.0/arm/arm-none-eabi/include/c++/10.3.1/bits/stl_algo.h **** 				      __buffer_size, __comp);
2762:/Library/DaisyToolchain/0.2.0/arm/arm-none-eabi/include/c++/10.3.1/bits/stl_algo.h **** 	}
2763:/Library/DaisyToolchain/0.2.0/arm/arm-none-eabi/include/c++/10.3.1/bits/stl_algo.h ****       else
2764:/Library/DaisyToolchain/0.2.0/arm/arm-none-eabi/include/c++/10.3.1/bits/stl_algo.h **** 	{
2765:/Library/DaisyToolchain/0.2.0/arm/arm-none-eabi/include/c++/10.3.1/bits/stl_algo.h **** 	  std::__merge_sort_with_buffer(__first, __middle, __buffer, __comp);
2766:/Library/DaisyToolchain/0.2.0/arm/arm-none-eabi/include/c++/10.3.1/bits/stl_algo.h **** 	  std::__merge_sort_with_buffer(__middle, __last, __buffer, __comp);
2767:/Library/DaisyToolchain/0.2.0/arm/arm-none-eabi/include/c++/10.3.1/bits/stl_algo.h **** 	}
2768:/Library/DaisyToolchain/0.2.0/arm/arm-none-eabi/include/c++/10.3.1/bits/stl_algo.h ****       std::__merge_adaptive(__first, __middle, __last,
2769:/Library/DaisyToolchain/0.2.0/arm/arm-none-eabi/include/c++/10.3.1/bits/stl_algo.h **** 			    _Distance(__middle - __first),
2770:/Library/DaisyToolchain/0.2.0/arm/arm-none-eabi/include/c++/10.3.1/bits/stl_algo.h **** 			    _Distance(__last - __middle),
2771:/Library/DaisyToolchain/0.2.0/arm/arm-none-eabi/include/c++/10.3.1/bits/stl_algo.h **** 			    __buffer, __buffer_size,
2772:/Library/DaisyToolchain/0.2.0/arm/arm-none-eabi/include/c++/10.3.1/bits/stl_algo.h **** 			    __comp);
2773:/Library/DaisyToolchain/0.2.0/arm/arm-none-eabi/include/c++/10.3.1/bits/stl_algo.h ****     }
2774:/Library/DaisyToolchain/0.2.0/arm/arm-none-eabi/include/c++/10.3.1/bits/stl_algo.h **** 
2775:/Library/DaisyToolchain/0.2.0/arm/arm-none-eabi/include/c++/10.3.1/bits/stl_algo.h ****   /// This is a helper function for the stable sorting routines.
2776:/Library/DaisyToolchain/0.2.0/arm/arm-none-eabi/include/c++/10.3.1/bits/stl_algo.h ****   template<typename _RandomAccessIterator, typename _Compare>
2777:/Library/DaisyToolchain/0.2.0/arm/arm-none-eabi/include/c++/10.3.1/bits/stl_algo.h ****     void
2778:/Library/DaisyToolchain/0.2.0/arm/arm-none-eabi/include/c++/10.3.1/bits/stl_algo.h ****     __inplace_stable_sort(_RandomAccessIterator __first,
2779:/Library/DaisyToolchain/0.2.0/arm/arm-none-eabi/include/c++/10.3.1/bits/stl_algo.h **** 			  _RandomAccessIterator __last, _Compare __comp)
2780:/Library/DaisyToolchain/0.2.0/arm/arm-none-eabi/include/c++/10.3.1/bits/stl_algo.h ****     {
2781:/Library/DaisyToolchain/0.2.0/arm/arm-none-eabi/include/c++/10.3.1/bits/stl_algo.h ****       if (__last - __first < 15)
2782:/Library/DaisyToolchain/0.2.0/arm/arm-none-eabi/include/c++/10.3.1/bits/stl_algo.h **** 	{
2783:/Library/DaisyToolchain/0.2.0/arm/arm-none-eabi/include/c++/10.3.1/bits/stl_algo.h **** 	  std::__insertion_sort(__first, __last, __comp);
2784:/Library/DaisyToolchain/0.2.0/arm/arm-none-eabi/include/c++/10.3.1/bits/stl_algo.h **** 	  return;
2785:/Library/DaisyToolchain/0.2.0/arm/arm-none-eabi/include/c++/10.3.1/bits/stl_algo.h **** 	}
2786:/Library/DaisyToolchain/0.2.0/arm/arm-none-eabi/include/c++/10.3.1/bits/stl_algo.h ****       _RandomAccessIterator __middle = __first + (__last - __first) / 2;
2787:/Library/DaisyToolchain/0.2.0/arm/arm-none-eabi/include/c++/10.3.1/bits/stl_algo.h ****       std::__inplace_stable_sort(__first, __middle, __comp);
2788:/Library/DaisyToolchain/0.2.0/arm/arm-none-eabi/include/c++/10.3.1/bits/stl_algo.h ****       std::__inplace_stable_sort(__middle, __last, __comp);
2789:/Library/DaisyToolchain/0.2.0/arm/arm-none-eabi/include/c++/10.3.1/bits/stl_algo.h ****       std::__merge_without_buffer(__first, __middle, __last,
2790:/Library/DaisyToolchain/0.2.0/arm/arm-none-eabi/include/c++/10.3.1/bits/stl_algo.h **** 				  __middle - __first,
2791:/Library/DaisyToolchain/0.2.0/arm/arm-none-eabi/include/c++/10.3.1/bits/stl_algo.h **** 				  __last - __middle,
2792:/Library/DaisyToolchain/0.2.0/arm/arm-none-eabi/include/c++/10.3.1/bits/stl_algo.h **** 				  __comp);
ARM GAS  /var/folders/th/s5djnwg15xxc0dk87c413f_h0000gn/T//ccCW3aXI.s 			page 131


2793:/Library/DaisyToolchain/0.2.0/arm/arm-none-eabi/include/c++/10.3.1/bits/stl_algo.h ****     }
2794:/Library/DaisyToolchain/0.2.0/arm/arm-none-eabi/include/c++/10.3.1/bits/stl_algo.h **** 
2795:/Library/DaisyToolchain/0.2.0/arm/arm-none-eabi/include/c++/10.3.1/bits/stl_algo.h ****   // stable_sort
2796:/Library/DaisyToolchain/0.2.0/arm/arm-none-eabi/include/c++/10.3.1/bits/stl_algo.h **** 
2797:/Library/DaisyToolchain/0.2.0/arm/arm-none-eabi/include/c++/10.3.1/bits/stl_algo.h ****   // Set algorithms: includes, set_union, set_intersection, set_difference,
2798:/Library/DaisyToolchain/0.2.0/arm/arm-none-eabi/include/c++/10.3.1/bits/stl_algo.h ****   // set_symmetric_difference.  All of these algorithms have the precondition
2799:/Library/DaisyToolchain/0.2.0/arm/arm-none-eabi/include/c++/10.3.1/bits/stl_algo.h ****   // that their input ranges are sorted and the postcondition that their output
2800:/Library/DaisyToolchain/0.2.0/arm/arm-none-eabi/include/c++/10.3.1/bits/stl_algo.h ****   // ranges are sorted.
2801:/Library/DaisyToolchain/0.2.0/arm/arm-none-eabi/include/c++/10.3.1/bits/stl_algo.h **** 
2802:/Library/DaisyToolchain/0.2.0/arm/arm-none-eabi/include/c++/10.3.1/bits/stl_algo.h ****   template<typename _InputIterator1, typename _InputIterator2,
2803:/Library/DaisyToolchain/0.2.0/arm/arm-none-eabi/include/c++/10.3.1/bits/stl_algo.h **** 	   typename _Compare>
2804:/Library/DaisyToolchain/0.2.0/arm/arm-none-eabi/include/c++/10.3.1/bits/stl_algo.h ****     _GLIBCXX20_CONSTEXPR
2805:/Library/DaisyToolchain/0.2.0/arm/arm-none-eabi/include/c++/10.3.1/bits/stl_algo.h ****     bool
2806:/Library/DaisyToolchain/0.2.0/arm/arm-none-eabi/include/c++/10.3.1/bits/stl_algo.h ****     __includes(_InputIterator1 __first1, _InputIterator1 __last1,
2807:/Library/DaisyToolchain/0.2.0/arm/arm-none-eabi/include/c++/10.3.1/bits/stl_algo.h **** 	       _InputIterator2 __first2, _InputIterator2 __last2,
2808:/Library/DaisyToolchain/0.2.0/arm/arm-none-eabi/include/c++/10.3.1/bits/stl_algo.h **** 	       _Compare __comp)
2809:/Library/DaisyToolchain/0.2.0/arm/arm-none-eabi/include/c++/10.3.1/bits/stl_algo.h ****     {
2810:/Library/DaisyToolchain/0.2.0/arm/arm-none-eabi/include/c++/10.3.1/bits/stl_algo.h ****       while (__first1 != __last1 && __first2 != __last2)
2811:/Library/DaisyToolchain/0.2.0/arm/arm-none-eabi/include/c++/10.3.1/bits/stl_algo.h **** 	if (__comp(__first2, __first1))
2812:/Library/DaisyToolchain/0.2.0/arm/arm-none-eabi/include/c++/10.3.1/bits/stl_algo.h **** 	  return false;
2813:/Library/DaisyToolchain/0.2.0/arm/arm-none-eabi/include/c++/10.3.1/bits/stl_algo.h **** 	else if (__comp(__first1, __first2))
2814:/Library/DaisyToolchain/0.2.0/arm/arm-none-eabi/include/c++/10.3.1/bits/stl_algo.h **** 	  ++__first1;
2815:/Library/DaisyToolchain/0.2.0/arm/arm-none-eabi/include/c++/10.3.1/bits/stl_algo.h **** 	else
2816:/Library/DaisyToolchain/0.2.0/arm/arm-none-eabi/include/c++/10.3.1/bits/stl_algo.h **** 	  {
2817:/Library/DaisyToolchain/0.2.0/arm/arm-none-eabi/include/c++/10.3.1/bits/stl_algo.h **** 	    ++__first1;
2818:/Library/DaisyToolchain/0.2.0/arm/arm-none-eabi/include/c++/10.3.1/bits/stl_algo.h **** 	    ++__first2;
2819:/Library/DaisyToolchain/0.2.0/arm/arm-none-eabi/include/c++/10.3.1/bits/stl_algo.h **** 	  }
2820:/Library/DaisyToolchain/0.2.0/arm/arm-none-eabi/include/c++/10.3.1/bits/stl_algo.h **** 
2821:/Library/DaisyToolchain/0.2.0/arm/arm-none-eabi/include/c++/10.3.1/bits/stl_algo.h ****       return __first2 == __last2;
2822:/Library/DaisyToolchain/0.2.0/arm/arm-none-eabi/include/c++/10.3.1/bits/stl_algo.h ****     }
2823:/Library/DaisyToolchain/0.2.0/arm/arm-none-eabi/include/c++/10.3.1/bits/stl_algo.h **** 
2824:/Library/DaisyToolchain/0.2.0/arm/arm-none-eabi/include/c++/10.3.1/bits/stl_algo.h ****   /**
2825:/Library/DaisyToolchain/0.2.0/arm/arm-none-eabi/include/c++/10.3.1/bits/stl_algo.h ****    *  @brief Determines whether all elements of a sequence exists in a range.
2826:/Library/DaisyToolchain/0.2.0/arm/arm-none-eabi/include/c++/10.3.1/bits/stl_algo.h ****    *  @param  __first1  Start of search range.
2827:/Library/DaisyToolchain/0.2.0/arm/arm-none-eabi/include/c++/10.3.1/bits/stl_algo.h ****    *  @param  __last1   End of search range.
2828:/Library/DaisyToolchain/0.2.0/arm/arm-none-eabi/include/c++/10.3.1/bits/stl_algo.h ****    *  @param  __first2  Start of sequence
2829:/Library/DaisyToolchain/0.2.0/arm/arm-none-eabi/include/c++/10.3.1/bits/stl_algo.h ****    *  @param  __last2   End of sequence.
2830:/Library/DaisyToolchain/0.2.0/arm/arm-none-eabi/include/c++/10.3.1/bits/stl_algo.h ****    *  @return  True if each element in [__first2,__last2) is contained in order
2831:/Library/DaisyToolchain/0.2.0/arm/arm-none-eabi/include/c++/10.3.1/bits/stl_algo.h ****    *  within [__first1,__last1).  False otherwise.
2832:/Library/DaisyToolchain/0.2.0/arm/arm-none-eabi/include/c++/10.3.1/bits/stl_algo.h ****    *  @ingroup set_algorithms
2833:/Library/DaisyToolchain/0.2.0/arm/arm-none-eabi/include/c++/10.3.1/bits/stl_algo.h ****    *
2834:/Library/DaisyToolchain/0.2.0/arm/arm-none-eabi/include/c++/10.3.1/bits/stl_algo.h ****    *  This operation expects both [__first1,__last1) and
2835:/Library/DaisyToolchain/0.2.0/arm/arm-none-eabi/include/c++/10.3.1/bits/stl_algo.h ****    *  [__first2,__last2) to be sorted.  Searches for the presence of
2836:/Library/DaisyToolchain/0.2.0/arm/arm-none-eabi/include/c++/10.3.1/bits/stl_algo.h ****    *  each element in [__first2,__last2) within [__first1,__last1).
2837:/Library/DaisyToolchain/0.2.0/arm/arm-none-eabi/include/c++/10.3.1/bits/stl_algo.h ****    *  The iterators over each range only move forward, so this is a
2838:/Library/DaisyToolchain/0.2.0/arm/arm-none-eabi/include/c++/10.3.1/bits/stl_algo.h ****    *  linear algorithm.  If an element in [__first2,__last2) is not
2839:/Library/DaisyToolchain/0.2.0/arm/arm-none-eabi/include/c++/10.3.1/bits/stl_algo.h ****    *  found before the search iterator reaches @p __last2, false is
2840:/Library/DaisyToolchain/0.2.0/arm/arm-none-eabi/include/c++/10.3.1/bits/stl_algo.h ****    *  returned.
2841:/Library/DaisyToolchain/0.2.0/arm/arm-none-eabi/include/c++/10.3.1/bits/stl_algo.h ****   */
2842:/Library/DaisyToolchain/0.2.0/arm/arm-none-eabi/include/c++/10.3.1/bits/stl_algo.h ****   template<typename _InputIterator1, typename _InputIterator2>
2843:/Library/DaisyToolchain/0.2.0/arm/arm-none-eabi/include/c++/10.3.1/bits/stl_algo.h ****     _GLIBCXX20_CONSTEXPR
2844:/Library/DaisyToolchain/0.2.0/arm/arm-none-eabi/include/c++/10.3.1/bits/stl_algo.h ****     inline bool
2845:/Library/DaisyToolchain/0.2.0/arm/arm-none-eabi/include/c++/10.3.1/bits/stl_algo.h ****     includes(_InputIterator1 __first1, _InputIterator1 __last1,
2846:/Library/DaisyToolchain/0.2.0/arm/arm-none-eabi/include/c++/10.3.1/bits/stl_algo.h **** 	     _InputIterator2 __first2, _InputIterator2 __last2)
2847:/Library/DaisyToolchain/0.2.0/arm/arm-none-eabi/include/c++/10.3.1/bits/stl_algo.h ****     {
2848:/Library/DaisyToolchain/0.2.0/arm/arm-none-eabi/include/c++/10.3.1/bits/stl_algo.h ****       // concept requirements
2849:/Library/DaisyToolchain/0.2.0/arm/arm-none-eabi/include/c++/10.3.1/bits/stl_algo.h ****       __glibcxx_function_requires(_InputIteratorConcept<_InputIterator1>)
ARM GAS  /var/folders/th/s5djnwg15xxc0dk87c413f_h0000gn/T//ccCW3aXI.s 			page 132


2850:/Library/DaisyToolchain/0.2.0/arm/arm-none-eabi/include/c++/10.3.1/bits/stl_algo.h ****       __glibcxx_function_requires(_InputIteratorConcept<_InputIterator2>)
2851:/Library/DaisyToolchain/0.2.0/arm/arm-none-eabi/include/c++/10.3.1/bits/stl_algo.h ****       __glibcxx_function_requires(_LessThanOpConcept<
2852:/Library/DaisyToolchain/0.2.0/arm/arm-none-eabi/include/c++/10.3.1/bits/stl_algo.h **** 	    typename iterator_traits<_InputIterator1>::value_type,
2853:/Library/DaisyToolchain/0.2.0/arm/arm-none-eabi/include/c++/10.3.1/bits/stl_algo.h **** 	    typename iterator_traits<_InputIterator2>::value_type>)
2854:/Library/DaisyToolchain/0.2.0/arm/arm-none-eabi/include/c++/10.3.1/bits/stl_algo.h ****       __glibcxx_function_requires(_LessThanOpConcept<
2855:/Library/DaisyToolchain/0.2.0/arm/arm-none-eabi/include/c++/10.3.1/bits/stl_algo.h **** 	    typename iterator_traits<_InputIterator2>::value_type,
2856:/Library/DaisyToolchain/0.2.0/arm/arm-none-eabi/include/c++/10.3.1/bits/stl_algo.h **** 	    typename iterator_traits<_InputIterator1>::value_type>)
2857:/Library/DaisyToolchain/0.2.0/arm/arm-none-eabi/include/c++/10.3.1/bits/stl_algo.h ****       __glibcxx_requires_sorted_set(__first1, __last1, __first2);
2858:/Library/DaisyToolchain/0.2.0/arm/arm-none-eabi/include/c++/10.3.1/bits/stl_algo.h ****       __glibcxx_requires_sorted_set(__first2, __last2, __first1);
2859:/Library/DaisyToolchain/0.2.0/arm/arm-none-eabi/include/c++/10.3.1/bits/stl_algo.h ****       __glibcxx_requires_irreflexive2(__first1, __last1);
2860:/Library/DaisyToolchain/0.2.0/arm/arm-none-eabi/include/c++/10.3.1/bits/stl_algo.h ****       __glibcxx_requires_irreflexive2(__first2, __last2);
2861:/Library/DaisyToolchain/0.2.0/arm/arm-none-eabi/include/c++/10.3.1/bits/stl_algo.h **** 
2862:/Library/DaisyToolchain/0.2.0/arm/arm-none-eabi/include/c++/10.3.1/bits/stl_algo.h ****       return std::__includes(__first1, __last1, __first2, __last2,
2863:/Library/DaisyToolchain/0.2.0/arm/arm-none-eabi/include/c++/10.3.1/bits/stl_algo.h **** 			     __gnu_cxx::__ops::__iter_less_iter());
2864:/Library/DaisyToolchain/0.2.0/arm/arm-none-eabi/include/c++/10.3.1/bits/stl_algo.h ****     }
2865:/Library/DaisyToolchain/0.2.0/arm/arm-none-eabi/include/c++/10.3.1/bits/stl_algo.h **** 
2866:/Library/DaisyToolchain/0.2.0/arm/arm-none-eabi/include/c++/10.3.1/bits/stl_algo.h ****   /**
2867:/Library/DaisyToolchain/0.2.0/arm/arm-none-eabi/include/c++/10.3.1/bits/stl_algo.h ****    *  @brief Determines whether all elements of a sequence exists in a range
2868:/Library/DaisyToolchain/0.2.0/arm/arm-none-eabi/include/c++/10.3.1/bits/stl_algo.h ****    *  using comparison.
2869:/Library/DaisyToolchain/0.2.0/arm/arm-none-eabi/include/c++/10.3.1/bits/stl_algo.h ****    *  @ingroup set_algorithms
2870:/Library/DaisyToolchain/0.2.0/arm/arm-none-eabi/include/c++/10.3.1/bits/stl_algo.h ****    *  @param  __first1  Start of search range.
2871:/Library/DaisyToolchain/0.2.0/arm/arm-none-eabi/include/c++/10.3.1/bits/stl_algo.h ****    *  @param  __last1   End of search range.
2872:/Library/DaisyToolchain/0.2.0/arm/arm-none-eabi/include/c++/10.3.1/bits/stl_algo.h ****    *  @param  __first2  Start of sequence
2873:/Library/DaisyToolchain/0.2.0/arm/arm-none-eabi/include/c++/10.3.1/bits/stl_algo.h ****    *  @param  __last2   End of sequence.
2874:/Library/DaisyToolchain/0.2.0/arm/arm-none-eabi/include/c++/10.3.1/bits/stl_algo.h ****    *  @param  __comp    Comparison function to use.
2875:/Library/DaisyToolchain/0.2.0/arm/arm-none-eabi/include/c++/10.3.1/bits/stl_algo.h ****    *  @return True if each element in [__first2,__last2) is contained
2876:/Library/DaisyToolchain/0.2.0/arm/arm-none-eabi/include/c++/10.3.1/bits/stl_algo.h ****    *  in order within [__first1,__last1) according to comp.  False
2877:/Library/DaisyToolchain/0.2.0/arm/arm-none-eabi/include/c++/10.3.1/bits/stl_algo.h ****    *  otherwise.  @ingroup set_algorithms
2878:/Library/DaisyToolchain/0.2.0/arm/arm-none-eabi/include/c++/10.3.1/bits/stl_algo.h ****    *
2879:/Library/DaisyToolchain/0.2.0/arm/arm-none-eabi/include/c++/10.3.1/bits/stl_algo.h ****    *  This operation expects both [__first1,__last1) and
2880:/Library/DaisyToolchain/0.2.0/arm/arm-none-eabi/include/c++/10.3.1/bits/stl_algo.h ****    *  [__first2,__last2) to be sorted.  Searches for the presence of
2881:/Library/DaisyToolchain/0.2.0/arm/arm-none-eabi/include/c++/10.3.1/bits/stl_algo.h ****    *  each element in [__first2,__last2) within [__first1,__last1),
2882:/Library/DaisyToolchain/0.2.0/arm/arm-none-eabi/include/c++/10.3.1/bits/stl_algo.h ****    *  using comp to decide.  The iterators over each range only move
2883:/Library/DaisyToolchain/0.2.0/arm/arm-none-eabi/include/c++/10.3.1/bits/stl_algo.h ****    *  forward, so this is a linear algorithm.  If an element in
2884:/Library/DaisyToolchain/0.2.0/arm/arm-none-eabi/include/c++/10.3.1/bits/stl_algo.h ****    *  [__first2,__last2) is not found before the search iterator
2885:/Library/DaisyToolchain/0.2.0/arm/arm-none-eabi/include/c++/10.3.1/bits/stl_algo.h ****    *  reaches @p __last2, false is returned.
2886:/Library/DaisyToolchain/0.2.0/arm/arm-none-eabi/include/c++/10.3.1/bits/stl_algo.h ****   */
2887:/Library/DaisyToolchain/0.2.0/arm/arm-none-eabi/include/c++/10.3.1/bits/stl_algo.h ****   template<typename _InputIterator1, typename _InputIterator2,
2888:/Library/DaisyToolchain/0.2.0/arm/arm-none-eabi/include/c++/10.3.1/bits/stl_algo.h **** 	   typename _Compare>
2889:/Library/DaisyToolchain/0.2.0/arm/arm-none-eabi/include/c++/10.3.1/bits/stl_algo.h ****     _GLIBCXX20_CONSTEXPR
2890:/Library/DaisyToolchain/0.2.0/arm/arm-none-eabi/include/c++/10.3.1/bits/stl_algo.h ****     inline bool
2891:/Library/DaisyToolchain/0.2.0/arm/arm-none-eabi/include/c++/10.3.1/bits/stl_algo.h ****     includes(_InputIterator1 __first1, _InputIterator1 __last1,
2892:/Library/DaisyToolchain/0.2.0/arm/arm-none-eabi/include/c++/10.3.1/bits/stl_algo.h **** 	     _InputIterator2 __first2, _InputIterator2 __last2,
2893:/Library/DaisyToolchain/0.2.0/arm/arm-none-eabi/include/c++/10.3.1/bits/stl_algo.h **** 	     _Compare __comp)
2894:/Library/DaisyToolchain/0.2.0/arm/arm-none-eabi/include/c++/10.3.1/bits/stl_algo.h ****     {
2895:/Library/DaisyToolchain/0.2.0/arm/arm-none-eabi/include/c++/10.3.1/bits/stl_algo.h ****       // concept requirements
2896:/Library/DaisyToolchain/0.2.0/arm/arm-none-eabi/include/c++/10.3.1/bits/stl_algo.h ****       __glibcxx_function_requires(_InputIteratorConcept<_InputIterator1>)
2897:/Library/DaisyToolchain/0.2.0/arm/arm-none-eabi/include/c++/10.3.1/bits/stl_algo.h ****       __glibcxx_function_requires(_InputIteratorConcept<_InputIterator2>)
2898:/Library/DaisyToolchain/0.2.0/arm/arm-none-eabi/include/c++/10.3.1/bits/stl_algo.h ****       __glibcxx_function_requires(_BinaryPredicateConcept<_Compare,
2899:/Library/DaisyToolchain/0.2.0/arm/arm-none-eabi/include/c++/10.3.1/bits/stl_algo.h **** 	    typename iterator_traits<_InputIterator1>::value_type,
2900:/Library/DaisyToolchain/0.2.0/arm/arm-none-eabi/include/c++/10.3.1/bits/stl_algo.h **** 	    typename iterator_traits<_InputIterator2>::value_type>)
2901:/Library/DaisyToolchain/0.2.0/arm/arm-none-eabi/include/c++/10.3.1/bits/stl_algo.h ****       __glibcxx_function_requires(_BinaryPredicateConcept<_Compare,
2902:/Library/DaisyToolchain/0.2.0/arm/arm-none-eabi/include/c++/10.3.1/bits/stl_algo.h **** 	    typename iterator_traits<_InputIterator2>::value_type,
2903:/Library/DaisyToolchain/0.2.0/arm/arm-none-eabi/include/c++/10.3.1/bits/stl_algo.h **** 	    typename iterator_traits<_InputIterator1>::value_type>)
2904:/Library/DaisyToolchain/0.2.0/arm/arm-none-eabi/include/c++/10.3.1/bits/stl_algo.h ****       __glibcxx_requires_sorted_set_pred(__first1, __last1, __first2, __comp);
2905:/Library/DaisyToolchain/0.2.0/arm/arm-none-eabi/include/c++/10.3.1/bits/stl_algo.h ****       __glibcxx_requires_sorted_set_pred(__first2, __last2, __first1, __comp);
2906:/Library/DaisyToolchain/0.2.0/arm/arm-none-eabi/include/c++/10.3.1/bits/stl_algo.h ****       __glibcxx_requires_irreflexive_pred2(__first1, __last1, __comp);
ARM GAS  /var/folders/th/s5djnwg15xxc0dk87c413f_h0000gn/T//ccCW3aXI.s 			page 133


2907:/Library/DaisyToolchain/0.2.0/arm/arm-none-eabi/include/c++/10.3.1/bits/stl_algo.h ****       __glibcxx_requires_irreflexive_pred2(__first2, __last2, __comp);
2908:/Library/DaisyToolchain/0.2.0/arm/arm-none-eabi/include/c++/10.3.1/bits/stl_algo.h **** 
2909:/Library/DaisyToolchain/0.2.0/arm/arm-none-eabi/include/c++/10.3.1/bits/stl_algo.h ****       return std::__includes(__first1, __last1, __first2, __last2,
2910:/Library/DaisyToolchain/0.2.0/arm/arm-none-eabi/include/c++/10.3.1/bits/stl_algo.h **** 			     __gnu_cxx::__ops::__iter_comp_iter(__comp));
2911:/Library/DaisyToolchain/0.2.0/arm/arm-none-eabi/include/c++/10.3.1/bits/stl_algo.h ****     }
2912:/Library/DaisyToolchain/0.2.0/arm/arm-none-eabi/include/c++/10.3.1/bits/stl_algo.h **** 
2913:/Library/DaisyToolchain/0.2.0/arm/arm-none-eabi/include/c++/10.3.1/bits/stl_algo.h ****   // nth_element
2914:/Library/DaisyToolchain/0.2.0/arm/arm-none-eabi/include/c++/10.3.1/bits/stl_algo.h ****   // merge
2915:/Library/DaisyToolchain/0.2.0/arm/arm-none-eabi/include/c++/10.3.1/bits/stl_algo.h ****   // set_difference
2916:/Library/DaisyToolchain/0.2.0/arm/arm-none-eabi/include/c++/10.3.1/bits/stl_algo.h ****   // set_intersection
2917:/Library/DaisyToolchain/0.2.0/arm/arm-none-eabi/include/c++/10.3.1/bits/stl_algo.h ****   // set_union
2918:/Library/DaisyToolchain/0.2.0/arm/arm-none-eabi/include/c++/10.3.1/bits/stl_algo.h ****   // stable_sort
2919:/Library/DaisyToolchain/0.2.0/arm/arm-none-eabi/include/c++/10.3.1/bits/stl_algo.h ****   // set_symmetric_difference
2920:/Library/DaisyToolchain/0.2.0/arm/arm-none-eabi/include/c++/10.3.1/bits/stl_algo.h ****   // min_element
2921:/Library/DaisyToolchain/0.2.0/arm/arm-none-eabi/include/c++/10.3.1/bits/stl_algo.h ****   // max_element
2922:/Library/DaisyToolchain/0.2.0/arm/arm-none-eabi/include/c++/10.3.1/bits/stl_algo.h **** 
2923:/Library/DaisyToolchain/0.2.0/arm/arm-none-eabi/include/c++/10.3.1/bits/stl_algo.h ****   template<typename _BidirectionalIterator, typename _Compare>
2924:/Library/DaisyToolchain/0.2.0/arm/arm-none-eabi/include/c++/10.3.1/bits/stl_algo.h ****     _GLIBCXX20_CONSTEXPR
2925:/Library/DaisyToolchain/0.2.0/arm/arm-none-eabi/include/c++/10.3.1/bits/stl_algo.h ****     bool
2926:/Library/DaisyToolchain/0.2.0/arm/arm-none-eabi/include/c++/10.3.1/bits/stl_algo.h ****     __next_permutation(_BidirectionalIterator __first,
2927:/Library/DaisyToolchain/0.2.0/arm/arm-none-eabi/include/c++/10.3.1/bits/stl_algo.h **** 		       _BidirectionalIterator __last, _Compare __comp)
2928:/Library/DaisyToolchain/0.2.0/arm/arm-none-eabi/include/c++/10.3.1/bits/stl_algo.h ****     {
2929:/Library/DaisyToolchain/0.2.0/arm/arm-none-eabi/include/c++/10.3.1/bits/stl_algo.h ****       if (__first == __last)
2930:/Library/DaisyToolchain/0.2.0/arm/arm-none-eabi/include/c++/10.3.1/bits/stl_algo.h **** 	return false;
2931:/Library/DaisyToolchain/0.2.0/arm/arm-none-eabi/include/c++/10.3.1/bits/stl_algo.h ****       _BidirectionalIterator __i = __first;
2932:/Library/DaisyToolchain/0.2.0/arm/arm-none-eabi/include/c++/10.3.1/bits/stl_algo.h ****       ++__i;
2933:/Library/DaisyToolchain/0.2.0/arm/arm-none-eabi/include/c++/10.3.1/bits/stl_algo.h ****       if (__i == __last)
2934:/Library/DaisyToolchain/0.2.0/arm/arm-none-eabi/include/c++/10.3.1/bits/stl_algo.h **** 	return false;
2935:/Library/DaisyToolchain/0.2.0/arm/arm-none-eabi/include/c++/10.3.1/bits/stl_algo.h ****       __i = __last;
2936:/Library/DaisyToolchain/0.2.0/arm/arm-none-eabi/include/c++/10.3.1/bits/stl_algo.h ****       --__i;
2937:/Library/DaisyToolchain/0.2.0/arm/arm-none-eabi/include/c++/10.3.1/bits/stl_algo.h **** 
2938:/Library/DaisyToolchain/0.2.0/arm/arm-none-eabi/include/c++/10.3.1/bits/stl_algo.h ****       for(;;)
2939:/Library/DaisyToolchain/0.2.0/arm/arm-none-eabi/include/c++/10.3.1/bits/stl_algo.h **** 	{
2940:/Library/DaisyToolchain/0.2.0/arm/arm-none-eabi/include/c++/10.3.1/bits/stl_algo.h **** 	  _BidirectionalIterator __ii = __i;
2941:/Library/DaisyToolchain/0.2.0/arm/arm-none-eabi/include/c++/10.3.1/bits/stl_algo.h **** 	  --__i;
2942:/Library/DaisyToolchain/0.2.0/arm/arm-none-eabi/include/c++/10.3.1/bits/stl_algo.h **** 	  if (__comp(__i, __ii))
2943:/Library/DaisyToolchain/0.2.0/arm/arm-none-eabi/include/c++/10.3.1/bits/stl_algo.h **** 	    {
2944:/Library/DaisyToolchain/0.2.0/arm/arm-none-eabi/include/c++/10.3.1/bits/stl_algo.h **** 	      _BidirectionalIterator __j = __last;
2945:/Library/DaisyToolchain/0.2.0/arm/arm-none-eabi/include/c++/10.3.1/bits/stl_algo.h **** 	      while (!__comp(__i, --__j))
2946:/Library/DaisyToolchain/0.2.0/arm/arm-none-eabi/include/c++/10.3.1/bits/stl_algo.h **** 		{}
2947:/Library/DaisyToolchain/0.2.0/arm/arm-none-eabi/include/c++/10.3.1/bits/stl_algo.h **** 	      std::iter_swap(__i, __j);
2948:/Library/DaisyToolchain/0.2.0/arm/arm-none-eabi/include/c++/10.3.1/bits/stl_algo.h **** 	      std::__reverse(__ii, __last,
2949:/Library/DaisyToolchain/0.2.0/arm/arm-none-eabi/include/c++/10.3.1/bits/stl_algo.h **** 			     std::__iterator_category(__first));
2950:/Library/DaisyToolchain/0.2.0/arm/arm-none-eabi/include/c++/10.3.1/bits/stl_algo.h **** 	      return true;
2951:/Library/DaisyToolchain/0.2.0/arm/arm-none-eabi/include/c++/10.3.1/bits/stl_algo.h **** 	    }
2952:/Library/DaisyToolchain/0.2.0/arm/arm-none-eabi/include/c++/10.3.1/bits/stl_algo.h **** 	  if (__i == __first)
2953:/Library/DaisyToolchain/0.2.0/arm/arm-none-eabi/include/c++/10.3.1/bits/stl_algo.h **** 	    {
2954:/Library/DaisyToolchain/0.2.0/arm/arm-none-eabi/include/c++/10.3.1/bits/stl_algo.h **** 	      std::__reverse(__first, __last,
2955:/Library/DaisyToolchain/0.2.0/arm/arm-none-eabi/include/c++/10.3.1/bits/stl_algo.h **** 			     std::__iterator_category(__first));
2956:/Library/DaisyToolchain/0.2.0/arm/arm-none-eabi/include/c++/10.3.1/bits/stl_algo.h **** 	      return false;
2957:/Library/DaisyToolchain/0.2.0/arm/arm-none-eabi/include/c++/10.3.1/bits/stl_algo.h **** 	    }
2958:/Library/DaisyToolchain/0.2.0/arm/arm-none-eabi/include/c++/10.3.1/bits/stl_algo.h **** 	}
2959:/Library/DaisyToolchain/0.2.0/arm/arm-none-eabi/include/c++/10.3.1/bits/stl_algo.h ****     }
2960:/Library/DaisyToolchain/0.2.0/arm/arm-none-eabi/include/c++/10.3.1/bits/stl_algo.h **** 
2961:/Library/DaisyToolchain/0.2.0/arm/arm-none-eabi/include/c++/10.3.1/bits/stl_algo.h ****   /**
2962:/Library/DaisyToolchain/0.2.0/arm/arm-none-eabi/include/c++/10.3.1/bits/stl_algo.h ****    *  @brief  Permute range into the next @e dictionary ordering.
2963:/Library/DaisyToolchain/0.2.0/arm/arm-none-eabi/include/c++/10.3.1/bits/stl_algo.h ****    *  @ingroup sorting_algorithms
ARM GAS  /var/folders/th/s5djnwg15xxc0dk87c413f_h0000gn/T//ccCW3aXI.s 			page 134


2964:/Library/DaisyToolchain/0.2.0/arm/arm-none-eabi/include/c++/10.3.1/bits/stl_algo.h ****    *  @param  __first  Start of range.
2965:/Library/DaisyToolchain/0.2.0/arm/arm-none-eabi/include/c++/10.3.1/bits/stl_algo.h ****    *  @param  __last   End of range.
2966:/Library/DaisyToolchain/0.2.0/arm/arm-none-eabi/include/c++/10.3.1/bits/stl_algo.h ****    *  @return  False if wrapped to first permutation, true otherwise.
2967:/Library/DaisyToolchain/0.2.0/arm/arm-none-eabi/include/c++/10.3.1/bits/stl_algo.h ****    *
2968:/Library/DaisyToolchain/0.2.0/arm/arm-none-eabi/include/c++/10.3.1/bits/stl_algo.h ****    *  Treats all permutations of the range as a set of @e dictionary sorted
2969:/Library/DaisyToolchain/0.2.0/arm/arm-none-eabi/include/c++/10.3.1/bits/stl_algo.h ****    *  sequences.  Permutes the current sequence into the next one of this set.
2970:/Library/DaisyToolchain/0.2.0/arm/arm-none-eabi/include/c++/10.3.1/bits/stl_algo.h ****    *  Returns true if there are more sequences to generate.  If the sequence
2971:/Library/DaisyToolchain/0.2.0/arm/arm-none-eabi/include/c++/10.3.1/bits/stl_algo.h ****    *  is the largest of the set, the smallest is generated and false returned.
2972:/Library/DaisyToolchain/0.2.0/arm/arm-none-eabi/include/c++/10.3.1/bits/stl_algo.h ****   */
2973:/Library/DaisyToolchain/0.2.0/arm/arm-none-eabi/include/c++/10.3.1/bits/stl_algo.h ****   template<typename _BidirectionalIterator>
2974:/Library/DaisyToolchain/0.2.0/arm/arm-none-eabi/include/c++/10.3.1/bits/stl_algo.h ****     _GLIBCXX20_CONSTEXPR
2975:/Library/DaisyToolchain/0.2.0/arm/arm-none-eabi/include/c++/10.3.1/bits/stl_algo.h ****     inline bool
2976:/Library/DaisyToolchain/0.2.0/arm/arm-none-eabi/include/c++/10.3.1/bits/stl_algo.h ****     next_permutation(_BidirectionalIterator __first,
2977:/Library/DaisyToolchain/0.2.0/arm/arm-none-eabi/include/c++/10.3.1/bits/stl_algo.h **** 		     _BidirectionalIterator __last)
2978:/Library/DaisyToolchain/0.2.0/arm/arm-none-eabi/include/c++/10.3.1/bits/stl_algo.h ****     {
2979:/Library/DaisyToolchain/0.2.0/arm/arm-none-eabi/include/c++/10.3.1/bits/stl_algo.h ****       // concept requirements
2980:/Library/DaisyToolchain/0.2.0/arm/arm-none-eabi/include/c++/10.3.1/bits/stl_algo.h ****       __glibcxx_function_requires(_BidirectionalIteratorConcept<
2981:/Library/DaisyToolchain/0.2.0/arm/arm-none-eabi/include/c++/10.3.1/bits/stl_algo.h **** 				  _BidirectionalIterator>)
2982:/Library/DaisyToolchain/0.2.0/arm/arm-none-eabi/include/c++/10.3.1/bits/stl_algo.h ****       __glibcxx_function_requires(_LessThanComparableConcept<
2983:/Library/DaisyToolchain/0.2.0/arm/arm-none-eabi/include/c++/10.3.1/bits/stl_algo.h **** 	    typename iterator_traits<_BidirectionalIterator>::value_type>)
2984:/Library/DaisyToolchain/0.2.0/arm/arm-none-eabi/include/c++/10.3.1/bits/stl_algo.h ****       __glibcxx_requires_valid_range(__first, __last);
2985:/Library/DaisyToolchain/0.2.0/arm/arm-none-eabi/include/c++/10.3.1/bits/stl_algo.h ****       __glibcxx_requires_irreflexive(__first, __last);
2986:/Library/DaisyToolchain/0.2.0/arm/arm-none-eabi/include/c++/10.3.1/bits/stl_algo.h **** 
2987:/Library/DaisyToolchain/0.2.0/arm/arm-none-eabi/include/c++/10.3.1/bits/stl_algo.h ****       return std::__next_permutation
2988:/Library/DaisyToolchain/0.2.0/arm/arm-none-eabi/include/c++/10.3.1/bits/stl_algo.h **** 	(__first, __last, __gnu_cxx::__ops::__iter_less_iter());
2989:/Library/DaisyToolchain/0.2.0/arm/arm-none-eabi/include/c++/10.3.1/bits/stl_algo.h ****     }
2990:/Library/DaisyToolchain/0.2.0/arm/arm-none-eabi/include/c++/10.3.1/bits/stl_algo.h **** 
2991:/Library/DaisyToolchain/0.2.0/arm/arm-none-eabi/include/c++/10.3.1/bits/stl_algo.h ****   /**
2992:/Library/DaisyToolchain/0.2.0/arm/arm-none-eabi/include/c++/10.3.1/bits/stl_algo.h ****    *  @brief  Permute range into the next @e dictionary ordering using
2993:/Library/DaisyToolchain/0.2.0/arm/arm-none-eabi/include/c++/10.3.1/bits/stl_algo.h ****    *          comparison functor.
2994:/Library/DaisyToolchain/0.2.0/arm/arm-none-eabi/include/c++/10.3.1/bits/stl_algo.h ****    *  @ingroup sorting_algorithms
2995:/Library/DaisyToolchain/0.2.0/arm/arm-none-eabi/include/c++/10.3.1/bits/stl_algo.h ****    *  @param  __first  Start of range.
2996:/Library/DaisyToolchain/0.2.0/arm/arm-none-eabi/include/c++/10.3.1/bits/stl_algo.h ****    *  @param  __last   End of range.
2997:/Library/DaisyToolchain/0.2.0/arm/arm-none-eabi/include/c++/10.3.1/bits/stl_algo.h ****    *  @param  __comp   A comparison functor.
2998:/Library/DaisyToolchain/0.2.0/arm/arm-none-eabi/include/c++/10.3.1/bits/stl_algo.h ****    *  @return  False if wrapped to first permutation, true otherwise.
2999:/Library/DaisyToolchain/0.2.0/arm/arm-none-eabi/include/c++/10.3.1/bits/stl_algo.h ****    *
3000:/Library/DaisyToolchain/0.2.0/arm/arm-none-eabi/include/c++/10.3.1/bits/stl_algo.h ****    *  Treats all permutations of the range [__first,__last) as a set of
3001:/Library/DaisyToolchain/0.2.0/arm/arm-none-eabi/include/c++/10.3.1/bits/stl_algo.h ****    *  @e dictionary sorted sequences ordered by @p __comp.  Permutes the current
3002:/Library/DaisyToolchain/0.2.0/arm/arm-none-eabi/include/c++/10.3.1/bits/stl_algo.h ****    *  sequence into the next one of this set.  Returns true if there are more
3003:/Library/DaisyToolchain/0.2.0/arm/arm-none-eabi/include/c++/10.3.1/bits/stl_algo.h ****    *  sequences to generate.  If the sequence is the largest of the set, the
3004:/Library/DaisyToolchain/0.2.0/arm/arm-none-eabi/include/c++/10.3.1/bits/stl_algo.h ****    *  smallest is generated and false returned.
3005:/Library/DaisyToolchain/0.2.0/arm/arm-none-eabi/include/c++/10.3.1/bits/stl_algo.h ****   */
3006:/Library/DaisyToolchain/0.2.0/arm/arm-none-eabi/include/c++/10.3.1/bits/stl_algo.h ****   template<typename _BidirectionalIterator, typename _Compare>
3007:/Library/DaisyToolchain/0.2.0/arm/arm-none-eabi/include/c++/10.3.1/bits/stl_algo.h ****     _GLIBCXX20_CONSTEXPR
3008:/Library/DaisyToolchain/0.2.0/arm/arm-none-eabi/include/c++/10.3.1/bits/stl_algo.h ****     inline bool
3009:/Library/DaisyToolchain/0.2.0/arm/arm-none-eabi/include/c++/10.3.1/bits/stl_algo.h ****     next_permutation(_BidirectionalIterator __first,
3010:/Library/DaisyToolchain/0.2.0/arm/arm-none-eabi/include/c++/10.3.1/bits/stl_algo.h **** 		     _BidirectionalIterator __last, _Compare __comp)
3011:/Library/DaisyToolchain/0.2.0/arm/arm-none-eabi/include/c++/10.3.1/bits/stl_algo.h ****     {
3012:/Library/DaisyToolchain/0.2.0/arm/arm-none-eabi/include/c++/10.3.1/bits/stl_algo.h ****       // concept requirements
3013:/Library/DaisyToolchain/0.2.0/arm/arm-none-eabi/include/c++/10.3.1/bits/stl_algo.h ****       __glibcxx_function_requires(_BidirectionalIteratorConcept<
3014:/Library/DaisyToolchain/0.2.0/arm/arm-none-eabi/include/c++/10.3.1/bits/stl_algo.h **** 				  _BidirectionalIterator>)
3015:/Library/DaisyToolchain/0.2.0/arm/arm-none-eabi/include/c++/10.3.1/bits/stl_algo.h ****       __glibcxx_function_requires(_BinaryPredicateConcept<_Compare,
3016:/Library/DaisyToolchain/0.2.0/arm/arm-none-eabi/include/c++/10.3.1/bits/stl_algo.h **** 	    typename iterator_traits<_BidirectionalIterator>::value_type,
3017:/Library/DaisyToolchain/0.2.0/arm/arm-none-eabi/include/c++/10.3.1/bits/stl_algo.h **** 	    typename iterator_traits<_BidirectionalIterator>::value_type>)
3018:/Library/DaisyToolchain/0.2.0/arm/arm-none-eabi/include/c++/10.3.1/bits/stl_algo.h ****       __glibcxx_requires_valid_range(__first, __last);
3019:/Library/DaisyToolchain/0.2.0/arm/arm-none-eabi/include/c++/10.3.1/bits/stl_algo.h ****       __glibcxx_requires_irreflexive_pred(__first, __last, __comp);
3020:/Library/DaisyToolchain/0.2.0/arm/arm-none-eabi/include/c++/10.3.1/bits/stl_algo.h **** 
ARM GAS  /var/folders/th/s5djnwg15xxc0dk87c413f_h0000gn/T//ccCW3aXI.s 			page 135


3021:/Library/DaisyToolchain/0.2.0/arm/arm-none-eabi/include/c++/10.3.1/bits/stl_algo.h ****       return std::__next_permutation
3022:/Library/DaisyToolchain/0.2.0/arm/arm-none-eabi/include/c++/10.3.1/bits/stl_algo.h **** 	(__first, __last, __gnu_cxx::__ops::__iter_comp_iter(__comp));
3023:/Library/DaisyToolchain/0.2.0/arm/arm-none-eabi/include/c++/10.3.1/bits/stl_algo.h ****     }
3024:/Library/DaisyToolchain/0.2.0/arm/arm-none-eabi/include/c++/10.3.1/bits/stl_algo.h **** 
3025:/Library/DaisyToolchain/0.2.0/arm/arm-none-eabi/include/c++/10.3.1/bits/stl_algo.h ****   template<typename _BidirectionalIterator, typename _Compare>
3026:/Library/DaisyToolchain/0.2.0/arm/arm-none-eabi/include/c++/10.3.1/bits/stl_algo.h ****     _GLIBCXX20_CONSTEXPR
3027:/Library/DaisyToolchain/0.2.0/arm/arm-none-eabi/include/c++/10.3.1/bits/stl_algo.h ****     bool
3028:/Library/DaisyToolchain/0.2.0/arm/arm-none-eabi/include/c++/10.3.1/bits/stl_algo.h ****     __prev_permutation(_BidirectionalIterator __first,
3029:/Library/DaisyToolchain/0.2.0/arm/arm-none-eabi/include/c++/10.3.1/bits/stl_algo.h **** 		       _BidirectionalIterator __last, _Compare __comp)
3030:/Library/DaisyToolchain/0.2.0/arm/arm-none-eabi/include/c++/10.3.1/bits/stl_algo.h ****     {
3031:/Library/DaisyToolchain/0.2.0/arm/arm-none-eabi/include/c++/10.3.1/bits/stl_algo.h ****       if (__first == __last)
3032:/Library/DaisyToolchain/0.2.0/arm/arm-none-eabi/include/c++/10.3.1/bits/stl_algo.h **** 	return false;
3033:/Library/DaisyToolchain/0.2.0/arm/arm-none-eabi/include/c++/10.3.1/bits/stl_algo.h ****       _BidirectionalIterator __i = __first;
3034:/Library/DaisyToolchain/0.2.0/arm/arm-none-eabi/include/c++/10.3.1/bits/stl_algo.h ****       ++__i;
3035:/Library/DaisyToolchain/0.2.0/arm/arm-none-eabi/include/c++/10.3.1/bits/stl_algo.h ****       if (__i == __last)
3036:/Library/DaisyToolchain/0.2.0/arm/arm-none-eabi/include/c++/10.3.1/bits/stl_algo.h **** 	return false;
3037:/Library/DaisyToolchain/0.2.0/arm/arm-none-eabi/include/c++/10.3.1/bits/stl_algo.h ****       __i = __last;
3038:/Library/DaisyToolchain/0.2.0/arm/arm-none-eabi/include/c++/10.3.1/bits/stl_algo.h ****       --__i;
3039:/Library/DaisyToolchain/0.2.0/arm/arm-none-eabi/include/c++/10.3.1/bits/stl_algo.h **** 
3040:/Library/DaisyToolchain/0.2.0/arm/arm-none-eabi/include/c++/10.3.1/bits/stl_algo.h ****       for(;;)
3041:/Library/DaisyToolchain/0.2.0/arm/arm-none-eabi/include/c++/10.3.1/bits/stl_algo.h **** 	{
3042:/Library/DaisyToolchain/0.2.0/arm/arm-none-eabi/include/c++/10.3.1/bits/stl_algo.h **** 	  _BidirectionalIterator __ii = __i;
3043:/Library/DaisyToolchain/0.2.0/arm/arm-none-eabi/include/c++/10.3.1/bits/stl_algo.h **** 	  --__i;
3044:/Library/DaisyToolchain/0.2.0/arm/arm-none-eabi/include/c++/10.3.1/bits/stl_algo.h **** 	  if (__comp(__ii, __i))
3045:/Library/DaisyToolchain/0.2.0/arm/arm-none-eabi/include/c++/10.3.1/bits/stl_algo.h **** 	    {
3046:/Library/DaisyToolchain/0.2.0/arm/arm-none-eabi/include/c++/10.3.1/bits/stl_algo.h **** 	      _BidirectionalIterator __j = __last;
3047:/Library/DaisyToolchain/0.2.0/arm/arm-none-eabi/include/c++/10.3.1/bits/stl_algo.h **** 	      while (!__comp(--__j, __i))
3048:/Library/DaisyToolchain/0.2.0/arm/arm-none-eabi/include/c++/10.3.1/bits/stl_algo.h **** 		{}
3049:/Library/DaisyToolchain/0.2.0/arm/arm-none-eabi/include/c++/10.3.1/bits/stl_algo.h **** 	      std::iter_swap(__i, __j);
3050:/Library/DaisyToolchain/0.2.0/arm/arm-none-eabi/include/c++/10.3.1/bits/stl_algo.h **** 	      std::__reverse(__ii, __last,
3051:/Library/DaisyToolchain/0.2.0/arm/arm-none-eabi/include/c++/10.3.1/bits/stl_algo.h **** 			     std::__iterator_category(__first));
3052:/Library/DaisyToolchain/0.2.0/arm/arm-none-eabi/include/c++/10.3.1/bits/stl_algo.h **** 	      return true;
3053:/Library/DaisyToolchain/0.2.0/arm/arm-none-eabi/include/c++/10.3.1/bits/stl_algo.h **** 	    }
3054:/Library/DaisyToolchain/0.2.0/arm/arm-none-eabi/include/c++/10.3.1/bits/stl_algo.h **** 	  if (__i == __first)
3055:/Library/DaisyToolchain/0.2.0/arm/arm-none-eabi/include/c++/10.3.1/bits/stl_algo.h **** 	    {
3056:/Library/DaisyToolchain/0.2.0/arm/arm-none-eabi/include/c++/10.3.1/bits/stl_algo.h **** 	      std::__reverse(__first, __last,
3057:/Library/DaisyToolchain/0.2.0/arm/arm-none-eabi/include/c++/10.3.1/bits/stl_algo.h **** 			     std::__iterator_category(__first));
3058:/Library/DaisyToolchain/0.2.0/arm/arm-none-eabi/include/c++/10.3.1/bits/stl_algo.h **** 	      return false;
3059:/Library/DaisyToolchain/0.2.0/arm/arm-none-eabi/include/c++/10.3.1/bits/stl_algo.h **** 	    }
3060:/Library/DaisyToolchain/0.2.0/arm/arm-none-eabi/include/c++/10.3.1/bits/stl_algo.h **** 	}
3061:/Library/DaisyToolchain/0.2.0/arm/arm-none-eabi/include/c++/10.3.1/bits/stl_algo.h ****     }
3062:/Library/DaisyToolchain/0.2.0/arm/arm-none-eabi/include/c++/10.3.1/bits/stl_algo.h **** 
3063:/Library/DaisyToolchain/0.2.0/arm/arm-none-eabi/include/c++/10.3.1/bits/stl_algo.h ****   /**
3064:/Library/DaisyToolchain/0.2.0/arm/arm-none-eabi/include/c++/10.3.1/bits/stl_algo.h ****    *  @brief  Permute range into the previous @e dictionary ordering.
3065:/Library/DaisyToolchain/0.2.0/arm/arm-none-eabi/include/c++/10.3.1/bits/stl_algo.h ****    *  @ingroup sorting_algorithms
3066:/Library/DaisyToolchain/0.2.0/arm/arm-none-eabi/include/c++/10.3.1/bits/stl_algo.h ****    *  @param  __first  Start of range.
3067:/Library/DaisyToolchain/0.2.0/arm/arm-none-eabi/include/c++/10.3.1/bits/stl_algo.h ****    *  @param  __last   End of range.
3068:/Library/DaisyToolchain/0.2.0/arm/arm-none-eabi/include/c++/10.3.1/bits/stl_algo.h ****    *  @return  False if wrapped to last permutation, true otherwise.
3069:/Library/DaisyToolchain/0.2.0/arm/arm-none-eabi/include/c++/10.3.1/bits/stl_algo.h ****    *
3070:/Library/DaisyToolchain/0.2.0/arm/arm-none-eabi/include/c++/10.3.1/bits/stl_algo.h ****    *  Treats all permutations of the range as a set of @e dictionary sorted
3071:/Library/DaisyToolchain/0.2.0/arm/arm-none-eabi/include/c++/10.3.1/bits/stl_algo.h ****    *  sequences.  Permutes the current sequence into the previous one of this
3072:/Library/DaisyToolchain/0.2.0/arm/arm-none-eabi/include/c++/10.3.1/bits/stl_algo.h ****    *  set.  Returns true if there are more sequences to generate.  If the
3073:/Library/DaisyToolchain/0.2.0/arm/arm-none-eabi/include/c++/10.3.1/bits/stl_algo.h ****    *  sequence is the smallest of the set, the largest is generated and false
3074:/Library/DaisyToolchain/0.2.0/arm/arm-none-eabi/include/c++/10.3.1/bits/stl_algo.h ****    *  returned.
3075:/Library/DaisyToolchain/0.2.0/arm/arm-none-eabi/include/c++/10.3.1/bits/stl_algo.h ****   */
3076:/Library/DaisyToolchain/0.2.0/arm/arm-none-eabi/include/c++/10.3.1/bits/stl_algo.h ****   template<typename _BidirectionalIterator>
3077:/Library/DaisyToolchain/0.2.0/arm/arm-none-eabi/include/c++/10.3.1/bits/stl_algo.h ****     _GLIBCXX20_CONSTEXPR
ARM GAS  /var/folders/th/s5djnwg15xxc0dk87c413f_h0000gn/T//ccCW3aXI.s 			page 136


3078:/Library/DaisyToolchain/0.2.0/arm/arm-none-eabi/include/c++/10.3.1/bits/stl_algo.h ****     inline bool
3079:/Library/DaisyToolchain/0.2.0/arm/arm-none-eabi/include/c++/10.3.1/bits/stl_algo.h ****     prev_permutation(_BidirectionalIterator __first,
3080:/Library/DaisyToolchain/0.2.0/arm/arm-none-eabi/include/c++/10.3.1/bits/stl_algo.h **** 		     _BidirectionalIterator __last)
3081:/Library/DaisyToolchain/0.2.0/arm/arm-none-eabi/include/c++/10.3.1/bits/stl_algo.h ****     {
3082:/Library/DaisyToolchain/0.2.0/arm/arm-none-eabi/include/c++/10.3.1/bits/stl_algo.h ****       // concept requirements
3083:/Library/DaisyToolchain/0.2.0/arm/arm-none-eabi/include/c++/10.3.1/bits/stl_algo.h ****       __glibcxx_function_requires(_BidirectionalIteratorConcept<
3084:/Library/DaisyToolchain/0.2.0/arm/arm-none-eabi/include/c++/10.3.1/bits/stl_algo.h **** 				  _BidirectionalIterator>)
3085:/Library/DaisyToolchain/0.2.0/arm/arm-none-eabi/include/c++/10.3.1/bits/stl_algo.h ****       __glibcxx_function_requires(_LessThanComparableConcept<
3086:/Library/DaisyToolchain/0.2.0/arm/arm-none-eabi/include/c++/10.3.1/bits/stl_algo.h **** 	    typename iterator_traits<_BidirectionalIterator>::value_type>)
3087:/Library/DaisyToolchain/0.2.0/arm/arm-none-eabi/include/c++/10.3.1/bits/stl_algo.h ****       __glibcxx_requires_valid_range(__first, __last);
3088:/Library/DaisyToolchain/0.2.0/arm/arm-none-eabi/include/c++/10.3.1/bits/stl_algo.h ****       __glibcxx_requires_irreflexive(__first, __last);
3089:/Library/DaisyToolchain/0.2.0/arm/arm-none-eabi/include/c++/10.3.1/bits/stl_algo.h **** 
3090:/Library/DaisyToolchain/0.2.0/arm/arm-none-eabi/include/c++/10.3.1/bits/stl_algo.h ****       return std::__prev_permutation(__first, __last,
3091:/Library/DaisyToolchain/0.2.0/arm/arm-none-eabi/include/c++/10.3.1/bits/stl_algo.h **** 				     __gnu_cxx::__ops::__iter_less_iter());
3092:/Library/DaisyToolchain/0.2.0/arm/arm-none-eabi/include/c++/10.3.1/bits/stl_algo.h ****     }
3093:/Library/DaisyToolchain/0.2.0/arm/arm-none-eabi/include/c++/10.3.1/bits/stl_algo.h **** 
3094:/Library/DaisyToolchain/0.2.0/arm/arm-none-eabi/include/c++/10.3.1/bits/stl_algo.h ****   /**
3095:/Library/DaisyToolchain/0.2.0/arm/arm-none-eabi/include/c++/10.3.1/bits/stl_algo.h ****    *  @brief  Permute range into the previous @e dictionary ordering using
3096:/Library/DaisyToolchain/0.2.0/arm/arm-none-eabi/include/c++/10.3.1/bits/stl_algo.h ****    *          comparison functor.
3097:/Library/DaisyToolchain/0.2.0/arm/arm-none-eabi/include/c++/10.3.1/bits/stl_algo.h ****    *  @ingroup sorting_algorithms
3098:/Library/DaisyToolchain/0.2.0/arm/arm-none-eabi/include/c++/10.3.1/bits/stl_algo.h ****    *  @param  __first  Start of range.
3099:/Library/DaisyToolchain/0.2.0/arm/arm-none-eabi/include/c++/10.3.1/bits/stl_algo.h ****    *  @param  __last   End of range.
3100:/Library/DaisyToolchain/0.2.0/arm/arm-none-eabi/include/c++/10.3.1/bits/stl_algo.h ****    *  @param  __comp   A comparison functor.
3101:/Library/DaisyToolchain/0.2.0/arm/arm-none-eabi/include/c++/10.3.1/bits/stl_algo.h ****    *  @return  False if wrapped to last permutation, true otherwise.
3102:/Library/DaisyToolchain/0.2.0/arm/arm-none-eabi/include/c++/10.3.1/bits/stl_algo.h ****    *
3103:/Library/DaisyToolchain/0.2.0/arm/arm-none-eabi/include/c++/10.3.1/bits/stl_algo.h ****    *  Treats all permutations of the range [__first,__last) as a set of
3104:/Library/DaisyToolchain/0.2.0/arm/arm-none-eabi/include/c++/10.3.1/bits/stl_algo.h ****    *  @e dictionary sorted sequences ordered by @p __comp.  Permutes the current
3105:/Library/DaisyToolchain/0.2.0/arm/arm-none-eabi/include/c++/10.3.1/bits/stl_algo.h ****    *  sequence into the previous one of this set.  Returns true if there are
3106:/Library/DaisyToolchain/0.2.0/arm/arm-none-eabi/include/c++/10.3.1/bits/stl_algo.h ****    *  more sequences to generate.  If the sequence is the smallest of the set,
3107:/Library/DaisyToolchain/0.2.0/arm/arm-none-eabi/include/c++/10.3.1/bits/stl_algo.h ****    *  the largest is generated and false returned.
3108:/Library/DaisyToolchain/0.2.0/arm/arm-none-eabi/include/c++/10.3.1/bits/stl_algo.h ****   */
3109:/Library/DaisyToolchain/0.2.0/arm/arm-none-eabi/include/c++/10.3.1/bits/stl_algo.h ****   template<typename _BidirectionalIterator, typename _Compare>
3110:/Library/DaisyToolchain/0.2.0/arm/arm-none-eabi/include/c++/10.3.1/bits/stl_algo.h ****     _GLIBCXX20_CONSTEXPR
3111:/Library/DaisyToolchain/0.2.0/arm/arm-none-eabi/include/c++/10.3.1/bits/stl_algo.h ****     inline bool
3112:/Library/DaisyToolchain/0.2.0/arm/arm-none-eabi/include/c++/10.3.1/bits/stl_algo.h ****     prev_permutation(_BidirectionalIterator __first,
3113:/Library/DaisyToolchain/0.2.0/arm/arm-none-eabi/include/c++/10.3.1/bits/stl_algo.h **** 		     _BidirectionalIterator __last, _Compare __comp)
3114:/Library/DaisyToolchain/0.2.0/arm/arm-none-eabi/include/c++/10.3.1/bits/stl_algo.h ****     {
3115:/Library/DaisyToolchain/0.2.0/arm/arm-none-eabi/include/c++/10.3.1/bits/stl_algo.h ****       // concept requirements
3116:/Library/DaisyToolchain/0.2.0/arm/arm-none-eabi/include/c++/10.3.1/bits/stl_algo.h ****       __glibcxx_function_requires(_BidirectionalIteratorConcept<
3117:/Library/DaisyToolchain/0.2.0/arm/arm-none-eabi/include/c++/10.3.1/bits/stl_algo.h **** 				  _BidirectionalIterator>)
3118:/Library/DaisyToolchain/0.2.0/arm/arm-none-eabi/include/c++/10.3.1/bits/stl_algo.h ****       __glibcxx_function_requires(_BinaryPredicateConcept<_Compare,
3119:/Library/DaisyToolchain/0.2.0/arm/arm-none-eabi/include/c++/10.3.1/bits/stl_algo.h **** 	    typename iterator_traits<_BidirectionalIterator>::value_type,
3120:/Library/DaisyToolchain/0.2.0/arm/arm-none-eabi/include/c++/10.3.1/bits/stl_algo.h **** 	    typename iterator_traits<_BidirectionalIterator>::value_type>)
3121:/Library/DaisyToolchain/0.2.0/arm/arm-none-eabi/include/c++/10.3.1/bits/stl_algo.h ****       __glibcxx_requires_valid_range(__first, __last);
3122:/Library/DaisyToolchain/0.2.0/arm/arm-none-eabi/include/c++/10.3.1/bits/stl_algo.h ****       __glibcxx_requires_irreflexive_pred(__first, __last, __comp);
3123:/Library/DaisyToolchain/0.2.0/arm/arm-none-eabi/include/c++/10.3.1/bits/stl_algo.h **** 
3124:/Library/DaisyToolchain/0.2.0/arm/arm-none-eabi/include/c++/10.3.1/bits/stl_algo.h ****       return std::__prev_permutation(__first, __last,
3125:/Library/DaisyToolchain/0.2.0/arm/arm-none-eabi/include/c++/10.3.1/bits/stl_algo.h **** 				__gnu_cxx::__ops::__iter_comp_iter(__comp));
3126:/Library/DaisyToolchain/0.2.0/arm/arm-none-eabi/include/c++/10.3.1/bits/stl_algo.h ****     }
3127:/Library/DaisyToolchain/0.2.0/arm/arm-none-eabi/include/c++/10.3.1/bits/stl_algo.h **** 
3128:/Library/DaisyToolchain/0.2.0/arm/arm-none-eabi/include/c++/10.3.1/bits/stl_algo.h ****   // replace
3129:/Library/DaisyToolchain/0.2.0/arm/arm-none-eabi/include/c++/10.3.1/bits/stl_algo.h ****   // replace_if
3130:/Library/DaisyToolchain/0.2.0/arm/arm-none-eabi/include/c++/10.3.1/bits/stl_algo.h **** 
3131:/Library/DaisyToolchain/0.2.0/arm/arm-none-eabi/include/c++/10.3.1/bits/stl_algo.h ****   template<typename _InputIterator, typename _OutputIterator,
3132:/Library/DaisyToolchain/0.2.0/arm/arm-none-eabi/include/c++/10.3.1/bits/stl_algo.h **** 	   typename _Predicate, typename _Tp>
3133:/Library/DaisyToolchain/0.2.0/arm/arm-none-eabi/include/c++/10.3.1/bits/stl_algo.h ****     _GLIBCXX20_CONSTEXPR
3134:/Library/DaisyToolchain/0.2.0/arm/arm-none-eabi/include/c++/10.3.1/bits/stl_algo.h ****     _OutputIterator
ARM GAS  /var/folders/th/s5djnwg15xxc0dk87c413f_h0000gn/T//ccCW3aXI.s 			page 137


3135:/Library/DaisyToolchain/0.2.0/arm/arm-none-eabi/include/c++/10.3.1/bits/stl_algo.h ****     __replace_copy_if(_InputIterator __first, _InputIterator __last,
3136:/Library/DaisyToolchain/0.2.0/arm/arm-none-eabi/include/c++/10.3.1/bits/stl_algo.h **** 		      _OutputIterator __result,
3137:/Library/DaisyToolchain/0.2.0/arm/arm-none-eabi/include/c++/10.3.1/bits/stl_algo.h **** 		      _Predicate __pred, const _Tp& __new_value)
3138:/Library/DaisyToolchain/0.2.0/arm/arm-none-eabi/include/c++/10.3.1/bits/stl_algo.h ****     {
3139:/Library/DaisyToolchain/0.2.0/arm/arm-none-eabi/include/c++/10.3.1/bits/stl_algo.h ****       for (; __first != __last; ++__first, (void)++__result)
3140:/Library/DaisyToolchain/0.2.0/arm/arm-none-eabi/include/c++/10.3.1/bits/stl_algo.h **** 	if (__pred(__first))
3141:/Library/DaisyToolchain/0.2.0/arm/arm-none-eabi/include/c++/10.3.1/bits/stl_algo.h **** 	  *__result = __new_value;
3142:/Library/DaisyToolchain/0.2.0/arm/arm-none-eabi/include/c++/10.3.1/bits/stl_algo.h **** 	else
3143:/Library/DaisyToolchain/0.2.0/arm/arm-none-eabi/include/c++/10.3.1/bits/stl_algo.h **** 	  *__result = *__first;
3144:/Library/DaisyToolchain/0.2.0/arm/arm-none-eabi/include/c++/10.3.1/bits/stl_algo.h ****       return __result;
3145:/Library/DaisyToolchain/0.2.0/arm/arm-none-eabi/include/c++/10.3.1/bits/stl_algo.h ****     }
3146:/Library/DaisyToolchain/0.2.0/arm/arm-none-eabi/include/c++/10.3.1/bits/stl_algo.h **** 
3147:/Library/DaisyToolchain/0.2.0/arm/arm-none-eabi/include/c++/10.3.1/bits/stl_algo.h ****   /**
3148:/Library/DaisyToolchain/0.2.0/arm/arm-none-eabi/include/c++/10.3.1/bits/stl_algo.h ****    *  @brief Copy a sequence, replacing each element of one value with another
3149:/Library/DaisyToolchain/0.2.0/arm/arm-none-eabi/include/c++/10.3.1/bits/stl_algo.h ****    *         value.
3150:/Library/DaisyToolchain/0.2.0/arm/arm-none-eabi/include/c++/10.3.1/bits/stl_algo.h ****    *  @param  __first      An input iterator.
3151:/Library/DaisyToolchain/0.2.0/arm/arm-none-eabi/include/c++/10.3.1/bits/stl_algo.h ****    *  @param  __last       An input iterator.
3152:/Library/DaisyToolchain/0.2.0/arm/arm-none-eabi/include/c++/10.3.1/bits/stl_algo.h ****    *  @param  __result     An output iterator.
3153:/Library/DaisyToolchain/0.2.0/arm/arm-none-eabi/include/c++/10.3.1/bits/stl_algo.h ****    *  @param  __old_value  The value to be replaced.
3154:/Library/DaisyToolchain/0.2.0/arm/arm-none-eabi/include/c++/10.3.1/bits/stl_algo.h ****    *  @param  __new_value  The replacement value.
3155:/Library/DaisyToolchain/0.2.0/arm/arm-none-eabi/include/c++/10.3.1/bits/stl_algo.h ****    *  @return   The end of the output sequence, @p result+(last-first).
3156:/Library/DaisyToolchain/0.2.0/arm/arm-none-eabi/include/c++/10.3.1/bits/stl_algo.h ****    *
3157:/Library/DaisyToolchain/0.2.0/arm/arm-none-eabi/include/c++/10.3.1/bits/stl_algo.h ****    *  Copies each element in the input range @p [__first,__last) to the
3158:/Library/DaisyToolchain/0.2.0/arm/arm-none-eabi/include/c++/10.3.1/bits/stl_algo.h ****    *  output range @p [__result,__result+(__last-__first)) replacing elements
3159:/Library/DaisyToolchain/0.2.0/arm/arm-none-eabi/include/c++/10.3.1/bits/stl_algo.h ****    *  equal to @p __old_value with @p __new_value.
3160:/Library/DaisyToolchain/0.2.0/arm/arm-none-eabi/include/c++/10.3.1/bits/stl_algo.h ****   */
3161:/Library/DaisyToolchain/0.2.0/arm/arm-none-eabi/include/c++/10.3.1/bits/stl_algo.h ****   template<typename _InputIterator, typename _OutputIterator, typename _Tp>
3162:/Library/DaisyToolchain/0.2.0/arm/arm-none-eabi/include/c++/10.3.1/bits/stl_algo.h ****     _GLIBCXX20_CONSTEXPR
3163:/Library/DaisyToolchain/0.2.0/arm/arm-none-eabi/include/c++/10.3.1/bits/stl_algo.h ****     inline _OutputIterator
3164:/Library/DaisyToolchain/0.2.0/arm/arm-none-eabi/include/c++/10.3.1/bits/stl_algo.h ****     replace_copy(_InputIterator __first, _InputIterator __last,
3165:/Library/DaisyToolchain/0.2.0/arm/arm-none-eabi/include/c++/10.3.1/bits/stl_algo.h **** 		 _OutputIterator __result,
3166:/Library/DaisyToolchain/0.2.0/arm/arm-none-eabi/include/c++/10.3.1/bits/stl_algo.h **** 		 const _Tp& __old_value, const _Tp& __new_value)
3167:/Library/DaisyToolchain/0.2.0/arm/arm-none-eabi/include/c++/10.3.1/bits/stl_algo.h ****     {
3168:/Library/DaisyToolchain/0.2.0/arm/arm-none-eabi/include/c++/10.3.1/bits/stl_algo.h ****       // concept requirements
3169:/Library/DaisyToolchain/0.2.0/arm/arm-none-eabi/include/c++/10.3.1/bits/stl_algo.h ****       __glibcxx_function_requires(_InputIteratorConcept<_InputIterator>)
3170:/Library/DaisyToolchain/0.2.0/arm/arm-none-eabi/include/c++/10.3.1/bits/stl_algo.h ****       __glibcxx_function_requires(_OutputIteratorConcept<_OutputIterator,
3171:/Library/DaisyToolchain/0.2.0/arm/arm-none-eabi/include/c++/10.3.1/bits/stl_algo.h **** 	    typename iterator_traits<_InputIterator>::value_type>)
3172:/Library/DaisyToolchain/0.2.0/arm/arm-none-eabi/include/c++/10.3.1/bits/stl_algo.h ****       __glibcxx_function_requires(_EqualOpConcept<
3173:/Library/DaisyToolchain/0.2.0/arm/arm-none-eabi/include/c++/10.3.1/bits/stl_algo.h **** 	    typename iterator_traits<_InputIterator>::value_type, _Tp>)
3174:/Library/DaisyToolchain/0.2.0/arm/arm-none-eabi/include/c++/10.3.1/bits/stl_algo.h ****       __glibcxx_requires_valid_range(__first, __last);
3175:/Library/DaisyToolchain/0.2.0/arm/arm-none-eabi/include/c++/10.3.1/bits/stl_algo.h **** 
3176:/Library/DaisyToolchain/0.2.0/arm/arm-none-eabi/include/c++/10.3.1/bits/stl_algo.h ****       return std::__replace_copy_if(__first, __last, __result,
3177:/Library/DaisyToolchain/0.2.0/arm/arm-none-eabi/include/c++/10.3.1/bits/stl_algo.h **** 			__gnu_cxx::__ops::__iter_equals_val(__old_value),
3178:/Library/DaisyToolchain/0.2.0/arm/arm-none-eabi/include/c++/10.3.1/bits/stl_algo.h **** 					      __new_value);
3179:/Library/DaisyToolchain/0.2.0/arm/arm-none-eabi/include/c++/10.3.1/bits/stl_algo.h ****     }
3180:/Library/DaisyToolchain/0.2.0/arm/arm-none-eabi/include/c++/10.3.1/bits/stl_algo.h **** 
3181:/Library/DaisyToolchain/0.2.0/arm/arm-none-eabi/include/c++/10.3.1/bits/stl_algo.h ****   /**
3182:/Library/DaisyToolchain/0.2.0/arm/arm-none-eabi/include/c++/10.3.1/bits/stl_algo.h ****    *  @brief Copy a sequence, replacing each value for which a predicate
3183:/Library/DaisyToolchain/0.2.0/arm/arm-none-eabi/include/c++/10.3.1/bits/stl_algo.h ****    *         returns true with another value.
3184:/Library/DaisyToolchain/0.2.0/arm/arm-none-eabi/include/c++/10.3.1/bits/stl_algo.h ****    *  @ingroup mutating_algorithms
3185:/Library/DaisyToolchain/0.2.0/arm/arm-none-eabi/include/c++/10.3.1/bits/stl_algo.h ****    *  @param  __first      An input iterator.
3186:/Library/DaisyToolchain/0.2.0/arm/arm-none-eabi/include/c++/10.3.1/bits/stl_algo.h ****    *  @param  __last       An input iterator.
3187:/Library/DaisyToolchain/0.2.0/arm/arm-none-eabi/include/c++/10.3.1/bits/stl_algo.h ****    *  @param  __result     An output iterator.
3188:/Library/DaisyToolchain/0.2.0/arm/arm-none-eabi/include/c++/10.3.1/bits/stl_algo.h ****    *  @param  __pred       A predicate.
3189:/Library/DaisyToolchain/0.2.0/arm/arm-none-eabi/include/c++/10.3.1/bits/stl_algo.h ****    *  @param  __new_value  The replacement value.
3190:/Library/DaisyToolchain/0.2.0/arm/arm-none-eabi/include/c++/10.3.1/bits/stl_algo.h ****    *  @return   The end of the output sequence, @p __result+(__last-__first).
3191:/Library/DaisyToolchain/0.2.0/arm/arm-none-eabi/include/c++/10.3.1/bits/stl_algo.h ****    *
ARM GAS  /var/folders/th/s5djnwg15xxc0dk87c413f_h0000gn/T//ccCW3aXI.s 			page 138


3192:/Library/DaisyToolchain/0.2.0/arm/arm-none-eabi/include/c++/10.3.1/bits/stl_algo.h ****    *  Copies each element in the range @p [__first,__last) to the range
3193:/Library/DaisyToolchain/0.2.0/arm/arm-none-eabi/include/c++/10.3.1/bits/stl_algo.h ****    *  @p [__result,__result+(__last-__first)) replacing elements for which
3194:/Library/DaisyToolchain/0.2.0/arm/arm-none-eabi/include/c++/10.3.1/bits/stl_algo.h ****    *  @p __pred returns true with @p __new_value.
3195:/Library/DaisyToolchain/0.2.0/arm/arm-none-eabi/include/c++/10.3.1/bits/stl_algo.h ****   */
3196:/Library/DaisyToolchain/0.2.0/arm/arm-none-eabi/include/c++/10.3.1/bits/stl_algo.h ****   template<typename _InputIterator, typename _OutputIterator,
3197:/Library/DaisyToolchain/0.2.0/arm/arm-none-eabi/include/c++/10.3.1/bits/stl_algo.h **** 	   typename _Predicate, typename _Tp>
3198:/Library/DaisyToolchain/0.2.0/arm/arm-none-eabi/include/c++/10.3.1/bits/stl_algo.h ****     _GLIBCXX20_CONSTEXPR
3199:/Library/DaisyToolchain/0.2.0/arm/arm-none-eabi/include/c++/10.3.1/bits/stl_algo.h ****     inline _OutputIterator
3200:/Library/DaisyToolchain/0.2.0/arm/arm-none-eabi/include/c++/10.3.1/bits/stl_algo.h ****     replace_copy_if(_InputIterator __first, _InputIterator __last,
3201:/Library/DaisyToolchain/0.2.0/arm/arm-none-eabi/include/c++/10.3.1/bits/stl_algo.h **** 		    _OutputIterator __result,
3202:/Library/DaisyToolchain/0.2.0/arm/arm-none-eabi/include/c++/10.3.1/bits/stl_algo.h **** 		    _Predicate __pred, const _Tp& __new_value)
3203:/Library/DaisyToolchain/0.2.0/arm/arm-none-eabi/include/c++/10.3.1/bits/stl_algo.h ****     {
3204:/Library/DaisyToolchain/0.2.0/arm/arm-none-eabi/include/c++/10.3.1/bits/stl_algo.h ****       // concept requirements
3205:/Library/DaisyToolchain/0.2.0/arm/arm-none-eabi/include/c++/10.3.1/bits/stl_algo.h ****       __glibcxx_function_requires(_InputIteratorConcept<_InputIterator>)
3206:/Library/DaisyToolchain/0.2.0/arm/arm-none-eabi/include/c++/10.3.1/bits/stl_algo.h ****       __glibcxx_function_requires(_OutputIteratorConcept<_OutputIterator,
3207:/Library/DaisyToolchain/0.2.0/arm/arm-none-eabi/include/c++/10.3.1/bits/stl_algo.h **** 	    typename iterator_traits<_InputIterator>::value_type>)
3208:/Library/DaisyToolchain/0.2.0/arm/arm-none-eabi/include/c++/10.3.1/bits/stl_algo.h ****       __glibcxx_function_requires(_UnaryPredicateConcept<_Predicate,
3209:/Library/DaisyToolchain/0.2.0/arm/arm-none-eabi/include/c++/10.3.1/bits/stl_algo.h **** 	    typename iterator_traits<_InputIterator>::value_type>)
3210:/Library/DaisyToolchain/0.2.0/arm/arm-none-eabi/include/c++/10.3.1/bits/stl_algo.h ****       __glibcxx_requires_valid_range(__first, __last);
3211:/Library/DaisyToolchain/0.2.0/arm/arm-none-eabi/include/c++/10.3.1/bits/stl_algo.h **** 
3212:/Library/DaisyToolchain/0.2.0/arm/arm-none-eabi/include/c++/10.3.1/bits/stl_algo.h ****       return std::__replace_copy_if(__first, __last, __result,
3213:/Library/DaisyToolchain/0.2.0/arm/arm-none-eabi/include/c++/10.3.1/bits/stl_algo.h **** 				__gnu_cxx::__ops::__pred_iter(__pred),
3214:/Library/DaisyToolchain/0.2.0/arm/arm-none-eabi/include/c++/10.3.1/bits/stl_algo.h **** 					      __new_value);
3215:/Library/DaisyToolchain/0.2.0/arm/arm-none-eabi/include/c++/10.3.1/bits/stl_algo.h ****     }
3216:/Library/DaisyToolchain/0.2.0/arm/arm-none-eabi/include/c++/10.3.1/bits/stl_algo.h **** 
3217:/Library/DaisyToolchain/0.2.0/arm/arm-none-eabi/include/c++/10.3.1/bits/stl_algo.h **** #if __cplusplus >= 201103L
3218:/Library/DaisyToolchain/0.2.0/arm/arm-none-eabi/include/c++/10.3.1/bits/stl_algo.h ****   /**
3219:/Library/DaisyToolchain/0.2.0/arm/arm-none-eabi/include/c++/10.3.1/bits/stl_algo.h ****    *  @brief  Determines whether the elements of a sequence are sorted.
3220:/Library/DaisyToolchain/0.2.0/arm/arm-none-eabi/include/c++/10.3.1/bits/stl_algo.h ****    *  @ingroup sorting_algorithms
3221:/Library/DaisyToolchain/0.2.0/arm/arm-none-eabi/include/c++/10.3.1/bits/stl_algo.h ****    *  @param  __first   An iterator.
3222:/Library/DaisyToolchain/0.2.0/arm/arm-none-eabi/include/c++/10.3.1/bits/stl_algo.h ****    *  @param  __last    Another iterator.
3223:/Library/DaisyToolchain/0.2.0/arm/arm-none-eabi/include/c++/10.3.1/bits/stl_algo.h ****    *  @return  True if the elements are sorted, false otherwise.
3224:/Library/DaisyToolchain/0.2.0/arm/arm-none-eabi/include/c++/10.3.1/bits/stl_algo.h ****   */
3225:/Library/DaisyToolchain/0.2.0/arm/arm-none-eabi/include/c++/10.3.1/bits/stl_algo.h ****   template<typename _ForwardIterator>
3226:/Library/DaisyToolchain/0.2.0/arm/arm-none-eabi/include/c++/10.3.1/bits/stl_algo.h ****     _GLIBCXX20_CONSTEXPR
3227:/Library/DaisyToolchain/0.2.0/arm/arm-none-eabi/include/c++/10.3.1/bits/stl_algo.h ****     inline bool
3228:/Library/DaisyToolchain/0.2.0/arm/arm-none-eabi/include/c++/10.3.1/bits/stl_algo.h ****     is_sorted(_ForwardIterator __first, _ForwardIterator __last)
3229:/Library/DaisyToolchain/0.2.0/arm/arm-none-eabi/include/c++/10.3.1/bits/stl_algo.h ****     { return std::is_sorted_until(__first, __last) == __last; }
3230:/Library/DaisyToolchain/0.2.0/arm/arm-none-eabi/include/c++/10.3.1/bits/stl_algo.h **** 
3231:/Library/DaisyToolchain/0.2.0/arm/arm-none-eabi/include/c++/10.3.1/bits/stl_algo.h ****   /**
3232:/Library/DaisyToolchain/0.2.0/arm/arm-none-eabi/include/c++/10.3.1/bits/stl_algo.h ****    *  @brief  Determines whether the elements of a sequence are sorted
3233:/Library/DaisyToolchain/0.2.0/arm/arm-none-eabi/include/c++/10.3.1/bits/stl_algo.h ****    *          according to a comparison functor.
3234:/Library/DaisyToolchain/0.2.0/arm/arm-none-eabi/include/c++/10.3.1/bits/stl_algo.h ****    *  @ingroup sorting_algorithms
3235:/Library/DaisyToolchain/0.2.0/arm/arm-none-eabi/include/c++/10.3.1/bits/stl_algo.h ****    *  @param  __first   An iterator.
3236:/Library/DaisyToolchain/0.2.0/arm/arm-none-eabi/include/c++/10.3.1/bits/stl_algo.h ****    *  @param  __last    Another iterator.
3237:/Library/DaisyToolchain/0.2.0/arm/arm-none-eabi/include/c++/10.3.1/bits/stl_algo.h ****    *  @param  __comp    A comparison functor.
3238:/Library/DaisyToolchain/0.2.0/arm/arm-none-eabi/include/c++/10.3.1/bits/stl_algo.h ****    *  @return  True if the elements are sorted, false otherwise.
3239:/Library/DaisyToolchain/0.2.0/arm/arm-none-eabi/include/c++/10.3.1/bits/stl_algo.h ****   */
3240:/Library/DaisyToolchain/0.2.0/arm/arm-none-eabi/include/c++/10.3.1/bits/stl_algo.h ****   template<typename _ForwardIterator, typename _Compare>
3241:/Library/DaisyToolchain/0.2.0/arm/arm-none-eabi/include/c++/10.3.1/bits/stl_algo.h ****     _GLIBCXX20_CONSTEXPR
3242:/Library/DaisyToolchain/0.2.0/arm/arm-none-eabi/include/c++/10.3.1/bits/stl_algo.h ****     inline bool
3243:/Library/DaisyToolchain/0.2.0/arm/arm-none-eabi/include/c++/10.3.1/bits/stl_algo.h ****     is_sorted(_ForwardIterator __first, _ForwardIterator __last,
3244:/Library/DaisyToolchain/0.2.0/arm/arm-none-eabi/include/c++/10.3.1/bits/stl_algo.h **** 	      _Compare __comp)
3245:/Library/DaisyToolchain/0.2.0/arm/arm-none-eabi/include/c++/10.3.1/bits/stl_algo.h ****     { return std::is_sorted_until(__first, __last, __comp) == __last; }
3246:/Library/DaisyToolchain/0.2.0/arm/arm-none-eabi/include/c++/10.3.1/bits/stl_algo.h **** 
3247:/Library/DaisyToolchain/0.2.0/arm/arm-none-eabi/include/c++/10.3.1/bits/stl_algo.h ****   template<typename _ForwardIterator, typename _Compare>
3248:/Library/DaisyToolchain/0.2.0/arm/arm-none-eabi/include/c++/10.3.1/bits/stl_algo.h ****     _GLIBCXX20_CONSTEXPR
ARM GAS  /var/folders/th/s5djnwg15xxc0dk87c413f_h0000gn/T//ccCW3aXI.s 			page 139


3249:/Library/DaisyToolchain/0.2.0/arm/arm-none-eabi/include/c++/10.3.1/bits/stl_algo.h ****     _ForwardIterator
3250:/Library/DaisyToolchain/0.2.0/arm/arm-none-eabi/include/c++/10.3.1/bits/stl_algo.h ****     __is_sorted_until(_ForwardIterator __first, _ForwardIterator __last,
3251:/Library/DaisyToolchain/0.2.0/arm/arm-none-eabi/include/c++/10.3.1/bits/stl_algo.h **** 		      _Compare __comp)
3252:/Library/DaisyToolchain/0.2.0/arm/arm-none-eabi/include/c++/10.3.1/bits/stl_algo.h ****     {
3253:/Library/DaisyToolchain/0.2.0/arm/arm-none-eabi/include/c++/10.3.1/bits/stl_algo.h ****       if (__first == __last)
3254:/Library/DaisyToolchain/0.2.0/arm/arm-none-eabi/include/c++/10.3.1/bits/stl_algo.h **** 	return __last;
3255:/Library/DaisyToolchain/0.2.0/arm/arm-none-eabi/include/c++/10.3.1/bits/stl_algo.h **** 
3256:/Library/DaisyToolchain/0.2.0/arm/arm-none-eabi/include/c++/10.3.1/bits/stl_algo.h ****       _ForwardIterator __next = __first;
3257:/Library/DaisyToolchain/0.2.0/arm/arm-none-eabi/include/c++/10.3.1/bits/stl_algo.h ****       for (++__next; __next != __last; __first = __next, (void)++__next)
3258:/Library/DaisyToolchain/0.2.0/arm/arm-none-eabi/include/c++/10.3.1/bits/stl_algo.h **** 	if (__comp(__next, __first))
3259:/Library/DaisyToolchain/0.2.0/arm/arm-none-eabi/include/c++/10.3.1/bits/stl_algo.h **** 	  return __next;
3260:/Library/DaisyToolchain/0.2.0/arm/arm-none-eabi/include/c++/10.3.1/bits/stl_algo.h ****       return __next;
3261:/Library/DaisyToolchain/0.2.0/arm/arm-none-eabi/include/c++/10.3.1/bits/stl_algo.h ****     }
3262:/Library/DaisyToolchain/0.2.0/arm/arm-none-eabi/include/c++/10.3.1/bits/stl_algo.h **** 
3263:/Library/DaisyToolchain/0.2.0/arm/arm-none-eabi/include/c++/10.3.1/bits/stl_algo.h ****   /**
3264:/Library/DaisyToolchain/0.2.0/arm/arm-none-eabi/include/c++/10.3.1/bits/stl_algo.h ****    *  @brief  Determines the end of a sorted sequence.
3265:/Library/DaisyToolchain/0.2.0/arm/arm-none-eabi/include/c++/10.3.1/bits/stl_algo.h ****    *  @ingroup sorting_algorithms
3266:/Library/DaisyToolchain/0.2.0/arm/arm-none-eabi/include/c++/10.3.1/bits/stl_algo.h ****    *  @param  __first   An iterator.
3267:/Library/DaisyToolchain/0.2.0/arm/arm-none-eabi/include/c++/10.3.1/bits/stl_algo.h ****    *  @param  __last    Another iterator.
3268:/Library/DaisyToolchain/0.2.0/arm/arm-none-eabi/include/c++/10.3.1/bits/stl_algo.h ****    *  @return  An iterator pointing to the last iterator i in [__first, __last)
3269:/Library/DaisyToolchain/0.2.0/arm/arm-none-eabi/include/c++/10.3.1/bits/stl_algo.h ****    *           for which the range [__first, i) is sorted.
3270:/Library/DaisyToolchain/0.2.0/arm/arm-none-eabi/include/c++/10.3.1/bits/stl_algo.h ****   */
3271:/Library/DaisyToolchain/0.2.0/arm/arm-none-eabi/include/c++/10.3.1/bits/stl_algo.h ****   template<typename _ForwardIterator>
3272:/Library/DaisyToolchain/0.2.0/arm/arm-none-eabi/include/c++/10.3.1/bits/stl_algo.h ****     _GLIBCXX20_CONSTEXPR
3273:/Library/DaisyToolchain/0.2.0/arm/arm-none-eabi/include/c++/10.3.1/bits/stl_algo.h ****     inline _ForwardIterator
3274:/Library/DaisyToolchain/0.2.0/arm/arm-none-eabi/include/c++/10.3.1/bits/stl_algo.h ****     is_sorted_until(_ForwardIterator __first, _ForwardIterator __last)
3275:/Library/DaisyToolchain/0.2.0/arm/arm-none-eabi/include/c++/10.3.1/bits/stl_algo.h ****     {
3276:/Library/DaisyToolchain/0.2.0/arm/arm-none-eabi/include/c++/10.3.1/bits/stl_algo.h ****       // concept requirements
3277:/Library/DaisyToolchain/0.2.0/arm/arm-none-eabi/include/c++/10.3.1/bits/stl_algo.h ****       __glibcxx_function_requires(_ForwardIteratorConcept<_ForwardIterator>)
3278:/Library/DaisyToolchain/0.2.0/arm/arm-none-eabi/include/c++/10.3.1/bits/stl_algo.h ****       __glibcxx_function_requires(_LessThanComparableConcept<
3279:/Library/DaisyToolchain/0.2.0/arm/arm-none-eabi/include/c++/10.3.1/bits/stl_algo.h **** 	    typename iterator_traits<_ForwardIterator>::value_type>)
3280:/Library/DaisyToolchain/0.2.0/arm/arm-none-eabi/include/c++/10.3.1/bits/stl_algo.h ****       __glibcxx_requires_valid_range(__first, __last);
3281:/Library/DaisyToolchain/0.2.0/arm/arm-none-eabi/include/c++/10.3.1/bits/stl_algo.h ****       __glibcxx_requires_irreflexive(__first, __last);
3282:/Library/DaisyToolchain/0.2.0/arm/arm-none-eabi/include/c++/10.3.1/bits/stl_algo.h **** 
3283:/Library/DaisyToolchain/0.2.0/arm/arm-none-eabi/include/c++/10.3.1/bits/stl_algo.h ****       return std::__is_sorted_until(__first, __last,
3284:/Library/DaisyToolchain/0.2.0/arm/arm-none-eabi/include/c++/10.3.1/bits/stl_algo.h **** 				    __gnu_cxx::__ops::__iter_less_iter());
3285:/Library/DaisyToolchain/0.2.0/arm/arm-none-eabi/include/c++/10.3.1/bits/stl_algo.h ****     }
3286:/Library/DaisyToolchain/0.2.0/arm/arm-none-eabi/include/c++/10.3.1/bits/stl_algo.h **** 
3287:/Library/DaisyToolchain/0.2.0/arm/arm-none-eabi/include/c++/10.3.1/bits/stl_algo.h ****   /**
3288:/Library/DaisyToolchain/0.2.0/arm/arm-none-eabi/include/c++/10.3.1/bits/stl_algo.h ****    *  @brief  Determines the end of a sorted sequence using comparison functor.
3289:/Library/DaisyToolchain/0.2.0/arm/arm-none-eabi/include/c++/10.3.1/bits/stl_algo.h ****    *  @ingroup sorting_algorithms
3290:/Library/DaisyToolchain/0.2.0/arm/arm-none-eabi/include/c++/10.3.1/bits/stl_algo.h ****    *  @param  __first   An iterator.
3291:/Library/DaisyToolchain/0.2.0/arm/arm-none-eabi/include/c++/10.3.1/bits/stl_algo.h ****    *  @param  __last    Another iterator.
3292:/Library/DaisyToolchain/0.2.0/arm/arm-none-eabi/include/c++/10.3.1/bits/stl_algo.h ****    *  @param  __comp    A comparison functor.
3293:/Library/DaisyToolchain/0.2.0/arm/arm-none-eabi/include/c++/10.3.1/bits/stl_algo.h ****    *  @return  An iterator pointing to the last iterator i in [__first, __last)
3294:/Library/DaisyToolchain/0.2.0/arm/arm-none-eabi/include/c++/10.3.1/bits/stl_algo.h ****    *           for which the range [__first, i) is sorted.
3295:/Library/DaisyToolchain/0.2.0/arm/arm-none-eabi/include/c++/10.3.1/bits/stl_algo.h ****   */
3296:/Library/DaisyToolchain/0.2.0/arm/arm-none-eabi/include/c++/10.3.1/bits/stl_algo.h ****   template<typename _ForwardIterator, typename _Compare>
3297:/Library/DaisyToolchain/0.2.0/arm/arm-none-eabi/include/c++/10.3.1/bits/stl_algo.h ****     _GLIBCXX20_CONSTEXPR
3298:/Library/DaisyToolchain/0.2.0/arm/arm-none-eabi/include/c++/10.3.1/bits/stl_algo.h ****     inline _ForwardIterator
3299:/Library/DaisyToolchain/0.2.0/arm/arm-none-eabi/include/c++/10.3.1/bits/stl_algo.h ****     is_sorted_until(_ForwardIterator __first, _ForwardIterator __last,
3300:/Library/DaisyToolchain/0.2.0/arm/arm-none-eabi/include/c++/10.3.1/bits/stl_algo.h **** 		    _Compare __comp)
3301:/Library/DaisyToolchain/0.2.0/arm/arm-none-eabi/include/c++/10.3.1/bits/stl_algo.h ****     {
3302:/Library/DaisyToolchain/0.2.0/arm/arm-none-eabi/include/c++/10.3.1/bits/stl_algo.h ****       // concept requirements
3303:/Library/DaisyToolchain/0.2.0/arm/arm-none-eabi/include/c++/10.3.1/bits/stl_algo.h ****       __glibcxx_function_requires(_ForwardIteratorConcept<_ForwardIterator>)
3304:/Library/DaisyToolchain/0.2.0/arm/arm-none-eabi/include/c++/10.3.1/bits/stl_algo.h ****       __glibcxx_function_requires(_BinaryPredicateConcept<_Compare,
3305:/Library/DaisyToolchain/0.2.0/arm/arm-none-eabi/include/c++/10.3.1/bits/stl_algo.h **** 	    typename iterator_traits<_ForwardIterator>::value_type,
ARM GAS  /var/folders/th/s5djnwg15xxc0dk87c413f_h0000gn/T//ccCW3aXI.s 			page 140


3306:/Library/DaisyToolchain/0.2.0/arm/arm-none-eabi/include/c++/10.3.1/bits/stl_algo.h **** 	    typename iterator_traits<_ForwardIterator>::value_type>)
3307:/Library/DaisyToolchain/0.2.0/arm/arm-none-eabi/include/c++/10.3.1/bits/stl_algo.h ****       __glibcxx_requires_valid_range(__first, __last);
3308:/Library/DaisyToolchain/0.2.0/arm/arm-none-eabi/include/c++/10.3.1/bits/stl_algo.h ****       __glibcxx_requires_irreflexive_pred(__first, __last, __comp);
3309:/Library/DaisyToolchain/0.2.0/arm/arm-none-eabi/include/c++/10.3.1/bits/stl_algo.h **** 
3310:/Library/DaisyToolchain/0.2.0/arm/arm-none-eabi/include/c++/10.3.1/bits/stl_algo.h ****       return std::__is_sorted_until(__first, __last,
3311:/Library/DaisyToolchain/0.2.0/arm/arm-none-eabi/include/c++/10.3.1/bits/stl_algo.h **** 				    __gnu_cxx::__ops::__iter_comp_iter(__comp));
3312:/Library/DaisyToolchain/0.2.0/arm/arm-none-eabi/include/c++/10.3.1/bits/stl_algo.h ****     }
3313:/Library/DaisyToolchain/0.2.0/arm/arm-none-eabi/include/c++/10.3.1/bits/stl_algo.h **** 
3314:/Library/DaisyToolchain/0.2.0/arm/arm-none-eabi/include/c++/10.3.1/bits/stl_algo.h ****   /**
3315:/Library/DaisyToolchain/0.2.0/arm/arm-none-eabi/include/c++/10.3.1/bits/stl_algo.h ****    *  @brief  Determines min and max at once as an ordered pair.
3316:/Library/DaisyToolchain/0.2.0/arm/arm-none-eabi/include/c++/10.3.1/bits/stl_algo.h ****    *  @ingroup sorting_algorithms
3317:/Library/DaisyToolchain/0.2.0/arm/arm-none-eabi/include/c++/10.3.1/bits/stl_algo.h ****    *  @param  __a  A thing of arbitrary type.
3318:/Library/DaisyToolchain/0.2.0/arm/arm-none-eabi/include/c++/10.3.1/bits/stl_algo.h ****    *  @param  __b  Another thing of arbitrary type.
3319:/Library/DaisyToolchain/0.2.0/arm/arm-none-eabi/include/c++/10.3.1/bits/stl_algo.h ****    *  @return A pair(__b, __a) if __b is smaller than __a, pair(__a,
3320:/Library/DaisyToolchain/0.2.0/arm/arm-none-eabi/include/c++/10.3.1/bits/stl_algo.h ****    *  __b) otherwise.
3321:/Library/DaisyToolchain/0.2.0/arm/arm-none-eabi/include/c++/10.3.1/bits/stl_algo.h ****   */
3322:/Library/DaisyToolchain/0.2.0/arm/arm-none-eabi/include/c++/10.3.1/bits/stl_algo.h ****   template<typename _Tp>
3323:/Library/DaisyToolchain/0.2.0/arm/arm-none-eabi/include/c++/10.3.1/bits/stl_algo.h ****     _GLIBCXX14_CONSTEXPR
3324:/Library/DaisyToolchain/0.2.0/arm/arm-none-eabi/include/c++/10.3.1/bits/stl_algo.h ****     inline pair<const _Tp&, const _Tp&>
3325:/Library/DaisyToolchain/0.2.0/arm/arm-none-eabi/include/c++/10.3.1/bits/stl_algo.h ****     minmax(const _Tp& __a, const _Tp& __b)
3326:/Library/DaisyToolchain/0.2.0/arm/arm-none-eabi/include/c++/10.3.1/bits/stl_algo.h ****     {
3327:/Library/DaisyToolchain/0.2.0/arm/arm-none-eabi/include/c++/10.3.1/bits/stl_algo.h ****       // concept requirements
3328:/Library/DaisyToolchain/0.2.0/arm/arm-none-eabi/include/c++/10.3.1/bits/stl_algo.h ****       __glibcxx_function_requires(_LessThanComparableConcept<_Tp>)
3329:/Library/DaisyToolchain/0.2.0/arm/arm-none-eabi/include/c++/10.3.1/bits/stl_algo.h **** 
3330:/Library/DaisyToolchain/0.2.0/arm/arm-none-eabi/include/c++/10.3.1/bits/stl_algo.h ****       return __b < __a ? pair<const _Tp&, const _Tp&>(__b, __a)
3331:/Library/DaisyToolchain/0.2.0/arm/arm-none-eabi/include/c++/10.3.1/bits/stl_algo.h **** 		       : pair<const _Tp&, const _Tp&>(__a, __b);
3332:/Library/DaisyToolchain/0.2.0/arm/arm-none-eabi/include/c++/10.3.1/bits/stl_algo.h ****     }
3333:/Library/DaisyToolchain/0.2.0/arm/arm-none-eabi/include/c++/10.3.1/bits/stl_algo.h **** 
3334:/Library/DaisyToolchain/0.2.0/arm/arm-none-eabi/include/c++/10.3.1/bits/stl_algo.h ****   /**
3335:/Library/DaisyToolchain/0.2.0/arm/arm-none-eabi/include/c++/10.3.1/bits/stl_algo.h ****    *  @brief  Determines min and max at once as an ordered pair.
3336:/Library/DaisyToolchain/0.2.0/arm/arm-none-eabi/include/c++/10.3.1/bits/stl_algo.h ****    *  @ingroup sorting_algorithms
3337:/Library/DaisyToolchain/0.2.0/arm/arm-none-eabi/include/c++/10.3.1/bits/stl_algo.h ****    *  @param  __a  A thing of arbitrary type.
3338:/Library/DaisyToolchain/0.2.0/arm/arm-none-eabi/include/c++/10.3.1/bits/stl_algo.h ****    *  @param  __b  Another thing of arbitrary type.
3339:/Library/DaisyToolchain/0.2.0/arm/arm-none-eabi/include/c++/10.3.1/bits/stl_algo.h ****    *  @param  __comp  A @link comparison_functors comparison functor @endlink.
3340:/Library/DaisyToolchain/0.2.0/arm/arm-none-eabi/include/c++/10.3.1/bits/stl_algo.h ****    *  @return A pair(__b, __a) if __b is smaller than __a, pair(__a,
3341:/Library/DaisyToolchain/0.2.0/arm/arm-none-eabi/include/c++/10.3.1/bits/stl_algo.h ****    *  __b) otherwise.
3342:/Library/DaisyToolchain/0.2.0/arm/arm-none-eabi/include/c++/10.3.1/bits/stl_algo.h ****   */
3343:/Library/DaisyToolchain/0.2.0/arm/arm-none-eabi/include/c++/10.3.1/bits/stl_algo.h ****   template<typename _Tp, typename _Compare>
3344:/Library/DaisyToolchain/0.2.0/arm/arm-none-eabi/include/c++/10.3.1/bits/stl_algo.h ****     _GLIBCXX14_CONSTEXPR
3345:/Library/DaisyToolchain/0.2.0/arm/arm-none-eabi/include/c++/10.3.1/bits/stl_algo.h ****     inline pair<const _Tp&, const _Tp&>
3346:/Library/DaisyToolchain/0.2.0/arm/arm-none-eabi/include/c++/10.3.1/bits/stl_algo.h ****     minmax(const _Tp& __a, const _Tp& __b, _Compare __comp)
3347:/Library/DaisyToolchain/0.2.0/arm/arm-none-eabi/include/c++/10.3.1/bits/stl_algo.h ****     {
3348:/Library/DaisyToolchain/0.2.0/arm/arm-none-eabi/include/c++/10.3.1/bits/stl_algo.h ****       return __comp(__b, __a) ? pair<const _Tp&, const _Tp&>(__b, __a)
3349:/Library/DaisyToolchain/0.2.0/arm/arm-none-eabi/include/c++/10.3.1/bits/stl_algo.h **** 			      : pair<const _Tp&, const _Tp&>(__a, __b);
3350:/Library/DaisyToolchain/0.2.0/arm/arm-none-eabi/include/c++/10.3.1/bits/stl_algo.h ****     }
3351:/Library/DaisyToolchain/0.2.0/arm/arm-none-eabi/include/c++/10.3.1/bits/stl_algo.h **** 
3352:/Library/DaisyToolchain/0.2.0/arm/arm-none-eabi/include/c++/10.3.1/bits/stl_algo.h ****   template<typename _ForwardIterator, typename _Compare>
3353:/Library/DaisyToolchain/0.2.0/arm/arm-none-eabi/include/c++/10.3.1/bits/stl_algo.h ****     _GLIBCXX14_CONSTEXPR
3354:/Library/DaisyToolchain/0.2.0/arm/arm-none-eabi/include/c++/10.3.1/bits/stl_algo.h ****     pair<_ForwardIterator, _ForwardIterator>
3355:/Library/DaisyToolchain/0.2.0/arm/arm-none-eabi/include/c++/10.3.1/bits/stl_algo.h ****     __minmax_element(_ForwardIterator __first, _ForwardIterator __last,
3356:/Library/DaisyToolchain/0.2.0/arm/arm-none-eabi/include/c++/10.3.1/bits/stl_algo.h **** 		     _Compare __comp)
3357:/Library/DaisyToolchain/0.2.0/arm/arm-none-eabi/include/c++/10.3.1/bits/stl_algo.h ****     {
3358:/Library/DaisyToolchain/0.2.0/arm/arm-none-eabi/include/c++/10.3.1/bits/stl_algo.h ****       _ForwardIterator __next = __first;
3359:/Library/DaisyToolchain/0.2.0/arm/arm-none-eabi/include/c++/10.3.1/bits/stl_algo.h ****       if (__first == __last
3360:/Library/DaisyToolchain/0.2.0/arm/arm-none-eabi/include/c++/10.3.1/bits/stl_algo.h **** 	  || ++__next == __last)
3361:/Library/DaisyToolchain/0.2.0/arm/arm-none-eabi/include/c++/10.3.1/bits/stl_algo.h **** 	return std::make_pair(__first, __first);
3362:/Library/DaisyToolchain/0.2.0/arm/arm-none-eabi/include/c++/10.3.1/bits/stl_algo.h **** 
ARM GAS  /var/folders/th/s5djnwg15xxc0dk87c413f_h0000gn/T//ccCW3aXI.s 			page 141


3363:/Library/DaisyToolchain/0.2.0/arm/arm-none-eabi/include/c++/10.3.1/bits/stl_algo.h ****       _ForwardIterator __min{}, __max{};
3364:/Library/DaisyToolchain/0.2.0/arm/arm-none-eabi/include/c++/10.3.1/bits/stl_algo.h ****       if (__comp(__next, __first))
3365:/Library/DaisyToolchain/0.2.0/arm/arm-none-eabi/include/c++/10.3.1/bits/stl_algo.h **** 	{
3366:/Library/DaisyToolchain/0.2.0/arm/arm-none-eabi/include/c++/10.3.1/bits/stl_algo.h **** 	  __min = __next;
3367:/Library/DaisyToolchain/0.2.0/arm/arm-none-eabi/include/c++/10.3.1/bits/stl_algo.h **** 	  __max = __first;
3368:/Library/DaisyToolchain/0.2.0/arm/arm-none-eabi/include/c++/10.3.1/bits/stl_algo.h **** 	}
3369:/Library/DaisyToolchain/0.2.0/arm/arm-none-eabi/include/c++/10.3.1/bits/stl_algo.h ****       else
3370:/Library/DaisyToolchain/0.2.0/arm/arm-none-eabi/include/c++/10.3.1/bits/stl_algo.h **** 	{
3371:/Library/DaisyToolchain/0.2.0/arm/arm-none-eabi/include/c++/10.3.1/bits/stl_algo.h **** 	  __min = __first;
3372:/Library/DaisyToolchain/0.2.0/arm/arm-none-eabi/include/c++/10.3.1/bits/stl_algo.h **** 	  __max = __next;
3373:/Library/DaisyToolchain/0.2.0/arm/arm-none-eabi/include/c++/10.3.1/bits/stl_algo.h **** 	}
3374:/Library/DaisyToolchain/0.2.0/arm/arm-none-eabi/include/c++/10.3.1/bits/stl_algo.h **** 
3375:/Library/DaisyToolchain/0.2.0/arm/arm-none-eabi/include/c++/10.3.1/bits/stl_algo.h ****       __first = __next;
3376:/Library/DaisyToolchain/0.2.0/arm/arm-none-eabi/include/c++/10.3.1/bits/stl_algo.h ****       ++__first;
3377:/Library/DaisyToolchain/0.2.0/arm/arm-none-eabi/include/c++/10.3.1/bits/stl_algo.h **** 
3378:/Library/DaisyToolchain/0.2.0/arm/arm-none-eabi/include/c++/10.3.1/bits/stl_algo.h ****       while (__first != __last)
3379:/Library/DaisyToolchain/0.2.0/arm/arm-none-eabi/include/c++/10.3.1/bits/stl_algo.h **** 	{
3380:/Library/DaisyToolchain/0.2.0/arm/arm-none-eabi/include/c++/10.3.1/bits/stl_algo.h **** 	  __next = __first;
3381:/Library/DaisyToolchain/0.2.0/arm/arm-none-eabi/include/c++/10.3.1/bits/stl_algo.h **** 	  if (++__next == __last)
3382:/Library/DaisyToolchain/0.2.0/arm/arm-none-eabi/include/c++/10.3.1/bits/stl_algo.h **** 	    {
3383:/Library/DaisyToolchain/0.2.0/arm/arm-none-eabi/include/c++/10.3.1/bits/stl_algo.h **** 	      if (__comp(__first, __min))
3384:/Library/DaisyToolchain/0.2.0/arm/arm-none-eabi/include/c++/10.3.1/bits/stl_algo.h **** 		__min = __first;
3385:/Library/DaisyToolchain/0.2.0/arm/arm-none-eabi/include/c++/10.3.1/bits/stl_algo.h **** 	      else if (!__comp(__first, __max))
3386:/Library/DaisyToolchain/0.2.0/arm/arm-none-eabi/include/c++/10.3.1/bits/stl_algo.h **** 		__max = __first;
3387:/Library/DaisyToolchain/0.2.0/arm/arm-none-eabi/include/c++/10.3.1/bits/stl_algo.h **** 	      break;
3388:/Library/DaisyToolchain/0.2.0/arm/arm-none-eabi/include/c++/10.3.1/bits/stl_algo.h **** 	    }
3389:/Library/DaisyToolchain/0.2.0/arm/arm-none-eabi/include/c++/10.3.1/bits/stl_algo.h **** 
3390:/Library/DaisyToolchain/0.2.0/arm/arm-none-eabi/include/c++/10.3.1/bits/stl_algo.h **** 	  if (__comp(__next, __first))
3391:/Library/DaisyToolchain/0.2.0/arm/arm-none-eabi/include/c++/10.3.1/bits/stl_algo.h **** 	    {
3392:/Library/DaisyToolchain/0.2.0/arm/arm-none-eabi/include/c++/10.3.1/bits/stl_algo.h **** 	      if (__comp(__next, __min))
3393:/Library/DaisyToolchain/0.2.0/arm/arm-none-eabi/include/c++/10.3.1/bits/stl_algo.h **** 		__min = __next;
3394:/Library/DaisyToolchain/0.2.0/arm/arm-none-eabi/include/c++/10.3.1/bits/stl_algo.h **** 	      if (!__comp(__first, __max))
3395:/Library/DaisyToolchain/0.2.0/arm/arm-none-eabi/include/c++/10.3.1/bits/stl_algo.h **** 		__max = __first;
3396:/Library/DaisyToolchain/0.2.0/arm/arm-none-eabi/include/c++/10.3.1/bits/stl_algo.h **** 	    }
3397:/Library/DaisyToolchain/0.2.0/arm/arm-none-eabi/include/c++/10.3.1/bits/stl_algo.h **** 	  else
3398:/Library/DaisyToolchain/0.2.0/arm/arm-none-eabi/include/c++/10.3.1/bits/stl_algo.h **** 	    {
3399:/Library/DaisyToolchain/0.2.0/arm/arm-none-eabi/include/c++/10.3.1/bits/stl_algo.h **** 	      if (__comp(__first, __min))
3400:/Library/DaisyToolchain/0.2.0/arm/arm-none-eabi/include/c++/10.3.1/bits/stl_algo.h **** 		__min = __first;
3401:/Library/DaisyToolchain/0.2.0/arm/arm-none-eabi/include/c++/10.3.1/bits/stl_algo.h **** 	      if (!__comp(__next, __max))
3402:/Library/DaisyToolchain/0.2.0/arm/arm-none-eabi/include/c++/10.3.1/bits/stl_algo.h **** 		__max = __next;
3403:/Library/DaisyToolchain/0.2.0/arm/arm-none-eabi/include/c++/10.3.1/bits/stl_algo.h **** 	    }
3404:/Library/DaisyToolchain/0.2.0/arm/arm-none-eabi/include/c++/10.3.1/bits/stl_algo.h **** 
3405:/Library/DaisyToolchain/0.2.0/arm/arm-none-eabi/include/c++/10.3.1/bits/stl_algo.h **** 	  __first = __next;
3406:/Library/DaisyToolchain/0.2.0/arm/arm-none-eabi/include/c++/10.3.1/bits/stl_algo.h **** 	  ++__first;
3407:/Library/DaisyToolchain/0.2.0/arm/arm-none-eabi/include/c++/10.3.1/bits/stl_algo.h **** 	}
3408:/Library/DaisyToolchain/0.2.0/arm/arm-none-eabi/include/c++/10.3.1/bits/stl_algo.h **** 
3409:/Library/DaisyToolchain/0.2.0/arm/arm-none-eabi/include/c++/10.3.1/bits/stl_algo.h ****       return std::make_pair(__min, __max);
3410:/Library/DaisyToolchain/0.2.0/arm/arm-none-eabi/include/c++/10.3.1/bits/stl_algo.h ****     }
3411:/Library/DaisyToolchain/0.2.0/arm/arm-none-eabi/include/c++/10.3.1/bits/stl_algo.h **** 
3412:/Library/DaisyToolchain/0.2.0/arm/arm-none-eabi/include/c++/10.3.1/bits/stl_algo.h ****   /**
3413:/Library/DaisyToolchain/0.2.0/arm/arm-none-eabi/include/c++/10.3.1/bits/stl_algo.h ****    *  @brief  Return a pair of iterators pointing to the minimum and maximum
3414:/Library/DaisyToolchain/0.2.0/arm/arm-none-eabi/include/c++/10.3.1/bits/stl_algo.h ****    *          elements in a range.
3415:/Library/DaisyToolchain/0.2.0/arm/arm-none-eabi/include/c++/10.3.1/bits/stl_algo.h ****    *  @ingroup sorting_algorithms
3416:/Library/DaisyToolchain/0.2.0/arm/arm-none-eabi/include/c++/10.3.1/bits/stl_algo.h ****    *  @param  __first  Start of range.
3417:/Library/DaisyToolchain/0.2.0/arm/arm-none-eabi/include/c++/10.3.1/bits/stl_algo.h ****    *  @param  __last   End of range.
3418:/Library/DaisyToolchain/0.2.0/arm/arm-none-eabi/include/c++/10.3.1/bits/stl_algo.h ****    *  @return  make_pair(m, M), where m is the first iterator i in 
3419:/Library/DaisyToolchain/0.2.0/arm/arm-none-eabi/include/c++/10.3.1/bits/stl_algo.h ****    *           [__first, __last) such that no other element in the range is
ARM GAS  /var/folders/th/s5djnwg15xxc0dk87c413f_h0000gn/T//ccCW3aXI.s 			page 142


3420:/Library/DaisyToolchain/0.2.0/arm/arm-none-eabi/include/c++/10.3.1/bits/stl_algo.h ****    *           smaller, and where M is the last iterator i in [__first, __last)
3421:/Library/DaisyToolchain/0.2.0/arm/arm-none-eabi/include/c++/10.3.1/bits/stl_algo.h ****    *           such that no other element in the range is larger.
3422:/Library/DaisyToolchain/0.2.0/arm/arm-none-eabi/include/c++/10.3.1/bits/stl_algo.h ****   */
3423:/Library/DaisyToolchain/0.2.0/arm/arm-none-eabi/include/c++/10.3.1/bits/stl_algo.h ****   template<typename _ForwardIterator>
3424:/Library/DaisyToolchain/0.2.0/arm/arm-none-eabi/include/c++/10.3.1/bits/stl_algo.h ****     _GLIBCXX14_CONSTEXPR
3425:/Library/DaisyToolchain/0.2.0/arm/arm-none-eabi/include/c++/10.3.1/bits/stl_algo.h ****     inline pair<_ForwardIterator, _ForwardIterator>
3426:/Library/DaisyToolchain/0.2.0/arm/arm-none-eabi/include/c++/10.3.1/bits/stl_algo.h ****     minmax_element(_ForwardIterator __first, _ForwardIterator __last)
3427:/Library/DaisyToolchain/0.2.0/arm/arm-none-eabi/include/c++/10.3.1/bits/stl_algo.h ****     {
3428:/Library/DaisyToolchain/0.2.0/arm/arm-none-eabi/include/c++/10.3.1/bits/stl_algo.h ****       // concept requirements
3429:/Library/DaisyToolchain/0.2.0/arm/arm-none-eabi/include/c++/10.3.1/bits/stl_algo.h ****       __glibcxx_function_requires(_ForwardIteratorConcept<_ForwardIterator>)
3430:/Library/DaisyToolchain/0.2.0/arm/arm-none-eabi/include/c++/10.3.1/bits/stl_algo.h ****       __glibcxx_function_requires(_LessThanComparableConcept<
3431:/Library/DaisyToolchain/0.2.0/arm/arm-none-eabi/include/c++/10.3.1/bits/stl_algo.h **** 	    typename iterator_traits<_ForwardIterator>::value_type>)
3432:/Library/DaisyToolchain/0.2.0/arm/arm-none-eabi/include/c++/10.3.1/bits/stl_algo.h ****       __glibcxx_requires_valid_range(__first, __last);
3433:/Library/DaisyToolchain/0.2.0/arm/arm-none-eabi/include/c++/10.3.1/bits/stl_algo.h ****       __glibcxx_requires_irreflexive(__first, __last);
3434:/Library/DaisyToolchain/0.2.0/arm/arm-none-eabi/include/c++/10.3.1/bits/stl_algo.h **** 
3435:/Library/DaisyToolchain/0.2.0/arm/arm-none-eabi/include/c++/10.3.1/bits/stl_algo.h ****       return std::__minmax_element(__first, __last,
3436:/Library/DaisyToolchain/0.2.0/arm/arm-none-eabi/include/c++/10.3.1/bits/stl_algo.h **** 				   __gnu_cxx::__ops::__iter_less_iter());
3437:/Library/DaisyToolchain/0.2.0/arm/arm-none-eabi/include/c++/10.3.1/bits/stl_algo.h ****     }
3438:/Library/DaisyToolchain/0.2.0/arm/arm-none-eabi/include/c++/10.3.1/bits/stl_algo.h **** 
3439:/Library/DaisyToolchain/0.2.0/arm/arm-none-eabi/include/c++/10.3.1/bits/stl_algo.h ****   /**
3440:/Library/DaisyToolchain/0.2.0/arm/arm-none-eabi/include/c++/10.3.1/bits/stl_algo.h ****    *  @brief  Return a pair of iterators pointing to the minimum and maximum
3441:/Library/DaisyToolchain/0.2.0/arm/arm-none-eabi/include/c++/10.3.1/bits/stl_algo.h ****    *          elements in a range.
3442:/Library/DaisyToolchain/0.2.0/arm/arm-none-eabi/include/c++/10.3.1/bits/stl_algo.h ****    *  @ingroup sorting_algorithms
3443:/Library/DaisyToolchain/0.2.0/arm/arm-none-eabi/include/c++/10.3.1/bits/stl_algo.h ****    *  @param  __first  Start of range.
3444:/Library/DaisyToolchain/0.2.0/arm/arm-none-eabi/include/c++/10.3.1/bits/stl_algo.h ****    *  @param  __last   End of range.
3445:/Library/DaisyToolchain/0.2.0/arm/arm-none-eabi/include/c++/10.3.1/bits/stl_algo.h ****    *  @param  __comp   Comparison functor.
3446:/Library/DaisyToolchain/0.2.0/arm/arm-none-eabi/include/c++/10.3.1/bits/stl_algo.h ****    *  @return  make_pair(m, M), where m is the first iterator i in 
3447:/Library/DaisyToolchain/0.2.0/arm/arm-none-eabi/include/c++/10.3.1/bits/stl_algo.h ****    *           [__first, __last) such that no other element in the range is
3448:/Library/DaisyToolchain/0.2.0/arm/arm-none-eabi/include/c++/10.3.1/bits/stl_algo.h ****    *           smaller, and where M is the last iterator i in [__first, __last)
3449:/Library/DaisyToolchain/0.2.0/arm/arm-none-eabi/include/c++/10.3.1/bits/stl_algo.h ****    *           such that no other element in the range is larger.
3450:/Library/DaisyToolchain/0.2.0/arm/arm-none-eabi/include/c++/10.3.1/bits/stl_algo.h ****   */
3451:/Library/DaisyToolchain/0.2.0/arm/arm-none-eabi/include/c++/10.3.1/bits/stl_algo.h ****   template<typename _ForwardIterator, typename _Compare>
3452:/Library/DaisyToolchain/0.2.0/arm/arm-none-eabi/include/c++/10.3.1/bits/stl_algo.h ****     _GLIBCXX14_CONSTEXPR
3453:/Library/DaisyToolchain/0.2.0/arm/arm-none-eabi/include/c++/10.3.1/bits/stl_algo.h ****     inline pair<_ForwardIterator, _ForwardIterator>
3454:/Library/DaisyToolchain/0.2.0/arm/arm-none-eabi/include/c++/10.3.1/bits/stl_algo.h ****     minmax_element(_ForwardIterator __first, _ForwardIterator __last,
3455:/Library/DaisyToolchain/0.2.0/arm/arm-none-eabi/include/c++/10.3.1/bits/stl_algo.h **** 		   _Compare __comp)
3456:/Library/DaisyToolchain/0.2.0/arm/arm-none-eabi/include/c++/10.3.1/bits/stl_algo.h ****     {
3457:/Library/DaisyToolchain/0.2.0/arm/arm-none-eabi/include/c++/10.3.1/bits/stl_algo.h ****       // concept requirements
3458:/Library/DaisyToolchain/0.2.0/arm/arm-none-eabi/include/c++/10.3.1/bits/stl_algo.h ****       __glibcxx_function_requires(_ForwardIteratorConcept<_ForwardIterator>)
3459:/Library/DaisyToolchain/0.2.0/arm/arm-none-eabi/include/c++/10.3.1/bits/stl_algo.h ****       __glibcxx_function_requires(_BinaryPredicateConcept<_Compare,
3460:/Library/DaisyToolchain/0.2.0/arm/arm-none-eabi/include/c++/10.3.1/bits/stl_algo.h **** 	    typename iterator_traits<_ForwardIterator>::value_type,
3461:/Library/DaisyToolchain/0.2.0/arm/arm-none-eabi/include/c++/10.3.1/bits/stl_algo.h **** 	    typename iterator_traits<_ForwardIterator>::value_type>)
3462:/Library/DaisyToolchain/0.2.0/arm/arm-none-eabi/include/c++/10.3.1/bits/stl_algo.h ****       __glibcxx_requires_valid_range(__first, __last);
3463:/Library/DaisyToolchain/0.2.0/arm/arm-none-eabi/include/c++/10.3.1/bits/stl_algo.h ****       __glibcxx_requires_irreflexive_pred(__first, __last, __comp);
3464:/Library/DaisyToolchain/0.2.0/arm/arm-none-eabi/include/c++/10.3.1/bits/stl_algo.h **** 
3465:/Library/DaisyToolchain/0.2.0/arm/arm-none-eabi/include/c++/10.3.1/bits/stl_algo.h ****       return std::__minmax_element(__first, __last,
3466:/Library/DaisyToolchain/0.2.0/arm/arm-none-eabi/include/c++/10.3.1/bits/stl_algo.h **** 				   __gnu_cxx::__ops::__iter_comp_iter(__comp));
3467:/Library/DaisyToolchain/0.2.0/arm/arm-none-eabi/include/c++/10.3.1/bits/stl_algo.h ****     }
3468:/Library/DaisyToolchain/0.2.0/arm/arm-none-eabi/include/c++/10.3.1/bits/stl_algo.h **** 
3469:/Library/DaisyToolchain/0.2.0/arm/arm-none-eabi/include/c++/10.3.1/bits/stl_algo.h ****   // N2722 + DR 915.
3470:/Library/DaisyToolchain/0.2.0/arm/arm-none-eabi/include/c++/10.3.1/bits/stl_algo.h ****   template<typename _Tp>
3471:/Library/DaisyToolchain/0.2.0/arm/arm-none-eabi/include/c++/10.3.1/bits/stl_algo.h ****     _GLIBCXX14_CONSTEXPR
3472:/Library/DaisyToolchain/0.2.0/arm/arm-none-eabi/include/c++/10.3.1/bits/stl_algo.h ****     inline _Tp
3473:/Library/DaisyToolchain/0.2.0/arm/arm-none-eabi/include/c++/10.3.1/bits/stl_algo.h ****     min(initializer_list<_Tp> __l)
3474:/Library/DaisyToolchain/0.2.0/arm/arm-none-eabi/include/c++/10.3.1/bits/stl_algo.h ****     { return *std::min_element(__l.begin(), __l.end()); }
3475:/Library/DaisyToolchain/0.2.0/arm/arm-none-eabi/include/c++/10.3.1/bits/stl_algo.h **** 
3476:/Library/DaisyToolchain/0.2.0/arm/arm-none-eabi/include/c++/10.3.1/bits/stl_algo.h ****   template<typename _Tp, typename _Compare>
ARM GAS  /var/folders/th/s5djnwg15xxc0dk87c413f_h0000gn/T//ccCW3aXI.s 			page 143


3477:/Library/DaisyToolchain/0.2.0/arm/arm-none-eabi/include/c++/10.3.1/bits/stl_algo.h ****     _GLIBCXX14_CONSTEXPR
3478:/Library/DaisyToolchain/0.2.0/arm/arm-none-eabi/include/c++/10.3.1/bits/stl_algo.h ****     inline _Tp
3479:/Library/DaisyToolchain/0.2.0/arm/arm-none-eabi/include/c++/10.3.1/bits/stl_algo.h ****     min(initializer_list<_Tp> __l, _Compare __comp)
3480:/Library/DaisyToolchain/0.2.0/arm/arm-none-eabi/include/c++/10.3.1/bits/stl_algo.h ****     { return *std::min_element(__l.begin(), __l.end(), __comp); }
3481:/Library/DaisyToolchain/0.2.0/arm/arm-none-eabi/include/c++/10.3.1/bits/stl_algo.h **** 
3482:/Library/DaisyToolchain/0.2.0/arm/arm-none-eabi/include/c++/10.3.1/bits/stl_algo.h ****   template<typename _Tp>
3483:/Library/DaisyToolchain/0.2.0/arm/arm-none-eabi/include/c++/10.3.1/bits/stl_algo.h ****     _GLIBCXX14_CONSTEXPR
3484:/Library/DaisyToolchain/0.2.0/arm/arm-none-eabi/include/c++/10.3.1/bits/stl_algo.h ****     inline _Tp
3485:/Library/DaisyToolchain/0.2.0/arm/arm-none-eabi/include/c++/10.3.1/bits/stl_algo.h ****     max(initializer_list<_Tp> __l)
3486:/Library/DaisyToolchain/0.2.0/arm/arm-none-eabi/include/c++/10.3.1/bits/stl_algo.h ****     { return *std::max_element(__l.begin(), __l.end()); }
3487:/Library/DaisyToolchain/0.2.0/arm/arm-none-eabi/include/c++/10.3.1/bits/stl_algo.h **** 
3488:/Library/DaisyToolchain/0.2.0/arm/arm-none-eabi/include/c++/10.3.1/bits/stl_algo.h ****   template<typename _Tp, typename _Compare>
3489:/Library/DaisyToolchain/0.2.0/arm/arm-none-eabi/include/c++/10.3.1/bits/stl_algo.h ****     _GLIBCXX14_CONSTEXPR
3490:/Library/DaisyToolchain/0.2.0/arm/arm-none-eabi/include/c++/10.3.1/bits/stl_algo.h ****     inline _Tp
3491:/Library/DaisyToolchain/0.2.0/arm/arm-none-eabi/include/c++/10.3.1/bits/stl_algo.h ****     max(initializer_list<_Tp> __l, _Compare __comp)
3492:/Library/DaisyToolchain/0.2.0/arm/arm-none-eabi/include/c++/10.3.1/bits/stl_algo.h ****     { return *std::max_element(__l.begin(), __l.end(), __comp); }
3493:/Library/DaisyToolchain/0.2.0/arm/arm-none-eabi/include/c++/10.3.1/bits/stl_algo.h **** 
3494:/Library/DaisyToolchain/0.2.0/arm/arm-none-eabi/include/c++/10.3.1/bits/stl_algo.h ****   template<typename _Tp>
3495:/Library/DaisyToolchain/0.2.0/arm/arm-none-eabi/include/c++/10.3.1/bits/stl_algo.h ****     _GLIBCXX14_CONSTEXPR
3496:/Library/DaisyToolchain/0.2.0/arm/arm-none-eabi/include/c++/10.3.1/bits/stl_algo.h ****     inline pair<_Tp, _Tp>
3497:/Library/DaisyToolchain/0.2.0/arm/arm-none-eabi/include/c++/10.3.1/bits/stl_algo.h ****     minmax(initializer_list<_Tp> __l)
3498:/Library/DaisyToolchain/0.2.0/arm/arm-none-eabi/include/c++/10.3.1/bits/stl_algo.h ****     {
3499:/Library/DaisyToolchain/0.2.0/arm/arm-none-eabi/include/c++/10.3.1/bits/stl_algo.h ****       pair<const _Tp*, const _Tp*> __p =
3500:/Library/DaisyToolchain/0.2.0/arm/arm-none-eabi/include/c++/10.3.1/bits/stl_algo.h **** 	std::minmax_element(__l.begin(), __l.end());
3501:/Library/DaisyToolchain/0.2.0/arm/arm-none-eabi/include/c++/10.3.1/bits/stl_algo.h ****       return std::make_pair(*__p.first, *__p.second);
3502:/Library/DaisyToolchain/0.2.0/arm/arm-none-eabi/include/c++/10.3.1/bits/stl_algo.h ****     }
3503:/Library/DaisyToolchain/0.2.0/arm/arm-none-eabi/include/c++/10.3.1/bits/stl_algo.h **** 
3504:/Library/DaisyToolchain/0.2.0/arm/arm-none-eabi/include/c++/10.3.1/bits/stl_algo.h ****   template<typename _Tp, typename _Compare>
3505:/Library/DaisyToolchain/0.2.0/arm/arm-none-eabi/include/c++/10.3.1/bits/stl_algo.h ****     _GLIBCXX14_CONSTEXPR
3506:/Library/DaisyToolchain/0.2.0/arm/arm-none-eabi/include/c++/10.3.1/bits/stl_algo.h ****     inline pair<_Tp, _Tp>
3507:/Library/DaisyToolchain/0.2.0/arm/arm-none-eabi/include/c++/10.3.1/bits/stl_algo.h ****     minmax(initializer_list<_Tp> __l, _Compare __comp)
3508:/Library/DaisyToolchain/0.2.0/arm/arm-none-eabi/include/c++/10.3.1/bits/stl_algo.h ****     {
3509:/Library/DaisyToolchain/0.2.0/arm/arm-none-eabi/include/c++/10.3.1/bits/stl_algo.h ****       pair<const _Tp*, const _Tp*> __p =
3510:/Library/DaisyToolchain/0.2.0/arm/arm-none-eabi/include/c++/10.3.1/bits/stl_algo.h **** 	std::minmax_element(__l.begin(), __l.end(), __comp);
3511:/Library/DaisyToolchain/0.2.0/arm/arm-none-eabi/include/c++/10.3.1/bits/stl_algo.h ****       return std::make_pair(*__p.first, *__p.second);
3512:/Library/DaisyToolchain/0.2.0/arm/arm-none-eabi/include/c++/10.3.1/bits/stl_algo.h ****     }
3513:/Library/DaisyToolchain/0.2.0/arm/arm-none-eabi/include/c++/10.3.1/bits/stl_algo.h **** 
3514:/Library/DaisyToolchain/0.2.0/arm/arm-none-eabi/include/c++/10.3.1/bits/stl_algo.h ****   /**
3515:/Library/DaisyToolchain/0.2.0/arm/arm-none-eabi/include/c++/10.3.1/bits/stl_algo.h ****    *  @brief  Checks whether a permutation of the second sequence is equal
3516:/Library/DaisyToolchain/0.2.0/arm/arm-none-eabi/include/c++/10.3.1/bits/stl_algo.h ****    *          to the first sequence.
3517:/Library/DaisyToolchain/0.2.0/arm/arm-none-eabi/include/c++/10.3.1/bits/stl_algo.h ****    *  @ingroup non_mutating_algorithms
3518:/Library/DaisyToolchain/0.2.0/arm/arm-none-eabi/include/c++/10.3.1/bits/stl_algo.h ****    *  @param  __first1  Start of first range.
3519:/Library/DaisyToolchain/0.2.0/arm/arm-none-eabi/include/c++/10.3.1/bits/stl_algo.h ****    *  @param  __last1   End of first range.
3520:/Library/DaisyToolchain/0.2.0/arm/arm-none-eabi/include/c++/10.3.1/bits/stl_algo.h ****    *  @param  __first2  Start of second range.
3521:/Library/DaisyToolchain/0.2.0/arm/arm-none-eabi/include/c++/10.3.1/bits/stl_algo.h ****    *  @param  __pred    A binary predicate.
3522:/Library/DaisyToolchain/0.2.0/arm/arm-none-eabi/include/c++/10.3.1/bits/stl_algo.h ****    *  @return true if there exists a permutation of the elements in
3523:/Library/DaisyToolchain/0.2.0/arm/arm-none-eabi/include/c++/10.3.1/bits/stl_algo.h ****    *          the range [__first2, __first2 + (__last1 - __first1)),
3524:/Library/DaisyToolchain/0.2.0/arm/arm-none-eabi/include/c++/10.3.1/bits/stl_algo.h ****    *          beginning with ForwardIterator2 begin, such that
3525:/Library/DaisyToolchain/0.2.0/arm/arm-none-eabi/include/c++/10.3.1/bits/stl_algo.h ****    *          equal(__first1, __last1, __begin, __pred) returns true;
3526:/Library/DaisyToolchain/0.2.0/arm/arm-none-eabi/include/c++/10.3.1/bits/stl_algo.h ****    *          otherwise, returns false.
3527:/Library/DaisyToolchain/0.2.0/arm/arm-none-eabi/include/c++/10.3.1/bits/stl_algo.h ****   */
3528:/Library/DaisyToolchain/0.2.0/arm/arm-none-eabi/include/c++/10.3.1/bits/stl_algo.h ****   template<typename _ForwardIterator1, typename _ForwardIterator2,
3529:/Library/DaisyToolchain/0.2.0/arm/arm-none-eabi/include/c++/10.3.1/bits/stl_algo.h **** 	   typename _BinaryPredicate>
3530:/Library/DaisyToolchain/0.2.0/arm/arm-none-eabi/include/c++/10.3.1/bits/stl_algo.h ****     _GLIBCXX20_CONSTEXPR
3531:/Library/DaisyToolchain/0.2.0/arm/arm-none-eabi/include/c++/10.3.1/bits/stl_algo.h ****     inline bool
3532:/Library/DaisyToolchain/0.2.0/arm/arm-none-eabi/include/c++/10.3.1/bits/stl_algo.h ****     is_permutation(_ForwardIterator1 __first1, _ForwardIterator1 __last1,
3533:/Library/DaisyToolchain/0.2.0/arm/arm-none-eabi/include/c++/10.3.1/bits/stl_algo.h **** 		   _ForwardIterator2 __first2, _BinaryPredicate __pred)
ARM GAS  /var/folders/th/s5djnwg15xxc0dk87c413f_h0000gn/T//ccCW3aXI.s 			page 144


3534:/Library/DaisyToolchain/0.2.0/arm/arm-none-eabi/include/c++/10.3.1/bits/stl_algo.h ****     {
3535:/Library/DaisyToolchain/0.2.0/arm/arm-none-eabi/include/c++/10.3.1/bits/stl_algo.h ****       // concept requirements
3536:/Library/DaisyToolchain/0.2.0/arm/arm-none-eabi/include/c++/10.3.1/bits/stl_algo.h ****       __glibcxx_function_requires(_ForwardIteratorConcept<_ForwardIterator1>)
3537:/Library/DaisyToolchain/0.2.0/arm/arm-none-eabi/include/c++/10.3.1/bits/stl_algo.h ****       __glibcxx_function_requires(_ForwardIteratorConcept<_ForwardIterator2>)
3538:/Library/DaisyToolchain/0.2.0/arm/arm-none-eabi/include/c++/10.3.1/bits/stl_algo.h ****       __glibcxx_function_requires(_BinaryPredicateConcept<_BinaryPredicate,
3539:/Library/DaisyToolchain/0.2.0/arm/arm-none-eabi/include/c++/10.3.1/bits/stl_algo.h **** 	    typename iterator_traits<_ForwardIterator1>::value_type,
3540:/Library/DaisyToolchain/0.2.0/arm/arm-none-eabi/include/c++/10.3.1/bits/stl_algo.h **** 	    typename iterator_traits<_ForwardIterator2>::value_type>)
3541:/Library/DaisyToolchain/0.2.0/arm/arm-none-eabi/include/c++/10.3.1/bits/stl_algo.h ****       __glibcxx_requires_valid_range(__first1, __last1);
3542:/Library/DaisyToolchain/0.2.0/arm/arm-none-eabi/include/c++/10.3.1/bits/stl_algo.h **** 
3543:/Library/DaisyToolchain/0.2.0/arm/arm-none-eabi/include/c++/10.3.1/bits/stl_algo.h ****       return std::__is_permutation(__first1, __last1, __first2,
3544:/Library/DaisyToolchain/0.2.0/arm/arm-none-eabi/include/c++/10.3.1/bits/stl_algo.h **** 				   __gnu_cxx::__ops::__iter_comp_iter(__pred));
3545:/Library/DaisyToolchain/0.2.0/arm/arm-none-eabi/include/c++/10.3.1/bits/stl_algo.h ****     }
3546:/Library/DaisyToolchain/0.2.0/arm/arm-none-eabi/include/c++/10.3.1/bits/stl_algo.h **** 
3547:/Library/DaisyToolchain/0.2.0/arm/arm-none-eabi/include/c++/10.3.1/bits/stl_algo.h **** #if __cplusplus > 201103L
3548:/Library/DaisyToolchain/0.2.0/arm/arm-none-eabi/include/c++/10.3.1/bits/stl_algo.h ****   template<typename _ForwardIterator1, typename _ForwardIterator2,
3549:/Library/DaisyToolchain/0.2.0/arm/arm-none-eabi/include/c++/10.3.1/bits/stl_algo.h **** 	   typename _BinaryPredicate>
3550:/Library/DaisyToolchain/0.2.0/arm/arm-none-eabi/include/c++/10.3.1/bits/stl_algo.h ****     _GLIBCXX20_CONSTEXPR
3551:/Library/DaisyToolchain/0.2.0/arm/arm-none-eabi/include/c++/10.3.1/bits/stl_algo.h ****     bool
3552:/Library/DaisyToolchain/0.2.0/arm/arm-none-eabi/include/c++/10.3.1/bits/stl_algo.h ****     __is_permutation(_ForwardIterator1 __first1, _ForwardIterator1 __last1,
3553:/Library/DaisyToolchain/0.2.0/arm/arm-none-eabi/include/c++/10.3.1/bits/stl_algo.h **** 		     _ForwardIterator2 __first2, _ForwardIterator2 __last2,
3554:/Library/DaisyToolchain/0.2.0/arm/arm-none-eabi/include/c++/10.3.1/bits/stl_algo.h **** 		     _BinaryPredicate __pred)
3555:/Library/DaisyToolchain/0.2.0/arm/arm-none-eabi/include/c++/10.3.1/bits/stl_algo.h ****     {
3556:/Library/DaisyToolchain/0.2.0/arm/arm-none-eabi/include/c++/10.3.1/bits/stl_algo.h ****       using _Cat1
3557:/Library/DaisyToolchain/0.2.0/arm/arm-none-eabi/include/c++/10.3.1/bits/stl_algo.h **** 	= typename iterator_traits<_ForwardIterator1>::iterator_category;
3558:/Library/DaisyToolchain/0.2.0/arm/arm-none-eabi/include/c++/10.3.1/bits/stl_algo.h ****       using _Cat2
3559:/Library/DaisyToolchain/0.2.0/arm/arm-none-eabi/include/c++/10.3.1/bits/stl_algo.h **** 	= typename iterator_traits<_ForwardIterator2>::iterator_category;
3560:/Library/DaisyToolchain/0.2.0/arm/arm-none-eabi/include/c++/10.3.1/bits/stl_algo.h ****       using _It1_is_RA = is_same<_Cat1, random_access_iterator_tag>;
3561:/Library/DaisyToolchain/0.2.0/arm/arm-none-eabi/include/c++/10.3.1/bits/stl_algo.h ****       using _It2_is_RA = is_same<_Cat2, random_access_iterator_tag>;
3562:/Library/DaisyToolchain/0.2.0/arm/arm-none-eabi/include/c++/10.3.1/bits/stl_algo.h ****       constexpr bool __ra_iters = _It1_is_RA() && _It2_is_RA();
3563:/Library/DaisyToolchain/0.2.0/arm/arm-none-eabi/include/c++/10.3.1/bits/stl_algo.h ****       if (__ra_iters)
3564:/Library/DaisyToolchain/0.2.0/arm/arm-none-eabi/include/c++/10.3.1/bits/stl_algo.h **** 	{
3565:/Library/DaisyToolchain/0.2.0/arm/arm-none-eabi/include/c++/10.3.1/bits/stl_algo.h **** 	  auto __d1 = std::distance(__first1, __last1);
3566:/Library/DaisyToolchain/0.2.0/arm/arm-none-eabi/include/c++/10.3.1/bits/stl_algo.h **** 	  auto __d2 = std::distance(__first2, __last2);
3567:/Library/DaisyToolchain/0.2.0/arm/arm-none-eabi/include/c++/10.3.1/bits/stl_algo.h **** 	  if (__d1 != __d2)
3568:/Library/DaisyToolchain/0.2.0/arm/arm-none-eabi/include/c++/10.3.1/bits/stl_algo.h **** 	    return false;
3569:/Library/DaisyToolchain/0.2.0/arm/arm-none-eabi/include/c++/10.3.1/bits/stl_algo.h **** 	}
3570:/Library/DaisyToolchain/0.2.0/arm/arm-none-eabi/include/c++/10.3.1/bits/stl_algo.h **** 
3571:/Library/DaisyToolchain/0.2.0/arm/arm-none-eabi/include/c++/10.3.1/bits/stl_algo.h ****       // Efficiently compare identical prefixes:  O(N) if sequences
3572:/Library/DaisyToolchain/0.2.0/arm/arm-none-eabi/include/c++/10.3.1/bits/stl_algo.h ****       // have the same elements in the same order.
3573:/Library/DaisyToolchain/0.2.0/arm/arm-none-eabi/include/c++/10.3.1/bits/stl_algo.h ****       for (; __first1 != __last1 && __first2 != __last2;
3574:/Library/DaisyToolchain/0.2.0/arm/arm-none-eabi/include/c++/10.3.1/bits/stl_algo.h **** 	  ++__first1, (void)++__first2)
3575:/Library/DaisyToolchain/0.2.0/arm/arm-none-eabi/include/c++/10.3.1/bits/stl_algo.h **** 	if (!__pred(__first1, __first2))
3576:/Library/DaisyToolchain/0.2.0/arm/arm-none-eabi/include/c++/10.3.1/bits/stl_algo.h **** 	  break;
3577:/Library/DaisyToolchain/0.2.0/arm/arm-none-eabi/include/c++/10.3.1/bits/stl_algo.h **** 
3578:/Library/DaisyToolchain/0.2.0/arm/arm-none-eabi/include/c++/10.3.1/bits/stl_algo.h ****       if (__ra_iters)
3579:/Library/DaisyToolchain/0.2.0/arm/arm-none-eabi/include/c++/10.3.1/bits/stl_algo.h **** 	{
3580:/Library/DaisyToolchain/0.2.0/arm/arm-none-eabi/include/c++/10.3.1/bits/stl_algo.h **** 	  if (__first1 == __last1)
3581:/Library/DaisyToolchain/0.2.0/arm/arm-none-eabi/include/c++/10.3.1/bits/stl_algo.h **** 	    return true;
3582:/Library/DaisyToolchain/0.2.0/arm/arm-none-eabi/include/c++/10.3.1/bits/stl_algo.h **** 	}
3583:/Library/DaisyToolchain/0.2.0/arm/arm-none-eabi/include/c++/10.3.1/bits/stl_algo.h ****       else
3584:/Library/DaisyToolchain/0.2.0/arm/arm-none-eabi/include/c++/10.3.1/bits/stl_algo.h **** 	{
3585:/Library/DaisyToolchain/0.2.0/arm/arm-none-eabi/include/c++/10.3.1/bits/stl_algo.h **** 	  auto __d1 = std::distance(__first1, __last1);
3586:/Library/DaisyToolchain/0.2.0/arm/arm-none-eabi/include/c++/10.3.1/bits/stl_algo.h **** 	  auto __d2 = std::distance(__first2, __last2);
3587:/Library/DaisyToolchain/0.2.0/arm/arm-none-eabi/include/c++/10.3.1/bits/stl_algo.h **** 	  if (__d1 == 0 && __d2 == 0)
3588:/Library/DaisyToolchain/0.2.0/arm/arm-none-eabi/include/c++/10.3.1/bits/stl_algo.h **** 	    return true;
3589:/Library/DaisyToolchain/0.2.0/arm/arm-none-eabi/include/c++/10.3.1/bits/stl_algo.h **** 	  if (__d1 != __d2)
3590:/Library/DaisyToolchain/0.2.0/arm/arm-none-eabi/include/c++/10.3.1/bits/stl_algo.h **** 	    return false;
ARM GAS  /var/folders/th/s5djnwg15xxc0dk87c413f_h0000gn/T//ccCW3aXI.s 			page 145


3591:/Library/DaisyToolchain/0.2.0/arm/arm-none-eabi/include/c++/10.3.1/bits/stl_algo.h **** 	}
3592:/Library/DaisyToolchain/0.2.0/arm/arm-none-eabi/include/c++/10.3.1/bits/stl_algo.h **** 
3593:/Library/DaisyToolchain/0.2.0/arm/arm-none-eabi/include/c++/10.3.1/bits/stl_algo.h ****       for (_ForwardIterator1 __scan = __first1; __scan != __last1; ++__scan)
3594:/Library/DaisyToolchain/0.2.0/arm/arm-none-eabi/include/c++/10.3.1/bits/stl_algo.h **** 	{
3595:/Library/DaisyToolchain/0.2.0/arm/arm-none-eabi/include/c++/10.3.1/bits/stl_algo.h **** 	  if (__scan != std::__find_if(__first1, __scan,
3596:/Library/DaisyToolchain/0.2.0/arm/arm-none-eabi/include/c++/10.3.1/bits/stl_algo.h **** 			__gnu_cxx::__ops::__iter_comp_iter(__pred, __scan)))
3597:/Library/DaisyToolchain/0.2.0/arm/arm-none-eabi/include/c++/10.3.1/bits/stl_algo.h **** 	    continue; // We've seen this one before.
3598:/Library/DaisyToolchain/0.2.0/arm/arm-none-eabi/include/c++/10.3.1/bits/stl_algo.h **** 
3599:/Library/DaisyToolchain/0.2.0/arm/arm-none-eabi/include/c++/10.3.1/bits/stl_algo.h **** 	  auto __matches = std::__count_if(__first2, __last2,
3600:/Library/DaisyToolchain/0.2.0/arm/arm-none-eabi/include/c++/10.3.1/bits/stl_algo.h **** 		__gnu_cxx::__ops::__iter_comp_iter(__pred, __scan));
3601:/Library/DaisyToolchain/0.2.0/arm/arm-none-eabi/include/c++/10.3.1/bits/stl_algo.h **** 	  if (0 == __matches
3602:/Library/DaisyToolchain/0.2.0/arm/arm-none-eabi/include/c++/10.3.1/bits/stl_algo.h **** 	      || std::__count_if(__scan, __last1,
3603:/Library/DaisyToolchain/0.2.0/arm/arm-none-eabi/include/c++/10.3.1/bits/stl_algo.h **** 			__gnu_cxx::__ops::__iter_comp_iter(__pred, __scan))
3604:/Library/DaisyToolchain/0.2.0/arm/arm-none-eabi/include/c++/10.3.1/bits/stl_algo.h **** 	      != __matches)
3605:/Library/DaisyToolchain/0.2.0/arm/arm-none-eabi/include/c++/10.3.1/bits/stl_algo.h **** 	    return false;
3606:/Library/DaisyToolchain/0.2.0/arm/arm-none-eabi/include/c++/10.3.1/bits/stl_algo.h **** 	}
3607:/Library/DaisyToolchain/0.2.0/arm/arm-none-eabi/include/c++/10.3.1/bits/stl_algo.h ****       return true;
3608:/Library/DaisyToolchain/0.2.0/arm/arm-none-eabi/include/c++/10.3.1/bits/stl_algo.h ****     }
3609:/Library/DaisyToolchain/0.2.0/arm/arm-none-eabi/include/c++/10.3.1/bits/stl_algo.h **** 
3610:/Library/DaisyToolchain/0.2.0/arm/arm-none-eabi/include/c++/10.3.1/bits/stl_algo.h ****   /**
3611:/Library/DaisyToolchain/0.2.0/arm/arm-none-eabi/include/c++/10.3.1/bits/stl_algo.h ****    *  @brief  Checks whether a permutaion of the second sequence is equal
3612:/Library/DaisyToolchain/0.2.0/arm/arm-none-eabi/include/c++/10.3.1/bits/stl_algo.h ****    *          to the first sequence.
3613:/Library/DaisyToolchain/0.2.0/arm/arm-none-eabi/include/c++/10.3.1/bits/stl_algo.h ****    *  @ingroup non_mutating_algorithms
3614:/Library/DaisyToolchain/0.2.0/arm/arm-none-eabi/include/c++/10.3.1/bits/stl_algo.h ****    *  @param  __first1  Start of first range.
3615:/Library/DaisyToolchain/0.2.0/arm/arm-none-eabi/include/c++/10.3.1/bits/stl_algo.h ****    *  @param  __last1   End of first range.
3616:/Library/DaisyToolchain/0.2.0/arm/arm-none-eabi/include/c++/10.3.1/bits/stl_algo.h ****    *  @param  __first2  Start of second range.
3617:/Library/DaisyToolchain/0.2.0/arm/arm-none-eabi/include/c++/10.3.1/bits/stl_algo.h ****    *  @param  __last2   End of first range.
3618:/Library/DaisyToolchain/0.2.0/arm/arm-none-eabi/include/c++/10.3.1/bits/stl_algo.h ****    *  @return true if there exists a permutation of the elements in the range
3619:/Library/DaisyToolchain/0.2.0/arm/arm-none-eabi/include/c++/10.3.1/bits/stl_algo.h ****    *          [__first2, __last2), beginning with ForwardIterator2 begin,
3620:/Library/DaisyToolchain/0.2.0/arm/arm-none-eabi/include/c++/10.3.1/bits/stl_algo.h ****    *          such that equal(__first1, __last1, begin) returns true;
3621:/Library/DaisyToolchain/0.2.0/arm/arm-none-eabi/include/c++/10.3.1/bits/stl_algo.h ****    *          otherwise, returns false.
3622:/Library/DaisyToolchain/0.2.0/arm/arm-none-eabi/include/c++/10.3.1/bits/stl_algo.h ****   */
3623:/Library/DaisyToolchain/0.2.0/arm/arm-none-eabi/include/c++/10.3.1/bits/stl_algo.h ****   template<typename _ForwardIterator1, typename _ForwardIterator2>
3624:/Library/DaisyToolchain/0.2.0/arm/arm-none-eabi/include/c++/10.3.1/bits/stl_algo.h ****     _GLIBCXX20_CONSTEXPR
3625:/Library/DaisyToolchain/0.2.0/arm/arm-none-eabi/include/c++/10.3.1/bits/stl_algo.h ****     inline bool
3626:/Library/DaisyToolchain/0.2.0/arm/arm-none-eabi/include/c++/10.3.1/bits/stl_algo.h ****     is_permutation(_ForwardIterator1 __first1, _ForwardIterator1 __last1,
3627:/Library/DaisyToolchain/0.2.0/arm/arm-none-eabi/include/c++/10.3.1/bits/stl_algo.h **** 		   _ForwardIterator2 __first2, _ForwardIterator2 __last2)
3628:/Library/DaisyToolchain/0.2.0/arm/arm-none-eabi/include/c++/10.3.1/bits/stl_algo.h ****     {
3629:/Library/DaisyToolchain/0.2.0/arm/arm-none-eabi/include/c++/10.3.1/bits/stl_algo.h ****       __glibcxx_requires_valid_range(__first1, __last1);
3630:/Library/DaisyToolchain/0.2.0/arm/arm-none-eabi/include/c++/10.3.1/bits/stl_algo.h ****       __glibcxx_requires_valid_range(__first2, __last2);
3631:/Library/DaisyToolchain/0.2.0/arm/arm-none-eabi/include/c++/10.3.1/bits/stl_algo.h **** 
3632:/Library/DaisyToolchain/0.2.0/arm/arm-none-eabi/include/c++/10.3.1/bits/stl_algo.h ****       return
3633:/Library/DaisyToolchain/0.2.0/arm/arm-none-eabi/include/c++/10.3.1/bits/stl_algo.h **** 	std::__is_permutation(__first1, __last1, __first2, __last2,
3634:/Library/DaisyToolchain/0.2.0/arm/arm-none-eabi/include/c++/10.3.1/bits/stl_algo.h **** 			      __gnu_cxx::__ops::__iter_equal_to_iter());
3635:/Library/DaisyToolchain/0.2.0/arm/arm-none-eabi/include/c++/10.3.1/bits/stl_algo.h ****     }
3636:/Library/DaisyToolchain/0.2.0/arm/arm-none-eabi/include/c++/10.3.1/bits/stl_algo.h **** 
3637:/Library/DaisyToolchain/0.2.0/arm/arm-none-eabi/include/c++/10.3.1/bits/stl_algo.h ****   /**
3638:/Library/DaisyToolchain/0.2.0/arm/arm-none-eabi/include/c++/10.3.1/bits/stl_algo.h ****    *  @brief  Checks whether a permutation of the second sequence is equal
3639:/Library/DaisyToolchain/0.2.0/arm/arm-none-eabi/include/c++/10.3.1/bits/stl_algo.h ****    *          to the first sequence.
3640:/Library/DaisyToolchain/0.2.0/arm/arm-none-eabi/include/c++/10.3.1/bits/stl_algo.h ****    *  @ingroup non_mutating_algorithms
3641:/Library/DaisyToolchain/0.2.0/arm/arm-none-eabi/include/c++/10.3.1/bits/stl_algo.h ****    *  @param  __first1  Start of first range.
3642:/Library/DaisyToolchain/0.2.0/arm/arm-none-eabi/include/c++/10.3.1/bits/stl_algo.h ****    *  @param  __last1   End of first range.
3643:/Library/DaisyToolchain/0.2.0/arm/arm-none-eabi/include/c++/10.3.1/bits/stl_algo.h ****    *  @param  __first2  Start of second range.
3644:/Library/DaisyToolchain/0.2.0/arm/arm-none-eabi/include/c++/10.3.1/bits/stl_algo.h ****    *  @param  __last2   End of first range.
3645:/Library/DaisyToolchain/0.2.0/arm/arm-none-eabi/include/c++/10.3.1/bits/stl_algo.h ****    *  @param  __pred    A binary predicate.
3646:/Library/DaisyToolchain/0.2.0/arm/arm-none-eabi/include/c++/10.3.1/bits/stl_algo.h ****    *  @return true if there exists a permutation of the elements in the range
3647:/Library/DaisyToolchain/0.2.0/arm/arm-none-eabi/include/c++/10.3.1/bits/stl_algo.h ****    *          [__first2, __last2), beginning with ForwardIterator2 begin,
ARM GAS  /var/folders/th/s5djnwg15xxc0dk87c413f_h0000gn/T//ccCW3aXI.s 			page 146


3648:/Library/DaisyToolchain/0.2.0/arm/arm-none-eabi/include/c++/10.3.1/bits/stl_algo.h ****    *          such that equal(__first1, __last1, __begin, __pred) returns true;
3649:/Library/DaisyToolchain/0.2.0/arm/arm-none-eabi/include/c++/10.3.1/bits/stl_algo.h ****    *          otherwise, returns false.
3650:/Library/DaisyToolchain/0.2.0/arm/arm-none-eabi/include/c++/10.3.1/bits/stl_algo.h ****   */
3651:/Library/DaisyToolchain/0.2.0/arm/arm-none-eabi/include/c++/10.3.1/bits/stl_algo.h ****   template<typename _ForwardIterator1, typename _ForwardIterator2,
3652:/Library/DaisyToolchain/0.2.0/arm/arm-none-eabi/include/c++/10.3.1/bits/stl_algo.h **** 	   typename _BinaryPredicate>
3653:/Library/DaisyToolchain/0.2.0/arm/arm-none-eabi/include/c++/10.3.1/bits/stl_algo.h ****     _GLIBCXX20_CONSTEXPR
3654:/Library/DaisyToolchain/0.2.0/arm/arm-none-eabi/include/c++/10.3.1/bits/stl_algo.h ****     inline bool
3655:/Library/DaisyToolchain/0.2.0/arm/arm-none-eabi/include/c++/10.3.1/bits/stl_algo.h ****     is_permutation(_ForwardIterator1 __first1, _ForwardIterator1 __last1,
3656:/Library/DaisyToolchain/0.2.0/arm/arm-none-eabi/include/c++/10.3.1/bits/stl_algo.h **** 		   _ForwardIterator2 __first2, _ForwardIterator2 __last2,
3657:/Library/DaisyToolchain/0.2.0/arm/arm-none-eabi/include/c++/10.3.1/bits/stl_algo.h **** 		   _BinaryPredicate __pred)
3658:/Library/DaisyToolchain/0.2.0/arm/arm-none-eabi/include/c++/10.3.1/bits/stl_algo.h ****     {
3659:/Library/DaisyToolchain/0.2.0/arm/arm-none-eabi/include/c++/10.3.1/bits/stl_algo.h ****       __glibcxx_requires_valid_range(__first1, __last1);
3660:/Library/DaisyToolchain/0.2.0/arm/arm-none-eabi/include/c++/10.3.1/bits/stl_algo.h ****       __glibcxx_requires_valid_range(__first2, __last2);
3661:/Library/DaisyToolchain/0.2.0/arm/arm-none-eabi/include/c++/10.3.1/bits/stl_algo.h **** 
3662:/Library/DaisyToolchain/0.2.0/arm/arm-none-eabi/include/c++/10.3.1/bits/stl_algo.h ****       return std::__is_permutation(__first1, __last1, __first2, __last2,
3663:/Library/DaisyToolchain/0.2.0/arm/arm-none-eabi/include/c++/10.3.1/bits/stl_algo.h **** 				   __gnu_cxx::__ops::__iter_comp_iter(__pred));
3664:/Library/DaisyToolchain/0.2.0/arm/arm-none-eabi/include/c++/10.3.1/bits/stl_algo.h ****     }
3665:/Library/DaisyToolchain/0.2.0/arm/arm-none-eabi/include/c++/10.3.1/bits/stl_algo.h **** 
3666:/Library/DaisyToolchain/0.2.0/arm/arm-none-eabi/include/c++/10.3.1/bits/stl_algo.h **** #if __cplusplus > 201402L
3667:/Library/DaisyToolchain/0.2.0/arm/arm-none-eabi/include/c++/10.3.1/bits/stl_algo.h **** 
3668:/Library/DaisyToolchain/0.2.0/arm/arm-none-eabi/include/c++/10.3.1/bits/stl_algo.h **** #define __cpp_lib_clamp 201603
3669:/Library/DaisyToolchain/0.2.0/arm/arm-none-eabi/include/c++/10.3.1/bits/stl_algo.h **** 
3670:/Library/DaisyToolchain/0.2.0/arm/arm-none-eabi/include/c++/10.3.1/bits/stl_algo.h ****   /**
3671:/Library/DaisyToolchain/0.2.0/arm/arm-none-eabi/include/c++/10.3.1/bits/stl_algo.h ****    *  @brief  Returns the value clamped between lo and hi.
3672:/Library/DaisyToolchain/0.2.0/arm/arm-none-eabi/include/c++/10.3.1/bits/stl_algo.h ****    *  @ingroup sorting_algorithms
3673:/Library/DaisyToolchain/0.2.0/arm/arm-none-eabi/include/c++/10.3.1/bits/stl_algo.h ****    *  @param  __val  A value of arbitrary type.
3674:/Library/DaisyToolchain/0.2.0/arm/arm-none-eabi/include/c++/10.3.1/bits/stl_algo.h ****    *  @param  __lo   A lower limit of arbitrary type.
3675:/Library/DaisyToolchain/0.2.0/arm/arm-none-eabi/include/c++/10.3.1/bits/stl_algo.h ****    *  @param  __hi   An upper limit of arbitrary type.
3676:/Library/DaisyToolchain/0.2.0/arm/arm-none-eabi/include/c++/10.3.1/bits/stl_algo.h ****    *  @return max(__val, __lo) if __val < __hi or min(__val, __hi) otherwise.
3677:/Library/DaisyToolchain/0.2.0/arm/arm-none-eabi/include/c++/10.3.1/bits/stl_algo.h ****    */
3678:/Library/DaisyToolchain/0.2.0/arm/arm-none-eabi/include/c++/10.3.1/bits/stl_algo.h ****   template<typename _Tp>
3679:/Library/DaisyToolchain/0.2.0/arm/arm-none-eabi/include/c++/10.3.1/bits/stl_algo.h ****     constexpr const _Tp&
3680:/Library/DaisyToolchain/0.2.0/arm/arm-none-eabi/include/c++/10.3.1/bits/stl_algo.h ****     clamp(const _Tp& __val, const _Tp& __lo, const _Tp& __hi)
3681:/Library/DaisyToolchain/0.2.0/arm/arm-none-eabi/include/c++/10.3.1/bits/stl_algo.h ****     {
3682:/Library/DaisyToolchain/0.2.0/arm/arm-none-eabi/include/c++/10.3.1/bits/stl_algo.h ****       __glibcxx_assert(!(__hi < __lo));
3683:/Library/DaisyToolchain/0.2.0/arm/arm-none-eabi/include/c++/10.3.1/bits/stl_algo.h ****       return (__val < __lo) ? __lo : (__hi < __val) ? __hi : __val;
 2553              		.loc 8 3683 29 view .LVU821
 2554 04fc F4EEE67A 		vcmpe.f32	s15, s13
 2555              	.LBE706:
 2556              	.LBE705:
 2557              	.LBB711:
 2558              	.LBB712:
 357:../../libDaisy/src/dev/oled_ssd130x.h ****         else
 2559              		.loc 7 357 42 view .LVU822
 2560 0500 03F56072 		add	r2, r3, #896
 2561              	.LVL167:
 357:../../libDaisy/src/dev/oled_ssd130x.h ****         else
 2562              		.loc 7 357 42 view .LVU823
 2563 0504 6FF07F01 		mvn	r1, #127
 2564              	.LBE712:
 2565              	.LBE711:
 2566              	.LBB718:
 2567              	.LBB707:
 2568              		.loc 8 3683 29 view .LVU824
 2569 0508 F1EE10FA 		vmrs	APSR_nzcv, FPSCR
 2570 050c 18DC     		bgt	.L55
 2571              		.loc 8 3683 29 view .LVU825
ARM GAS  /var/folders/th/s5djnwg15xxc0dk87c413f_h0000gn/T//ccCW3aXI.s 			page 147


 2572              	.LBE707:
 2573              	.LBE718:
 520:WavPlayer.cpp ****                 float sample = wavetable[next_buf][x * static_cast<size_t>(w_inc)];
 521:WavPlayer.cpp ****                 size_t y = static_cast<size_t>(
 522:WavPlayer.cpp ****                     std::clamp((DISPLAY_HEIGHT_ADJ / 2.0f) - sample * (DISPLAY_HEIGHT_ADJ / 2.0f), 
 523:WavPlayer.cpp ****                 ); // Rescale audio amplitude to screen height
 2574              		.loc 6 523 17 view .LVU826
 2575 050e FCEEE77A 		vcvt.u32.f32	s15, s15
 2576              	.LVL168:
 524:WavPlayer.cpp ****                 display.DrawPixel(x, y, true);
 2577              		.loc 6 524 17 is_stmt 1 view .LVU827
 2578              	.LBB719:
 2579              	.LBI711:
 352:../../libDaisy/src/dev/oled_ssd130x.h ****     {
 2580              		.loc 7 352 10 view .LVU828
 2581              	.LBB713:
 354:../../libDaisy/src/dev/oled_ssd130x.h ****             return;
 2582              		.loc 7 354 9 is_stmt 0 view .LVU829
 2583 0512 17EE902A 		vmov	r2, s15	@ int
 2584 0516 3F2A     		cmp	r2, #63
 2585 0518 5FD9     		bls	.L78
 2586              	.LVL169:
 354:../../libDaisy/src/dev/oled_ssd130x.h ****             return;
 2587              		.loc 7 354 9 view .LVU830
 2588              	.LBE713:
 2589              	.LBE719:
 2590              	.LBE704:
 519:WavPlayer.cpp ****                 float sample = wavetable[next_buf][x * static_cast<size_t>(w_inc)];
 2591              		.loc 6 519 13 is_stmt 1 view .LVU831
 2592 051a 0133     		adds	r3, r3, #1
 2593              	.LVL170:
 519:WavPlayer.cpp ****                 float sample = wavetable[next_buf][x * static_cast<size_t>(w_inc)];
 2594              		.loc 6 519 34 view .LVU832
 2595 051c 4034     		adds	r4, r4, #64
 2596 051e 802B     		cmp	r3, #128
 2597 0520 17D0     		beq	.L79
 2598              	.LVL171:
 2599              	.L51:
 2600              	.LBB729:
 520:WavPlayer.cpp ****                 size_t y = static_cast<size_t>(
 2601              		.loc 6 520 17 discriminator 2 view .LVU833
 521:WavPlayer.cpp ****                     std::clamp((DISPLAY_HEIGHT_ADJ / 2.0f) - sample * (DISPLAY_HEIGHT_ADJ / 2.0f), 
 2602              		.loc 6 521 17 discriminator 2 view .LVU834
 522:WavPlayer.cpp ****                 ); // Rescale audio amplitude to screen height
 2603              		.loc 6 522 60 is_stmt 0 discriminator 2 view .LVU835
 2604 0522 94ED007A 		vldr.32	s14, [r4]
 2605              	.LBB720:
 2606              	.LBB708:
 2607 0526 1A46     		mov	r2, r3
 2608              	.LBE708:
 2609              	.LBE720:
 2610 0528 DFED367A 		vldr.32	s15, .L84+24
 2611              	.LBB721:
 2612              	.LBB709:
 2613 052c 0121     		movs	r1, #1
 2614              		.loc 8 3683 29 discriminator 2 view .LVU836
 2615 052e DFED366A 		vldr.32	s13, .L84+28
ARM GAS  /var/folders/th/s5djnwg15xxc0dk87c413f_h0000gn/T//ccCW3aXI.s 			page 148


 2616              	.LBE709:
 2617              	.LBE721:
 522:WavPlayer.cpp ****                 ); // Rescale audio amplitude to screen height
 2618              		.loc 6 522 60 discriminator 2 view .LVU837
 2619 0532 E7EE677A 		vfms.f32	s15, s14, s15
 2620              	.LVL172:
 2621              	.LBB722:
 2622              	.LBI705:
3680:/Library/DaisyToolchain/0.2.0/arm/arm-none-eabi/include/c++/10.3.1/bits/stl_algo.h ****     {
 2623              		.loc 8 3680 5 is_stmt 1 discriminator 2 view .LVU838
3680:/Library/DaisyToolchain/0.2.0/arm/arm-none-eabi/include/c++/10.3.1/bits/stl_algo.h ****     {
 2624              		.loc 8 3680 5 is_stmt 0 discriminator 2 view .LVU839
 2625              	.LBE722:
 2626              		.loc 6 524 17 is_stmt 1 discriminator 2 view .LVU840
 2627              	.LBB723:
 352:../../libDaisy/src/dev/oled_ssd130x.h ****     {
 2628              		.loc 7 352 10 discriminator 2 view .LVU841
 2629              	.LBE723:
 2630              	.LBB724:
 2631              	.LBB710:
 2632              		.loc 8 3683 29 is_stmt 0 discriminator 2 view .LVU842
 2633 0536 F5EEC07A 		vcmpe.f32	s15, #0
 2634 053a F1EE10FA 		vmrs	APSR_nzcv, FPSCR
 2635 053e DDD5     		bpl	.L80
 2636              	.L55:
 2637              		.loc 8 3683 29 discriminator 2 view .LVU843
 2638              	.LBE710:
 2639              	.LBE724:
 2640              	.LBB725:
 2641              	.LBB714:
 357:../../libDaisy/src/dev/oled_ssd130x.h ****         else
 2642              		.loc 7 357 42 view .LVU844
 2643 0540 3244     		add	r2, r2, r6
 2644              	.LBE714:
 2645              	.LBE725:
 2646              	.LBE729:
 519:WavPlayer.cpp ****                 float sample = wavetable[next_buf][x * static_cast<size_t>(w_inc)];
 2647              		.loc 6 519 13 view .LVU845
 2648 0542 0133     		adds	r3, r3, #1
 2649              	.LVL173:
 519:WavPlayer.cpp ****                 float sample = wavetable[next_buf][x * static_cast<size_t>(w_inc)];
 2650              		.loc 6 519 34 view .LVU846
 2651 0544 4034     		adds	r4, r4, #64
 2652              	.LVL174:
 2653              	.LBB730:
 2654              	.LBB726:
 2655              	.LBB715:
 357:../../libDaisy/src/dev/oled_ssd130x.h ****         else
 2656              		.loc 7 357 42 view .LVU847
 2657 0546 107A     		ldrb	r0, [r2, #8]	@ zero_extendqisi2
 2658              	.LBE715:
 2659              	.LBE726:
 2660              	.LBE730:
 519:WavPlayer.cpp ****                 float sample = wavetable[next_buf][x * static_cast<size_t>(w_inc)];
 2661              		.loc 6 519 34 view .LVU848
 2662 0548 802B     		cmp	r3, #128
 2663              	.LBB731:
ARM GAS  /var/folders/th/s5djnwg15xxc0dk87c413f_h0000gn/T//ccCW3aXI.s 			page 149


 2664              	.LBB727:
 2665              	.LBB716:
 357:../../libDaisy/src/dev/oled_ssd130x.h ****         else
 2666              		.loc 7 357 42 view .LVU849
 2667 054a 41EA0001 		orr	r1, r1, r0
 2668 054e 1172     		strb	r1, [r2, #8]
 2669              	.LVL175:
 357:../../libDaisy/src/dev/oled_ssd130x.h ****         else
 2670              		.loc 7 357 42 view .LVU850
 2671              	.LBE716:
 2672              	.LBE727:
 2673              	.LBE731:
 519:WavPlayer.cpp ****                 float sample = wavetable[next_buf][x * static_cast<size_t>(w_inc)];
 2674              		.loc 6 519 13 is_stmt 1 view .LVU851
 519:WavPlayer.cpp ****                 float sample = wavetable[next_buf][x * static_cast<size_t>(w_inc)];
 2675              		.loc 6 519 34 view .LVU852
 2676 0550 E7D1     		bne	.L51
 2677              	.L79:
 519:WavPlayer.cpp ****                 float sample = wavetable[next_buf][x * static_cast<size_t>(w_inc)];
 2678              		.loc 6 519 34 is_stmt 0 view .LVU853
 2679 0552 2E4D     		ldr	r5, .L84+32
 2680 0554 B027     		movs	r7, #176
 2681              	.LVL176:
 2682              	.L53:
 519:WavPlayer.cpp ****                 float sample = wavetable[next_buf][x * static_cast<size_t>(w_inc)];
 2683              		.loc 6 519 34 view .LVU854
 2684              	.LBE703:
 2685              	.LBB733:
 2686              	.LBB734:
 2687              	.LBB735:
 2688              	.LBI735:
  42:../../libDaisy/src/dev/oled_ssd130x.h ****     {
 2689              		.loc 7 42 10 is_stmt 1 view .LVU855
 2690              	.LBB736:
  44:../../libDaisy/src/dev/oled_ssd130x.h ****         i2c_.TransmitBlocking(i2c_address_, buf, 2, 1000);
 2691              		.loc 7 44 9 view .LVU856
  45:../../libDaisy/src/dev/oled_ssd130x.h ****     };
 2692              		.loc 7 45 30 is_stmt 0 view .LVU857
 2693 0556 4FF47A78 		mov	r8, #1000
  44:../../libDaisy/src/dev/oled_ssd130x.h ****         i2c_.TransmitBlocking(i2c_address_, buf, 2, 1000);
 2694              		.loc 7 44 17 view .LVU858
 2695 055a 0024     		movs	r4, #0
  45:../../libDaisy/src/dev/oled_ssd130x.h ****     };
 2696              		.loc 7 45 30 view .LVU859
 2697 055c 0223     		movs	r3, #2
 2698 055e 16AA     		add	r2, sp, #88
 2699 0560 CDF80080 		str	r8, [sp]
 2700 0564 2A48     		ldr	r0, .L84+36
 2701 0566 3179     		ldrb	r1, [r6, #4]	@ zero_extendqisi2
  44:../../libDaisy/src/dev/oled_ssd130x.h ****         i2c_.TransmitBlocking(i2c_address_, buf, 2, 1000);
 2702              		.loc 7 44 17 view .LVU860
 2703 0568 8DF85840 		strb	r4, [sp, #88]
  44:../../libDaisy/src/dev/oled_ssd130x.h ****         i2c_.TransmitBlocking(i2c_address_, buf, 2, 1000);
 2704              		.loc 7 44 36 view .LVU861
 2705 056c 8DF85970 		strb	r7, [sp, #89]
  45:../../libDaisy/src/dev/oled_ssd130x.h ****     };
 2706              		.loc 7 45 9 is_stmt 1 view .LVU862
ARM GAS  /var/folders/th/s5djnwg15xxc0dk87c413f_h0000gn/T//ccCW3aXI.s 			page 150


  45:../../libDaisy/src/dev/oled_ssd130x.h ****     };
 2707              		.loc 7 45 30 is_stmt 0 view .LVU863
 2708 0570 FFF7FEFF 		bl	_ZN5daisy9I2CHandle16TransmitBlockingEtPhtm
 2709              	.LVL177:
  45:../../libDaisy/src/dev/oled_ssd130x.h ****     };
 2710              		.loc 7 45 30 view .LVU864
 2711              	.LBE736:
 2712              	.LBE735:
 2713              	.LBB737:
 2714              	.LBI737:
  42:../../libDaisy/src/dev/oled_ssd130x.h ****     {
 2715              		.loc 7 42 10 is_stmt 1 view .LVU865
 2716              	.LBB738:
  44:../../libDaisy/src/dev/oled_ssd130x.h ****         i2c_.TransmitBlocking(i2c_address_, buf, 2, 1000);
 2717              		.loc 7 44 9 view .LVU866
  45:../../libDaisy/src/dev/oled_ssd130x.h ****     };
 2718              		.loc 7 45 30 is_stmt 0 view .LVU867
 2719 0574 0223     		movs	r3, #2
 2720 0576 16AA     		add	r2, sp, #88
 2721 0578 CDF80080 		str	r8, [sp]
 2722 057c 2448     		ldr	r0, .L84+36
 2723 057e 3179     		ldrb	r1, [r6, #4]	@ zero_extendqisi2
  44:../../libDaisy/src/dev/oled_ssd130x.h ****         i2c_.TransmitBlocking(i2c_address_, buf, 2, 1000);
 2724              		.loc 7 44 17 view .LVU868
 2725 0580 8DF85840 		strb	r4, [sp, #88]
  44:../../libDaisy/src/dev/oled_ssd130x.h ****         i2c_.TransmitBlocking(i2c_address_, buf, 2, 1000);
 2726              		.loc 7 44 36 view .LVU869
 2727 0584 8DF85940 		strb	r4, [sp, #89]
  45:../../libDaisy/src/dev/oled_ssd130x.h ****     };
 2728              		.loc 7 45 9 is_stmt 1 view .LVU870
  45:../../libDaisy/src/dev/oled_ssd130x.h ****     };
 2729              		.loc 7 45 30 is_stmt 0 view .LVU871
 2730 0588 FFF7FEFF 		bl	_ZN5daisy9I2CHandle16TransmitBlockingEtPhtm
 2731              	.LVL178:
  45:../../libDaisy/src/dev/oled_ssd130x.h ****     };
 2732              		.loc 7 45 30 view .LVU872
 2733              	.LBE738:
 2734              	.LBE737:
 2735              	.LBB739:
 2736              	.LBI739:
  42:../../libDaisy/src/dev/oled_ssd130x.h ****     {
 2737              		.loc 7 42 10 is_stmt 1 view .LVU873
 2738              	.LBB740:
  44:../../libDaisy/src/dev/oled_ssd130x.h ****         i2c_.TransmitBlocking(i2c_address_, buf, 2, 1000);
 2739              		.loc 7 44 9 view .LVU874
  44:../../libDaisy/src/dev/oled_ssd130x.h ****         i2c_.TransmitBlocking(i2c_address_, buf, 2, 1000);
 2740              		.loc 7 44 36 is_stmt 0 view .LVU875
 2741 058c 1023     		movs	r3, #16
  45:../../libDaisy/src/dev/oled_ssd130x.h ****     };
 2742              		.loc 7 45 30 view .LVU876
 2743 058e CDF80080 		str	r8, [sp]
 2744 0592 16AA     		add	r2, sp, #88
 2745 0594 3179     		ldrb	r1, [r6, #4]	@ zero_extendqisi2
  44:../../libDaisy/src/dev/oled_ssd130x.h ****         i2c_.TransmitBlocking(i2c_address_, buf, 2, 1000);
 2746              		.loc 7 44 36 view .LVU877
 2747 0596 8DF85930 		strb	r3, [sp, #89]
  45:../../libDaisy/src/dev/oled_ssd130x.h ****     };
ARM GAS  /var/folders/th/s5djnwg15xxc0dk87c413f_h0000gn/T//ccCW3aXI.s 			page 151


 2748              		.loc 7 45 9 is_stmt 1 view .LVU878
  45:../../libDaisy/src/dev/oled_ssd130x.h ****     };
 2749              		.loc 7 45 30 is_stmt 0 view .LVU879
 2750 059a 0223     		movs	r3, #2
 2751 059c 1C48     		ldr	r0, .L84+36
  44:../../libDaisy/src/dev/oled_ssd130x.h ****         i2c_.TransmitBlocking(i2c_address_, buf, 2, 1000);
 2752              		.loc 7 44 17 view .LVU880
 2753 059e 8DF85840 		strb	r4, [sp, #88]
 2754 05a2 A5F18004 		sub	r4, r5, #128
  45:../../libDaisy/src/dev/oled_ssd130x.h ****     };
 2755              		.loc 7 45 30 view .LVU881
 2756 05a6 FFF7FEFF 		bl	_ZN5daisy9I2CHandle16TransmitBlockingEtPhtm
 2757              	.LVL179:
  45:../../libDaisy/src/dev/oled_ssd130x.h ****     };
 2758              		.loc 7 45 30 view .LVU882
 2759              	.LBE740:
 2760              	.LBE739:
 2761              	.LBB741:
 2762              	.LBI741:
  48:../../libDaisy/src/dev/oled_ssd130x.h ****     {
 2763              		.loc 7 48 10 is_stmt 1 view .LVU883
 2764              	.LBB742:
  50:../../libDaisy/src/dev/oled_ssd130x.h ****         {
 2765              		.loc 7 50 29 view .LVU884
 2766              	.L52:
 2767              	.LBB743:
  52:../../libDaisy/src/dev/oled_ssd130x.h ****             i2c_.TransmitBlocking(i2c_address_, buf, 2, 1000);
 2768              		.loc 7 52 13 view .LVU885
  53:../../libDaisy/src/dev/oled_ssd130x.h ****         }
 2769              		.loc 7 53 34 is_stmt 0 view .LVU886
 2770 05aa 4FF47A73 		mov	r3, #1000
 2771 05ae 16AA     		add	r2, sp, #88
 2772 05b0 1748     		ldr	r0, .L84+36
 2773 05b2 0093     		str	r3, [sp]
  52:../../libDaisy/src/dev/oled_ssd130x.h ****             i2c_.TransmitBlocking(i2c_address_, buf, 2, 1000);
 2774              		.loc 7 52 44 view .LVU887
 2775 05b4 14F8013F 		ldrb	r3, [r4, #1]!	@ zero_extendqisi2
 2776              	.LVL180:
  53:../../libDaisy/src/dev/oled_ssd130x.h ****         }
 2777              		.loc 7 53 34 view .LVU888
 2778 05b8 3179     		ldrb	r1, [r6, #4]	@ zero_extendqisi2
  52:../../libDaisy/src/dev/oled_ssd130x.h ****             i2c_.TransmitBlocking(i2c_address_, buf, 2, 1000);
 2779              		.loc 7 52 44 view .LVU889
 2780 05ba 8DF85930 		strb	r3, [sp, #89]
  53:../../libDaisy/src/dev/oled_ssd130x.h ****         }
 2781              		.loc 7 53 13 is_stmt 1 view .LVU890
  52:../../libDaisy/src/dev/oled_ssd130x.h ****             i2c_.TransmitBlocking(i2c_address_, buf, 2, 1000);
 2782              		.loc 7 52 21 is_stmt 0 view .LVU891
 2783 05be 4023     		movs	r3, #64
 2784 05c0 8DF85830 		strb	r3, [sp, #88]
  53:../../libDaisy/src/dev/oled_ssd130x.h ****         }
 2785              		.loc 7 53 34 view .LVU892
 2786 05c4 0223     		movs	r3, #2
 2787 05c6 FFF7FEFF 		bl	_ZN5daisy9I2CHandle16TransmitBlockingEtPhtm
 2788              	.LVL181:
 2789              	.LBE743:
  50:../../libDaisy/src/dev/oled_ssd130x.h ****         {
ARM GAS  /var/folders/th/s5djnwg15xxc0dk87c413f_h0000gn/T//ccCW3aXI.s 			page 152


 2790              		.loc 7 50 9 is_stmt 1 view .LVU893
  50:../../libDaisy/src/dev/oled_ssd130x.h ****         {
 2791              		.loc 7 50 29 view .LVU894
 2792 05ca A542     		cmp	r5, r4
 2793 05cc EDD1     		bne	.L52
 2794              	.LVL182:
  50:../../libDaisy/src/dev/oled_ssd130x.h ****         {
 2795              		.loc 7 50 29 is_stmt 0 view .LVU895
 2796              	.LBE742:
 2797              	.LBE741:
 383:../../libDaisy/src/dev/oled_ssd130x.h ****         {
 2798              		.loc 7 383 9 is_stmt 1 view .LVU896
 383:../../libDaisy/src/dev/oled_ssd130x.h ****         {
 2799              		.loc 7 383 22 view .LVU897
 2800 05ce 0137     		adds	r7, r7, #1
 2801              	.LVL183:
 383:../../libDaisy/src/dev/oled_ssd130x.h ****         {
 2802              		.loc 7 383 22 is_stmt 0 view .LVU898
 2803 05d0 8035     		adds	r5, r5, #128
 2804 05d2 FFB2     		uxtb	r7, r7
 2805 05d4 B82F     		cmp	r7, #184
 2806 05d6 BED1     		bne	.L53
 2807 05d8 04E6     		b	.L54
 2808              	.LVL184:
 2809              	.L78:
 383:../../libDaisy/src/dev/oled_ssd130x.h ****         {
 2810              		.loc 7 383 22 view .LVU899
 2811              	.LBE734:
 2812              	.LBE733:
 2813              	.LBB744:
 2814              	.LBB732:
 2815              	.LBB728:
 2816              	.LBB717:
 357:../../libDaisy/src/dev/oled_ssd130x.h ****         else
 2817              		.loc 7 357 54 view .LVU900
 2818 05da 02F00700 		and	r0, r2, #7
 357:../../libDaisy/src/dev/oled_ssd130x.h ****         else
 2819              		.loc 7 357 48 view .LVU901
 2820 05de 0121     		movs	r1, #1
 357:../../libDaisy/src/dev/oled_ssd130x.h ****         else
 2821              		.loc 7 357 28 view .LVU902
 2822 05e0 D208     		lsrs	r2, r2, #3
 2823              	.LVL185:
 357:../../libDaisy/src/dev/oled_ssd130x.h ****         else
 2824              		.loc 7 357 48 view .LVU903
 2825 05e2 8140     		lsls	r1, r1, r0
 357:../../libDaisy/src/dev/oled_ssd130x.h ****         else
 2826              		.loc 7 357 42 view .LVU904
 2827 05e4 03EBC212 		add	r2, r3, r2, lsl #7
 2828 05e8 49B2     		sxtb	r1, r1
 2829 05ea A9E7     		b	.L55
 2830              	.L85:
 2831              		.align	2
 2832              	.L84:
 2833 05ec 00000000 		.word	.LANCHOR4
 2834 05f0 00000000 		.word	_ZL9wavetable
 2835 05f4 00000000 		.word	0
ARM GAS  /var/folders/th/s5djnwg15xxc0dk87c413f_h0000gn/T//ccCW3aXI.s 			page 153


 2836 05f8 0000003A 		.word	973078528
 2837 05fc 00000000 		.word	.LANCHOR5
 2838 0600 08000000 		.word	.LANCHOR8+8
 2839 0604 0000FC41 		.word	1107034112
 2840 0608 00007C42 		.word	1115422720
 2841 060c 87000000 		.word	.LANCHOR8+135
 2842 0610 00000000 		.word	.LANCHOR8
 2843              	.LBE717:
 2844              	.LBE728:
 2845              	.LBE732:
 2846              	.LBE744:
 2847              	.LBE745:
 2848              	.LBE747:
 2849              		.cfi_endproc
 2850              	.LFE4527:
 2852              		.section	.text.startup._GLOBAL__sub_I_main,"ax",%progbits
 2853              		.align	1
 2854              		.p2align 2,,3
 2855              		.syntax unified
 2856              		.thumb
 2857              		.thumb_func
 2859              	_GLOBAL__sub_I_main:
 2860              	.LFB4732:
 525:WavPlayer.cpp ****             }
 526:WavPlayer.cpp ****             display.Update(); // Send buffer to display
 527:WavPlayer.cpp ****         }
 528:WavPlayer.cpp ****     }
 529:WavPlayer.cpp **** }...
 2861              		.loc 6 529 1 is_stmt 1 view -0
 2862              		.cfi_startproc
 2863              		@ args = 0, pretend = 0, frame = 0
 2864              		@ frame_needed = 0, uses_anonymous_args = 0
 2865              	.LBB829:
 2866              	.LBI829:
 2867              		.loc 6 529 1 view .LVU906
 2868              	.LVL186:
 2869              	.LBB830:
 2870              	.LBB831:
 2871              	.LBI831:
  21:../../libDaisy/src/daisy_seed.h ****     ~DaisySeed() {}
 2872              		.loc 1 21 5 view .LVU907
 2873              	.LBB832:
 2874              	.LBB833:
 2875              	.LBI833:
 2876              		.file 9 "../../libDaisy/src/per/qspi.h"
   1:../../libDaisy/src/per/qspi.h **** #ifndef DSY_QSPI
   2:../../libDaisy/src/per/qspi.h **** #define DSY_QSPI /**< Macro */
   3:../../libDaisy/src/per/qspi.h **** 
   4:../../libDaisy/src/per/qspi.h **** #ifndef UNIT_TEST // for unit tests, a dummy implementation
   5:../../libDaisy/src/per/qspi.h **** 
   6:../../libDaisy/src/per/qspi.h **** #include <cstdint>
   7:../../libDaisy/src/per/qspi.h **** #include "daisy_core.h" // Added for dsy_gpio_pin typedef
   8:../../libDaisy/src/per/qspi.h **** 
   9:../../libDaisy/src/per/qspi.h **** #define DSY_QSPI_TEXT       \
  10:../../libDaisy/src/per/qspi.h ****     __attribute__((section( \
  11:../../libDaisy/src/per/qspi.h ****         ".qspiflash_text"))) /**< used for reading memory in memory_mapped mode. */
  12:../../libDaisy/src/per/qspi.h **** #define DSY_QSPI_DATA       \
ARM GAS  /var/folders/th/s5djnwg15xxc0dk87c413f_h0000gn/T//ccCW3aXI.s 			page 154


  13:../../libDaisy/src/per/qspi.h ****     __attribute__((section( \
  14:../../libDaisy/src/per/qspi.h ****         ".qspiflash_data"))) /**< used for reading memory in memory_mapped mode. */
  15:../../libDaisy/src/per/qspi.h **** #define DSY_QSPI_BSS        \
  16:../../libDaisy/src/per/qspi.h ****     __attribute__((section( \
  17:../../libDaisy/src/per/qspi.h ****         ".qspiflash_bss"))) /**< used for reading memory in memory_mapped mode. */
  18:../../libDaisy/src/per/qspi.h **** 
  19:../../libDaisy/src/per/qspi.h **** namespace daisy
  20:../../libDaisy/src/per/qspi.h **** {
  21:../../libDaisy/src/per/qspi.h **** /** @addtogroup serial
  22:../../libDaisy/src/per/qspi.h **** @{
  23:../../libDaisy/src/per/qspi.h **** */
  24:../../libDaisy/src/per/qspi.h **** 
  25:../../libDaisy/src/per/qspi.h **** /** 
  26:../../libDaisy/src/per/qspi.h ****  Driver for QSPI peripheral to interface with external flash memory. \n 
  27:../../libDaisy/src/per/qspi.h ****     Currently supported QSPI Devices: \n 
  28:../../libDaisy/src/per/qspi.h ****     * IS25LP080D
  29:../../libDaisy/src/per/qspi.h **** */
  30:../../libDaisy/src/per/qspi.h **** class QSPIHandle
  31:../../libDaisy/src/per/qspi.h **** {
  32:../../libDaisy/src/per/qspi.h ****   public:
  33:../../libDaisy/src/per/qspi.h ****     enum Result
  34:../../libDaisy/src/per/qspi.h ****     {
  35:../../libDaisy/src/per/qspi.h ****         OK = 0,
  36:../../libDaisy/src/per/qspi.h ****         ERR
  37:../../libDaisy/src/per/qspi.h ****     };
  38:../../libDaisy/src/per/qspi.h **** 
  39:../../libDaisy/src/per/qspi.h ****     /** Indicates the current status of the module. 
  40:../../libDaisy/src/per/qspi.h ****          *  Warnings are indicated by a leading W.
  41:../../libDaisy/src/per/qspi.h ****          *  Errors are indicated by a leading E and cause an immediate exit.
  42:../../libDaisy/src/per/qspi.h ****          * 
  43:../../libDaisy/src/per/qspi.h ****          *  \param GOOD - No errors have been reported.
  44:../../libDaisy/src/per/qspi.h ****          *  \param E_HAL_ERROR - HAL code did not return HAL_OK.
  45:../../libDaisy/src/per/qspi.h ****          *  \param E_SWITCHING_MODES - An error was encountered while switching QSPI peripheral mod
  46:../../libDaisy/src/per/qspi.h ****          *  \param E_INVALID_MODE - QSPI should not be written to while the program is executing fr
  47:../../libDaisy/src/per/qspi.h ****          */
  48:../../libDaisy/src/per/qspi.h ****     enum Status
  49:../../libDaisy/src/per/qspi.h ****     {
  50:../../libDaisy/src/per/qspi.h ****         GOOD = 0,
  51:../../libDaisy/src/per/qspi.h ****         E_HAL_ERROR,
  52:../../libDaisy/src/per/qspi.h ****         E_SWITCHING_MODES,
  53:../../libDaisy/src/per/qspi.h ****         E_INVALID_MODE,
  54:../../libDaisy/src/per/qspi.h ****     };
  55:../../libDaisy/src/per/qspi.h **** 
  56:../../libDaisy/src/per/qspi.h ****     /** Configuration structure for interfacing with QSPI Driver */
  57:../../libDaisy/src/per/qspi.h ****     struct Config
  58:../../libDaisy/src/per/qspi.h ****     {
  59:../../libDaisy/src/per/qspi.h ****         /** Flash Devices supported. (Both of these are more-or-less the same, just different sizes
  60:../../libDaisy/src/per/qspi.h ****         enum Device
  61:../../libDaisy/src/per/qspi.h ****         {
  62:../../libDaisy/src/per/qspi.h ****             IS25LP080D,  /**< & */
  63:../../libDaisy/src/per/qspi.h ****             IS25LP064A,  /**< & */
  64:../../libDaisy/src/per/qspi.h ****             DEVICE_LAST, /**< & */
  65:../../libDaisy/src/per/qspi.h ****         };
  66:../../libDaisy/src/per/qspi.h **** 
  67:../../libDaisy/src/per/qspi.h ****         /** 
  68:../../libDaisy/src/per/qspi.h ****         Modes of operation.
  69:../../libDaisy/src/per/qspi.h ****         Memory Mapped mode: QSPI configured so that the QSPI can be
ARM GAS  /var/folders/th/s5djnwg15xxc0dk87c413f_h0000gn/T//ccCW3aXI.s 			page 155


  70:../../libDaisy/src/per/qspi.h ****         read from starting address 0x90000000. Writing is not
  71:../../libDaisy/src/per/qspi.h ****         possible in this mode. \n 
  72:../../libDaisy/src/per/qspi.h ****         Indirect Polling mode: Device driver enabled. 
  73:../../libDaisy/src/per/qspi.h ****         */
  74:../../libDaisy/src/per/qspi.h ****         enum Mode
  75:../../libDaisy/src/per/qspi.h ****         {
  76:../../libDaisy/src/per/qspi.h ****             MEMORY_MAPPED,    /**< & */
  77:../../libDaisy/src/per/qspi.h ****             INDIRECT_POLLING, /**< & */
  78:../../libDaisy/src/per/qspi.h ****             MODE_LAST,
  79:../../libDaisy/src/per/qspi.h ****         };
  80:../../libDaisy/src/per/qspi.h **** 
  81:../../libDaisy/src/per/qspi.h ****         //SCK,  CE# (active low)
  82:../../libDaisy/src/per/qspi.h ****         struct
  83:../../libDaisy/src/per/qspi.h ****         {
  84:../../libDaisy/src/per/qspi.h ****             dsy_gpio_pin io0; /**< & */
  85:../../libDaisy/src/per/qspi.h ****             dsy_gpio_pin io1; /**< & */
  86:../../libDaisy/src/per/qspi.h ****             dsy_gpio_pin io2; /**< & */
  87:../../libDaisy/src/per/qspi.h ****             dsy_gpio_pin io3; /**< & */
  88:../../libDaisy/src/per/qspi.h ****             dsy_gpio_pin clk; /**< & */
  89:../../libDaisy/src/per/qspi.h ****             dsy_gpio_pin ncs; /**< & */
  90:../../libDaisy/src/per/qspi.h ****         } pin_config;
  91:../../libDaisy/src/per/qspi.h **** 
  92:../../libDaisy/src/per/qspi.h ****         Device device;
  93:../../libDaisy/src/per/qspi.h ****         Mode   mode;
  94:../../libDaisy/src/per/qspi.h ****     };
  95:../../libDaisy/src/per/qspi.h **** 
  96:../../libDaisy/src/per/qspi.h ****     /** 
  97:../../libDaisy/src/per/qspi.h ****         Initializes QSPI peripheral, and Resets, and prepares memory for access.
  98:../../libDaisy/src/per/qspi.h ****         \param config should be populated with the mode, device and pin_config before calling this 
  99:../../libDaisy/src/per/qspi.h ****         \return Result::OK or Result::ERR
 100:../../libDaisy/src/per/qspi.h ****         */
 101:../../libDaisy/src/per/qspi.h ****     Result Init(const Config& config);
 102:../../libDaisy/src/per/qspi.h **** 
 103:../../libDaisy/src/per/qspi.h ****     /** Returns the current config. */
 104:../../libDaisy/src/per/qspi.h ****     const Config& GetConfig() const;
 105:../../libDaisy/src/per/qspi.h **** 
 106:../../libDaisy/src/per/qspi.h ****     // Couldn't this just be called before anything else in init? That
 107:../../libDaisy/src/per/qspi.h ****     // would make manually calling it unnecessary.
 108:../../libDaisy/src/per/qspi.h ****     /** 
 109:../../libDaisy/src/per/qspi.h ****         Deinitializes the peripheral
 110:../../libDaisy/src/per/qspi.h ****         This should be called before reinitializing QSPI in a different mode.
 111:../../libDaisy/src/per/qspi.h ****         \return Result::OK or Result::ERR
 112:../../libDaisy/src/per/qspi.h ****         */
 113:../../libDaisy/src/per/qspi.h ****     Result DeInit();
 114:../../libDaisy/src/per/qspi.h **** 
 115:../../libDaisy/src/per/qspi.h ****     /** 
 116:../../libDaisy/src/per/qspi.h ****         Writes a single page to to the specified address on the QSPI chip.
 117:../../libDaisy/src/per/qspi.h ****         For IS25LP*, page size is 256 bytes.
 118:../../libDaisy/src/per/qspi.h ****         \param address Address to write to
 119:../../libDaisy/src/per/qspi.h ****         \param size Buffer size
 120:../../libDaisy/src/per/qspi.h ****         \param buffer Buffer to write
 121:../../libDaisy/src/per/qspi.h ****         \return Result::OK or Result::ERR
 122:../../libDaisy/src/per/qspi.h ****         */
 123:../../libDaisy/src/per/qspi.h ****     Result WritePage(uint32_t address, uint32_t size, uint8_t* buffer);
 124:../../libDaisy/src/per/qspi.h **** 
 125:../../libDaisy/src/per/qspi.h ****     /** 
 126:../../libDaisy/src/per/qspi.h ****         Writes data in buffer to to the QSPI. Starting at address to address+size 
ARM GAS  /var/folders/th/s5djnwg15xxc0dk87c413f_h0000gn/T//ccCW3aXI.s 			page 156


 127:../../libDaisy/src/per/qspi.h ****         \param address Address to write to
 128:../../libDaisy/src/per/qspi.h ****         \param size Buffer size
 129:../../libDaisy/src/per/qspi.h ****         \param buffer Buffer to write
 130:../../libDaisy/src/per/qspi.h ****         \return Result::OK or Result::ERR
 131:../../libDaisy/src/per/qspi.h ****         */
 132:../../libDaisy/src/per/qspi.h ****     Result Write(uint32_t address, uint32_t size, uint8_t* buffer);
 133:../../libDaisy/src/per/qspi.h **** 
 134:../../libDaisy/src/per/qspi.h ****     /** 
 135:../../libDaisy/src/per/qspi.h ****         Erases the area specified on the chip.
 136:../../libDaisy/src/per/qspi.h ****         Erasures will happen by 4K, 32K or 64K increments.
 137:../../libDaisy/src/per/qspi.h ****         Smallest erase possible is 4kB at a time. (on IS25LP*)
 138:../../libDaisy/src/per/qspi.h ****         \param start_addr Address to begin erasing from
 139:../../libDaisy/src/per/qspi.h ****         \param end_addr  Address to stop erasing at
 140:../../libDaisy/src/per/qspi.h ****         \return Result::OK or Result::ERR
 141:../../libDaisy/src/per/qspi.h ****         */
 142:../../libDaisy/src/per/qspi.h ****     Result Erase(uint32_t start_addr, uint32_t end_addr);
 143:../../libDaisy/src/per/qspi.h **** 
 144:../../libDaisy/src/per/qspi.h ****     /**  
 145:../../libDaisy/src/per/qspi.h ****          Erases a single sector of the chip.  
 146:../../libDaisy/src/per/qspi.h ****         TODO: Document the size of this function. 
 147:../../libDaisy/src/per/qspi.h ****         \param address Address of sector to erase
 148:../../libDaisy/src/per/qspi.h ****         \return Result::OK or Result::ERR
 149:../../libDaisy/src/per/qspi.h ****         */
 150:../../libDaisy/src/per/qspi.h ****     Result EraseSector(uint32_t address);
 151:../../libDaisy/src/per/qspi.h **** 
 152:../../libDaisy/src/per/qspi.h ****     /** Returns the current class status. Useful for debugging.
 153:../../libDaisy/src/per/qspi.h ****      *  \returns Status
 154:../../libDaisy/src/per/qspi.h ****      */
 155:../../libDaisy/src/per/qspi.h ****     Status GetStatus();
 156:../../libDaisy/src/per/qspi.h **** 
 157:../../libDaisy/src/per/qspi.h ****     /** Returns a pointer to the actual memory used 
 158:../../libDaisy/src/per/qspi.h ****      *  The memory at this address is read-only
 159:../../libDaisy/src/per/qspi.h ****      *  to write to it use the Write function.
 160:../../libDaisy/src/per/qspi.h ****      * 
 161:../../libDaisy/src/per/qspi.h ****      *  \param offset returns the pointer starting this 
 162:../../libDaisy/src/per/qspi.h ****      *                many bytes into the memory
 163:../../libDaisy/src/per/qspi.h ****     */
 164:../../libDaisy/src/per/qspi.h ****     void* GetData(uint32_t offset = 0);
 165:../../libDaisy/src/per/qspi.h **** 
 166:../../libDaisy/src/per/qspi.h ****     QSPIHandle() : pimpl_(nullptr) {}
 2877              		.loc 9 166 5 view .LVU908
 2878              	.LBE833:
 2879              	.LBE832:
 2880              	.LBE831:
 2881              	.LBE830:
 2882              	.LBE829:
 2883              		.loc 6 529 1 is_stmt 0 view .LVU909
 2884 0000 10B5     		push	{r4, lr}
 2885              		.cfi_def_cfa_offset 8
 2886              		.cfi_offset 4, -8
 2887              		.cfi_offset 14, -4
 2888              	.LBB968:
 2889              	.LBB966:
 2890              	.LBB854:
 2891              	.LBB852:
 2892              	.LBB838:
 2893              	.LBB834:
ARM GAS  /var/folders/th/s5djnwg15xxc0dk87c413f_h0000gn/T//ccCW3aXI.s 			page 157


 2894              	.LBB835:
 2895              		.loc 9 166 34 view .LVU910
 2896 0002 2B48     		ldr	r0, .L92
 2897 0004 0024     		movs	r4, #0
 2898              	.LBE835:
 2899              	.LBE834:
 2900              	.LBE838:
 2901              	.LBE852:
 2902              	.LBE854:
 109:WavPlayer.cpp **** static DaisySeed hw;
 2903              		.loc 6 109 18 view .LVU911
 2904 0006 2B4A     		ldr	r2, .L92+4
 2905 0008 2B49     		ldr	r1, .L92+8
 2906              	.LBB855:
 2907              	.LBB853:
 2908              	.LBB839:
 2909              	.LBB837:
 2910              	.LBB836:
 2911              		.loc 9 166 34 view .LVU912
 2912 000a 0460     		str	r4, [r0]
 2913              	.LVL187:
 2914              		.loc 9 166 34 view .LVU913
 2915              	.LBE836:
 2916              	.LBE837:
 2917              	.LBE839:
 2918              	.LBB840:
 2919              	.LBI840:
  95:../../libDaisy/src/hid/audio.h ****     ~AudioHandle() {}
 2920              		.loc 5 95 5 is_stmt 1 view .LVU914
 2921              	.LBB841:
 2922              	.LBB842:
  95:../../libDaisy/src/hid/audio.h ****     ~AudioHandle() {}
 2923              		.loc 5 95 35 is_stmt 0 view .LVU915
 2924 000c 4461     		str	r4, [r0, #20]
 2925              	.LVL188:
  95:../../libDaisy/src/hid/audio.h ****     ~AudioHandle() {}
 2926              		.loc 5 95 35 view .LVU916
 2927              	.LBE842:
 2928              	.LBE841:
 2929              	.LBE840:
 2930              	.LBB843:
 2931              	.LBI843:
 109:../../libDaisy/src/per/adc.h ****     ~AdcHandle() {}
 2932              		.loc 4 109 5 is_stmt 1 view .LVU917
 109:../../libDaisy/src/per/adc.h ****     ~AdcHandle() {}
 2933              		.loc 4 109 5 is_stmt 0 view .LVU918
 2934              	.LBE843:
 2935              	.LBB844:
 2936              	.LBI844:
 2937              		.file 10 "../../libDaisy/src/per/dac.h"
   1:../../libDaisy/src/per/dac.h **** #pragma once
   2:../../libDaisy/src/per/dac.h **** #ifndef DSY_DAC_H
   3:../../libDaisy/src/per/dac.h **** #define DSY_DAC_H
   4:../../libDaisy/src/per/dac.h **** 
   5:../../libDaisy/src/per/dac.h **** #include "daisy_core.h"
   6:../../libDaisy/src/per/dac.h **** 
   7:../../libDaisy/src/per/dac.h **** namespace daisy
ARM GAS  /var/folders/th/s5djnwg15xxc0dk87c413f_h0000gn/T//ccCW3aXI.s 			page 158


   8:../../libDaisy/src/per/dac.h **** {
   9:../../libDaisy/src/per/dac.h **** /** @brief DAC handle for Built-in DAC Peripheral 
  10:../../libDaisy/src/per/dac.h ****  *  @ingroup per_analog
  11:../../libDaisy/src/per/dac.h ****  ** 
  12:../../libDaisy/src/per/dac.h ****  ** For now only Normal Mode is supported,
  13:../../libDaisy/src/per/dac.h ****  ** Sample and hold mode provides reduced power consumption, but requires a bit more setup.
  14:../../libDaisy/src/per/dac.h ****  **
  15:../../libDaisy/src/per/dac.h ****  ** For now connecting the DAC through other internal peripherals is also not supported.
  16:../../libDaisy/src/per/dac.h ****  **
  17:../../libDaisy/src/per/dac.h ****  ** Since the DAC channels have dedicated pins we don't need to pass in a pin config like with
  18:../../libDaisy/src/per/dac.h ****  ** other modules. However, it is still important to not try to use the DAC pins for anything else.
  19:../../libDaisy/src/per/dac.h ****  ** DAC Channel 1 is on PA4, and DAC Channel 2 is on PA5
  20:../../libDaisy/src/per/dac.h ****  ***/
  21:../../libDaisy/src/per/dac.h **** class DacHandle
  22:../../libDaisy/src/per/dac.h **** {
  23:../../libDaisy/src/per/dac.h ****   public:
  24:../../libDaisy/src/per/dac.h ****     /** Return Values for the DacHandle class */
  25:../../libDaisy/src/per/dac.h ****     enum class Result
  26:../../libDaisy/src/per/dac.h ****     {
  27:../../libDaisy/src/per/dac.h ****         OK,
  28:../../libDaisy/src/per/dac.h ****         ERR,
  29:../../libDaisy/src/per/dac.h ****     };
  30:../../libDaisy/src/per/dac.h **** 
  31:../../libDaisy/src/per/dac.h ****     /** Selects which channel(s) will be configured for use. */
  32:../../libDaisy/src/per/dac.h ****     enum class Channel
  33:../../libDaisy/src/per/dac.h ****     {
  34:../../libDaisy/src/per/dac.h ****         ONE,
  35:../../libDaisy/src/per/dac.h ****         TWO,
  36:../../libDaisy/src/per/dac.h ****         BOTH,
  37:../../libDaisy/src/per/dac.h ****     };
  38:../../libDaisy/src/per/dac.h **** 
  39:../../libDaisy/src/per/dac.h ****     /** Sets the Mode for the DAC channels.
  40:../../libDaisy/src/per/dac.h ****      **
  41:../../libDaisy/src/per/dac.h ****      ** Polling mode uses the blocking mode to transmit a single value at a time.
  42:../../libDaisy/src/per/dac.h ****      **
  43:../../libDaisy/src/per/dac.h ****      ** DMA mode uses a buffer, and periodically transmits it triggering a 
  44:../../libDaisy/src/per/dac.h ****      ** callback to fill the buffer when it is ready for more samples.
  45:../../libDaisy/src/per/dac.h ****      ***/
  46:../../libDaisy/src/per/dac.h ****     enum class Mode
  47:../../libDaisy/src/per/dac.h ****     {
  48:../../libDaisy/src/per/dac.h ****         POLLING,
  49:../../libDaisy/src/per/dac.h ****         DMA,
  50:../../libDaisy/src/per/dac.h ****     };
  51:../../libDaisy/src/per/dac.h **** 
  52:../../libDaisy/src/per/dac.h ****     /** Sets the number of bits per sample transmitted out of the DAC.
  53:../../libDaisy/src/per/dac.h ****      ** The output range will be: 0V - VDDA
  54:../../libDaisy/src/per/dac.h ****      ** The resolution will be roughly: bitdepth / (VDDA - 0V) 
  55:../../libDaisy/src/per/dac.h ****      ***/
  56:../../libDaisy/src/per/dac.h ****     enum class BitDepth
  57:../../libDaisy/src/per/dac.h ****     {
  58:../../libDaisy/src/per/dac.h ****         BITS_8,
  59:../../libDaisy/src/per/dac.h ****         BITS_12
  60:../../libDaisy/src/per/dac.h ****     };
  61:../../libDaisy/src/per/dac.h **** 
  62:../../libDaisy/src/per/dac.h ****     /** Sets whether the DAC output is buffered for higher drive ability. */
  63:../../libDaisy/src/per/dac.h ****     enum class BufferState
  64:../../libDaisy/src/per/dac.h ****     {
ARM GAS  /var/folders/th/s5djnwg15xxc0dk87c413f_h0000gn/T//ccCW3aXI.s 			page 159


  65:../../libDaisy/src/per/dac.h ****         ENABLED,
  66:../../libDaisy/src/per/dac.h ****         DISABLED,
  67:../../libDaisy/src/per/dac.h ****     };
  68:../../libDaisy/src/per/dac.h **** 
  69:../../libDaisy/src/per/dac.h ****     /** Configuration structure for initializing the DAC structure. */
  70:../../libDaisy/src/per/dac.h ****     struct Config
  71:../../libDaisy/src/per/dac.h ****     {
  72:../../libDaisy/src/per/dac.h ****         /** Target Samplerate in Hz used to configure the internal 
  73:../../libDaisy/src/per/dac.h ****          ** timebase for DMA mode. Does nothing in POLLING mode.
  74:../../libDaisy/src/per/dac.h ****          ** If the value is 0 at Init time this will default to 48000Hz 
  75:../../libDaisy/src/per/dac.h ****          ** otherwise the driver will attempt meet the target.*/
  76:../../libDaisy/src/per/dac.h ****         uint32_t target_samplerate;
  77:../../libDaisy/src/per/dac.h **** 
  78:../../libDaisy/src/per/dac.h ****         Channel     chn;
  79:../../libDaisy/src/per/dac.h ****         Mode        mode;
  80:../../libDaisy/src/per/dac.h ****         BitDepth    bitdepth;
  81:../../libDaisy/src/per/dac.h ****         BufferState buff_state;
  82:../../libDaisy/src/per/dac.h ****     };
  83:../../libDaisy/src/per/dac.h **** 
  84:../../libDaisy/src/per/dac.h ****     DacHandle() : pimpl_(nullptr) {}
 2938              		.loc 10 84 5 is_stmt 1 view .LVU919
 2939              	.LBB845:
 2940              	.LBB846:
 2941              		.loc 10 84 33 is_stmt 0 view .LVU920
 2942 000e 0462     		str	r4, [r0, #32]
 2943              	.LVL189:
 2944              		.loc 10 84 33 view .LVU921
 2945              	.LBE846:
 2946              	.LBE845:
 2947              	.LBE844:
 2948              	.LBB847:
 2949              	.LBI847:
  40:../../libDaisy/src/hid/usb.h **** 
 2950              		.loc 3 40 5 is_stmt 1 view .LVU922
  40:../../libDaisy/src/hid/usb.h **** 
 2951              		.loc 3 40 5 is_stmt 0 view .LVU923
 2952              	.LBE847:
 2953              	.LBB848:
 2954              	.LBI848:
  96:../../libDaisy/src/sys/system.h ****     ~System() {}
 2955              		.loc 2 96 5 is_stmt 1 view .LVU924
  96:../../libDaisy/src/sys/system.h ****     ~System() {}
 2956              		.loc 2 96 5 is_stmt 0 view .LVU925
 2957              	.LBE848:
 2958              	.LBB849:
 2959              	.LBI849:
 2960              		.file 11 "../../libDaisy/src/per/sai.h"
   1:../../libDaisy/src/per/sai.h **** #pragma once
   2:../../libDaisy/src/per/sai.h **** #ifndef DSY_SAI_H
   3:../../libDaisy/src/per/sai.h **** #define DSY_SAI_H
   4:../../libDaisy/src/per/sai.h **** 
   5:../../libDaisy/src/per/sai.h **** #include "daisy_core.h"
   6:../../libDaisy/src/per/sai.h **** 
   7:../../libDaisy/src/per/sai.h **** namespace daisy
   8:../../libDaisy/src/per/sai.h **** {
   9:../../libDaisy/src/per/sai.h **** /** 
  10:../../libDaisy/src/per/sai.h ****  * Support for I2S Audio Protocol with different bit-depth, samplerate options
ARM GAS  /var/folders/th/s5djnwg15xxc0dk87c413f_h0000gn/T//ccCW3aXI.s 			page 160


  11:../../libDaisy/src/per/sai.h ****  * Allows for master or slave, as well as freedom of selecting direction, 
  12:../../libDaisy/src/per/sai.h ****  * and other behavior for each peripheral, and block.
  13:../../libDaisy/src/per/sai.h ****  * 
  14:../../libDaisy/src/per/sai.h ****  * DMA Transfer commands must use buffers located within non-cached memory or use cache maintenance
  15:../../libDaisy/src/per/sai.h ****  * To declare an unitialized global element in the DMA memory section:
  16:../../libDaisy/src/per/sai.h ****  *    int32_t DSY_DMA_BUFFER_SECTOR my_buffer[96];
  17:../../libDaisy/src/per/sai.h ****  *
  18:../../libDaisy/src/per/sai.h ****  * Callback functions will be called once per half of the buffer. In the above example, 
  19:../../libDaisy/src/per/sai.h ****  * the callback function would be called once for every 48 samples.
  20:../../libDaisy/src/per/sai.h ****  * 
  21:../../libDaisy/src/per/sai.h ****  * Use SAI Handle like this:
  22:../../libDaisy/src/per/sai.h ****  * 
  23:../../libDaisy/src/per/sai.h ****  *  SaiHandle::Config sai_config;
  24:../../libDaisy/src/per/sai.h ****  *  sai_config.periph          = SaiHandle::Config::Peripheral::SAI_1;
  25:../../libDaisy/src/per/sai.h ****  *  sai_config.sr              = SaiHandle::Config::SampleRate::SAI_48KHZ;
  26:../../libDaisy/src/per/sai.h ****  *  sai_config.bit_depth       = SaiHandle::Config::BitDepth::SAI_24BIT;
  27:../../libDaisy/src/per/sai.h ****  *  sai_config.a_sync          = SaiHandle::Config::Sync::MASTER;
  28:../../libDaisy/src/per/sai.h ****  *  sai_config.b_sync          = SaiHandle::Config::Sync::SLAVE;
  29:../../libDaisy/src/per/sai.h ****  *  sai_config.a_dir           = SaiHandle::Config::Direction::RECEIVE;
  30:../../libDaisy/src/per/sai.h ****  *  sai_config.b_dir           = SaiHandle::Config::Direction::TRANSMIT;
  31:../../libDaisy/src/per/sai.h ****  *  sai_config.pin_config.fs   = {DSY_GPIOE, 4};
  32:../../libDaisy/src/per/sai.h ****  *  sai_config.pin_config.mclk = {DSY_GPIOE, 2};
  33:../../libDaisy/src/per/sai.h ****  *  sai_config.pin_config.sck  = {DSY_GPIOE, 5};
  34:../../libDaisy/src/per/sai.h ****  *  sai_config.pin_config.sa   = {DSY_GPIOE, 6};
  35:../../libDaisy/src/per/sai.h ****  *  sai_config.pin_config.sb   = {DSY_GPIOE, 3};
  36:../../libDaisy/src/per/sai.h ****  *  // Then Initialize
  37:../../libDaisy/src/per/sai.h ****  *  SaiHandle sai;
  38:../../libDaisy/src/per/sai.h ****  *  sai.Init(sai_config);
  39:../../libDaisy/src/per/sai.h ****  *  // Now you can use it:
  40:../../libDaisy/src/per/sai.h ****  *  sai.StartDma(. . .);
  41:../../libDaisy/src/per/sai.h ****  */
  42:../../libDaisy/src/per/sai.h **** class SaiHandle
  43:../../libDaisy/src/per/sai.h **** {
  44:../../libDaisy/src/per/sai.h ****   public:
  45:../../libDaisy/src/per/sai.h ****     /** Contains settings for initialising an SAI Interface */
  46:../../libDaisy/src/per/sai.h ****     struct Config
  47:../../libDaisy/src/per/sai.h ****     {
  48:../../libDaisy/src/per/sai.h ****         /** Specifies the internal peripheral to use (mapped to different hardware pins) */
  49:../../libDaisy/src/per/sai.h ****         enum class Peripheral
  50:../../libDaisy/src/per/sai.h ****         {
  51:../../libDaisy/src/per/sai.h ****             SAI_1,
  52:../../libDaisy/src/per/sai.h ****             SAI_2,
  53:../../libDaisy/src/per/sai.h ****         };
  54:../../libDaisy/src/per/sai.h **** 
  55:../../libDaisy/src/per/sai.h ****         /** Rate at which samples will be streaming to/from the device. */
  56:../../libDaisy/src/per/sai.h ****         enum class SampleRate
  57:../../libDaisy/src/per/sai.h ****         {
  58:../../libDaisy/src/per/sai.h ****             SAI_8KHZ,
  59:../../libDaisy/src/per/sai.h ****             SAI_16KHZ,
  60:../../libDaisy/src/per/sai.h ****             SAI_32KHZ,
  61:../../libDaisy/src/per/sai.h ****             SAI_48KHZ,
  62:../../libDaisy/src/per/sai.h ****             SAI_96KHZ,
  63:../../libDaisy/src/per/sai.h ****         };
  64:../../libDaisy/src/per/sai.h **** 
  65:../../libDaisy/src/per/sai.h ****         /** Bit Depth that the hardware expects to be transferred to/from the device. */
  66:../../libDaisy/src/per/sai.h ****         enum class BitDepth
  67:../../libDaisy/src/per/sai.h ****         {
ARM GAS  /var/folders/th/s5djnwg15xxc0dk87c413f_h0000gn/T//ccCW3aXI.s 			page 161


  68:../../libDaisy/src/per/sai.h ****             SAI_16BIT,
  69:../../libDaisy/src/per/sai.h ****             SAI_24BIT,
  70:../../libDaisy/src/per/sai.h ****             SAI_32BIT,
  71:../../libDaisy/src/per/sai.h ****         };
  72:../../libDaisy/src/per/sai.h **** 
  73:../../libDaisy/src/per/sai.h ****         /** Specifies whether a particular block is the master or the slave 
  74:../../libDaisy/src/per/sai.h ****          ** If both are set to slave, no MCLK signal will be used, and it is
  75:../../libDaisy/src/per/sai.h ****          ** expected that the codec will have its own xtal.
  76:../../libDaisy/src/per/sai.h ****          */
  77:../../libDaisy/src/per/sai.h ****         enum class Sync
  78:../../libDaisy/src/per/sai.h ****         {
  79:../../libDaisy/src/per/sai.h ****             MASTER,
  80:../../libDaisy/src/per/sai.h ****             SLAVE,
  81:../../libDaisy/src/per/sai.h ****         };
  82:../../libDaisy/src/per/sai.h **** 
  83:../../libDaisy/src/per/sai.h ****         /** Specifies the direction for each peripheral block. */
  84:../../libDaisy/src/per/sai.h ****         enum class Direction
  85:../../libDaisy/src/per/sai.h ****         {
  86:../../libDaisy/src/per/sai.h ****             TRANSMIT,
  87:../../libDaisy/src/per/sai.h ****             RECEIVE,
  88:../../libDaisy/src/per/sai.h ****         };
  89:../../libDaisy/src/per/sai.h **** 
  90:../../libDaisy/src/per/sai.h ****         Peripheral periph;
  91:../../libDaisy/src/per/sai.h ****         struct
  92:../../libDaisy/src/per/sai.h ****         {
  93:../../libDaisy/src/per/sai.h ****             dsy_gpio_pin mclk, fs, sck, sa, sb;
  94:../../libDaisy/src/per/sai.h ****         } pin_config;
  95:../../libDaisy/src/per/sai.h ****         SampleRate sr;
  96:../../libDaisy/src/per/sai.h ****         BitDepth   bit_depth;
  97:../../libDaisy/src/per/sai.h ****         Sync       a_sync, b_sync;
  98:../../libDaisy/src/per/sai.h ****         Direction  a_dir, b_dir;
  99:../../libDaisy/src/per/sai.h ****     };
 100:../../libDaisy/src/per/sai.h **** 
 101:../../libDaisy/src/per/sai.h ****     /** Return values for SAI functions */
 102:../../libDaisy/src/per/sai.h ****     enum class Result
 103:../../libDaisy/src/per/sai.h ****     {
 104:../../libDaisy/src/per/sai.h ****         OK,
 105:../../libDaisy/src/per/sai.h ****         ERR,
 106:../../libDaisy/src/per/sai.h ****     };
 107:../../libDaisy/src/per/sai.h **** 
 108:../../libDaisy/src/per/sai.h ****     SaiHandle() : pimpl_(nullptr) {}
 2961              		.loc 11 108 5 is_stmt 1 view .LVU926
 2962              	.LBB850:
 2963              	.LBB851:
 2964              		.loc 11 108 33 is_stmt 0 view .LVU927
 2965 0010 C463     		str	r4, [r0, #60]
 2966              	.LVL190:
 2967              		.loc 11 108 33 view .LVU928
 2968              	.LBE851:
 2969              	.LBE850:
 2970              	.LBE849:
 2971              	.LBE853:
 2972              	.LBE855:
 109:WavPlayer.cpp **** static DaisySeed hw;
 2973              		.loc 6 109 18 view .LVU929
 2974 0012 FFF7FEFF 		bl	__aeabi_atexit
 2975              	.LVL191:
ARM GAS  /var/folders/th/s5djnwg15xxc0dk87c413f_h0000gn/T//ccCW3aXI.s 			page 162


 2976              	.LBB856:
 2977              	.LBI856:
 245:../../libDaisy/src/dev/oled_ssd130x.h **** {
 2978              		.loc 7 245 7 is_stmt 1 view .LVU930
 2979              	.LBB857:
 2980              	.LBI857:
  15:../../libDaisy/src/dev/oled_ssd130x.h **** {
 2981              		.loc 7 15 7 view .LVU931
 2982              	.LBB858:
 2983              	.LBI858:
 2984              		.file 12 "../../libDaisy/src/per/i2c.h"
   1:../../libDaisy/src/per/i2c.h **** #pragma once
   2:../../libDaisy/src/per/i2c.h **** #include "daisy_core.h"
   3:../../libDaisy/src/per/i2c.h **** 
   4:../../libDaisy/src/per/i2c.h **** namespace daisy
   5:../../libDaisy/src/per/i2c.h **** {
   6:../../libDaisy/src/per/i2c.h **** /** A handle for interacting with an I2C peripheral. This is a dumb
   7:../../libDaisy/src/per/i2c.h ****  *  gateway that internally points to one of the four I2C peripherals
   8:../../libDaisy/src/per/i2c.h ****  *  after it was initialised. It can then be copied and passed around.
   9:../../libDaisy/src/per/i2c.h ****  *  Use an I2CHandle like this:
  10:../../libDaisy/src/per/i2c.h ****  *  
  11:../../libDaisy/src/per/i2c.h ****  *      // setup the configuration
  12:../../libDaisy/src/per/i2c.h ****  *      I2CHandle::Config i2c_conf;
  13:../../libDaisy/src/per/i2c.h ****  *      i2c_conf.periph = I2CHandle::Config::Peripheral::I2C_1;
  14:../../libDaisy/src/per/i2c.h ****  *      i2c_conf.speed  = I2CHandle::Config::Speed::I2C_400KHZ;
  15:../../libDaisy/src/per/i2c.h ****  *      i2c_conf.mode   = I2CHandle::Config::Mode::Master;
  16:../../libDaisy/src/per/i2c.h ****  *      i2c_conf.pin_config.scl  = {DSY_GPIOB, 8};
  17:../../libDaisy/src/per/i2c.h ****  *      i2c_conf.pin_config.sda  = {DSY_GPIOB, 9};
  18:../../libDaisy/src/per/i2c.h ****  *      // initialise the peripheral
  19:../../libDaisy/src/per/i2c.h ****  *      I2CHandle i2c;
  20:../../libDaisy/src/per/i2c.h ****  *      i2c.Init(i2c_conf);
  21:../../libDaisy/src/per/i2c.h ****  *      // now i2c points to the corresponding peripheral and can be used.
  22:../../libDaisy/src/per/i2c.h ****  *      i2c.TransmitBlocking( ... );
  23:../../libDaisy/src/per/i2c.h ****  */
  24:../../libDaisy/src/per/i2c.h **** class I2CHandle
  25:../../libDaisy/src/per/i2c.h **** {
  26:../../libDaisy/src/per/i2c.h ****   public:
  27:../../libDaisy/src/per/i2c.h ****     /** Contains settings for initialising an I2C interface. */
  28:../../libDaisy/src/per/i2c.h ****     struct Config
  29:../../libDaisy/src/per/i2c.h ****     {
  30:../../libDaisy/src/per/i2c.h ****         /** Specifies whether the interface will operate in master or slave mode. */
  31:../../libDaisy/src/per/i2c.h ****         enum class Mode
  32:../../libDaisy/src/per/i2c.h ****         {
  33:../../libDaisy/src/per/i2c.h ****             I2C_MASTER,
  34:../../libDaisy/src/per/i2c.h ****             I2C_SLAVE,
  35:../../libDaisy/src/per/i2c.h ****         };
  36:../../libDaisy/src/per/i2c.h **** 
  37:../../libDaisy/src/per/i2c.h ****         /** Specifices the internal peripheral to use (these are mapped to different pins on the ha
  38:../../libDaisy/src/per/i2c.h ****         enum class Peripheral
  39:../../libDaisy/src/per/i2c.h ****         {
  40:../../libDaisy/src/per/i2c.h ****             I2C_1 = 0, /**< & */
  41:../../libDaisy/src/per/i2c.h ****             I2C_2,     /**< & */
  42:../../libDaisy/src/per/i2c.h ****             I2C_3,     /**< & */
  43:../../libDaisy/src/per/i2c.h ****             I2C_4,     /**< & */
  44:../../libDaisy/src/per/i2c.h ****         };
  45:../../libDaisy/src/per/i2c.h **** 
  46:../../libDaisy/src/per/i2c.h ****         /** Rate at which the clock/data will be sent/received. The device being used will have max
ARM GAS  /var/folders/th/s5djnwg15xxc0dk87c413f_h0000gn/T//ccCW3aXI.s 			page 163


  47:../../libDaisy/src/per/i2c.h ****          *  1MHZ Mode is currently 886kHz
  48:../../libDaisy/src/per/i2c.h ****          */
  49:../../libDaisy/src/per/i2c.h ****         enum class Speed
  50:../../libDaisy/src/per/i2c.h ****         {
  51:../../libDaisy/src/per/i2c.h ****             I2C_100KHZ, /**< & */
  52:../../libDaisy/src/per/i2c.h ****             I2C_400KHZ, /**< & */
  53:../../libDaisy/src/per/i2c.h ****             I2C_1MHZ,   /**< & */
  54:../../libDaisy/src/per/i2c.h ****         };
  55:../../libDaisy/src/per/i2c.h **** 
  56:../../libDaisy/src/per/i2c.h ****         Peripheral periph; /**< & */
  57:../../libDaisy/src/per/i2c.h ****         struct
  58:../../libDaisy/src/per/i2c.h ****         {
  59:../../libDaisy/src/per/i2c.h ****             dsy_gpio_pin scl; /**< & */
  60:../../libDaisy/src/per/i2c.h ****             dsy_gpio_pin sda; /**< & */
  61:../../libDaisy/src/per/i2c.h ****         } pin_config;         /**< & */
  62:../../libDaisy/src/per/i2c.h **** 
  63:../../libDaisy/src/per/i2c.h ****         Speed speed; /**< & */
  64:../../libDaisy/src/per/i2c.h ****         Mode  mode;  /**< & */
  65:../../libDaisy/src/per/i2c.h ****         // 0x10 is chosen as a default to avoid conflicts with reserved addresses
  66:../../libDaisy/src/per/i2c.h ****         uint8_t address = 0x10; /**< & */
  67:../../libDaisy/src/per/i2c.h ****     };
  68:../../libDaisy/src/per/i2c.h **** 
  69:../../libDaisy/src/per/i2c.h ****     /** Return values for I2C functions. */
  70:../../libDaisy/src/per/i2c.h ****     enum class Result
  71:../../libDaisy/src/per/i2c.h ****     {
  72:../../libDaisy/src/per/i2c.h ****         OK, /**< & */
  73:../../libDaisy/src/per/i2c.h ****         ERR /**< & */
  74:../../libDaisy/src/per/i2c.h ****     };
  75:../../libDaisy/src/per/i2c.h **** 
  76:../../libDaisy/src/per/i2c.h ****     enum class Direction
  77:../../libDaisy/src/per/i2c.h ****     {
  78:../../libDaisy/src/per/i2c.h ****         TRANSMIT, /**< & */
  79:../../libDaisy/src/per/i2c.h ****         RECEIVE,  /**< & */
  80:../../libDaisy/src/per/i2c.h ****     };
  81:../../libDaisy/src/per/i2c.h **** 
  82:../../libDaisy/src/per/i2c.h ****     I2CHandle() : pimpl_(nullptr) {}
 2985              		.loc 12 82 5 view .LVU932
 2986              	.LBE858:
 2987              	.LBE857:
 2988              	.LBE856:
 2989              	.LBB867:
 2990              	.LBB868:
 2991              	.LBB869:
 2992              	.LBB870:
 2993              	.LBB871:
  28:../../libDaisy/src/per/i2c.h ****     {
 2994              		.loc 12 28 12 is_stmt 0 view .LVU933
 2995 0016 294A     		ldr	r2, .L92+12
 2996              	.LBE871:
 2997              	.LBE870:
 2998              	.LBB874:
 2999              	.LBB875:
  32:../../libDaisy/src/dev/oled_ssd130x.h ****             i2c_config.pin_config.sda = {DSY_GPIOB, 9};
 3000              		.loc 7 32 39 view .LVU934
 3001 0018 2949     		ldr	r1, .L92+16
 3002              	.LBE875:
 3003              	.LBE874:
ARM GAS  /var/folders/th/s5djnwg15xxc0dk87c413f_h0000gn/T//ccCW3aXI.s 			page 164


 3004              	.LBB879:
 3005              	.LBB872:
  28:../../libDaisy/src/per/i2c.h ****     {
 3006              		.loc 12 28 12 view .LVU935
 3007 001a 4FF0100E 		mov	lr, #16
 3008              	.LBE872:
 3009              	.LBE879:
 3010              	.LBE869:
 3011              	.LBE868:
 3012              	.LBE867:
 3013              	.LBB891:
 3014              	.LBB865:
 3015              	.LBB863:
 3016              	.LBB859:
 3017              	.LBB860:
 3018              		.loc 12 82 33 view .LVU936
 3019 001e 2948     		ldr	r0, .L92+20
 3020              	.LBE860:
 3021              	.LBE859:
 3022              	.LBE863:
 3023              	.LBE865:
 3024              	.LBE891:
 3025              	.LBB892:
 3026              	.LBB888:
 3027              	.LBB885:
 3028              	.LBB880:
 3029              	.LBB876:
  32:../../libDaisy/src/dev/oled_ssd130x.h ****             i2c_config.pin_config.sda = {DSY_GPIOB, 9};
 3030              		.loc 7 32 39 view .LVU937
 3031 0020 B1F814C0 		ldrh	ip, [r1, #20]
 3032              	.LBE876:
 3033              	.LBE880:
 3034              	.LBE885:
 3035              	.LBE888:
 3036              	.LBE892:
 3037              	.LBB893:
 3038              	.LBB866:
 3039              	.LBB864:
 3040              	.LBB862:
 3041              	.LBB861:
 3042              		.loc 12 82 33 view .LVU938
 3043 0024 0460     		str	r4, [r0]
 3044              	.LVL192:
 3045              		.loc 12 82 33 view .LVU939
 3046              	.LBE861:
 3047              	.LBE862:
 3048              	.LBE864:
 3049              	.LBE866:
 3050              	.LBE893:
 3051              	.LBB894:
 3052              	.LBI867:
 248:../../libDaisy/src/dev/oled_ssd130x.h ****     {
 3053              		.loc 7 248 12 is_stmt 1 view .LVU940
 3054              	.LBB889:
 3055              	.LBI868:
  20:../../libDaisy/src/dev/oled_ssd130x.h ****         {
 3056              		.loc 7 20 9 view .LVU941
ARM GAS  /var/folders/th/s5djnwg15xxc0dk87c413f_h0000gn/T//ccCW3aXI.s 			page 165


 3057              	.LBB886:
 3058              	.LBB881:
 3059              	.LBI870:
  28:../../libDaisy/src/per/i2c.h ****     {
 3060              		.loc 12 28 12 view .LVU942
 3061 0026 284B     		ldr	r3, .L92+24
 3062              	.LBE881:
 3063              	.LBB882:
 3064              	.LBB877:
  33:../../libDaisy/src/dev/oled_ssd130x.h ****             i2c_address               = 0x3C;
 3065              		.loc 7 33 39 is_stmt 0 view .LVU943
 3066 0028 088B     		ldrh	r0, [r1, #24]
  34:../../libDaisy/src/dev/oled_ssd130x.h ****         }
 3067              		.loc 7 34 39 view .LVU944
 3068 002a 3C21     		movs	r1, #60
  29:../../libDaisy/src/dev/oled_ssd130x.h ****             i2c_config.speed          = I2CHandle::Config::Speed::I2C_1MHZ;
 3069              		.loc 7 29 39 view .LVU945
 3070 002c 1460     		str	r4, [r2]
  31:../../libDaisy/src/dev/oled_ssd130x.h ****             i2c_config.pin_config.scl = {DSY_GPIOB, 8};
 3071              		.loc 7 31 39 view .LVU946
 3072 002e D460     		str	r4, [r2, #12]
  30:../../libDaisy/src/dev/oled_ssd130x.h ****             i2c_config.mode           = I2CHandle::Config::Mode::I2C_MASTER;
 3073              		.loc 7 30 39 view .LVU947
 3074 0030 0224     		movs	r4, #2
 3075              	.LBE877:
 3076              	.LBE882:
 3077              	.LBB883:
 3078              	.LBB873:
  28:../../libDaisy/src/per/i2c.h ****     {
 3079              		.loc 12 28 12 view .LVU948
 3080 0032 82F810E0 		strb	lr, [r2, #16]
 3081              	.LVL193:
  28:../../libDaisy/src/per/i2c.h ****     {
 3082              		.loc 12 28 12 view .LVU949
 3083              	.LBE873:
 3084              	.LBE883:
 3085              	.LBE886:
 3086              	.LBE889:
 3087              	.LBE894:
 3088              	.LBE966:
 3089              	.LBE968:
  23:../../libDaisy/src/dev/oled_ssd130x.h ****         }
 3090              		.loc 7 23 13 is_stmt 1 view .LVU950
 3091              	.LBB969:
 3092              	.LBB967:
 3093              	.LBB895:
 3094              	.LBB890:
 3095              	.LBB887:
 3096              	.LBB884:
 3097              	.LBI874:
  27:../../libDaisy/src/dev/oled_ssd130x.h ****         {
 3098              		.loc 7 27 27 view .LVU951
 3099              	.LBB878:
  29:../../libDaisy/src/dev/oled_ssd130x.h ****             i2c_config.speed          = I2CHandle::Config::Speed::I2C_1MHZ;
 3100              		.loc 7 29 13 view .LVU952
  30:../../libDaisy/src/dev/oled_ssd130x.h ****             i2c_config.mode           = I2CHandle::Config::Mode::I2C_MASTER;
 3101              		.loc 7 30 13 view .LVU953
ARM GAS  /var/folders/th/s5djnwg15xxc0dk87c413f_h0000gn/T//ccCW3aXI.s 			page 166


  30:../../libDaisy/src/dev/oled_ssd130x.h ****             i2c_config.mode           = I2CHandle::Config::Mode::I2C_MASTER;
 3102              		.loc 7 30 39 is_stmt 0 view .LVU954
 3103 0036 9460     		str	r4, [r2, #8]
  31:../../libDaisy/src/dev/oled_ssd130x.h ****             i2c_config.pin_config.scl = {DSY_GPIOB, 8};
 3104              		.loc 7 31 13 is_stmt 1 view .LVU955
  32:../../libDaisy/src/dev/oled_ssd130x.h ****             i2c_config.pin_config.sda = {DSY_GPIOB, 9};
 3105              		.loc 7 32 13 view .LVU956
  33:../../libDaisy/src/dev/oled_ssd130x.h ****             i2c_address               = 0x3C;
 3106              		.loc 7 33 13 view .LVU957
 3107 0038 5C18     		adds	r4, r3, r1
  32:../../libDaisy/src/dev/oled_ssd130x.h ****             i2c_config.pin_config.sda = {DSY_GPIOB, 9};
 3108              		.loc 7 32 39 is_stmt 0 view .LVU958
 3109 003a A2F804C0 		strh	ip, [r2, #4]	@ movhi
  33:../../libDaisy/src/dev/oled_ssd130x.h ****             i2c_address               = 0x3C;
 3110              		.loc 7 33 39 view .LVU959
 3111 003e D080     		strh	r0, [r2, #6]	@ movhi
  34:../../libDaisy/src/dev/oled_ssd130x.h ****         }
 3112              		.loc 7 34 13 is_stmt 1 view .LVU960
  34:../../libDaisy/src/dev/oled_ssd130x.h ****         }
 3113              		.loc 7 34 39 is_stmt 0 view .LVU961
 3114 0040 1175     		strb	r1, [r2, #20]
 3115              	.LVL194:
  34:../../libDaisy/src/dev/oled_ssd130x.h ****         }
 3116              		.loc 7 34 39 view .LVU962
 3117              	.LBE878:
 3118              	.LBE884:
 3119              	.LBE887:
 3120              	.LBE890:
 3121              	.LBE895:
 114:WavPlayer.cpp **** static GPIO sel_gpio[3];   // Selector mux: S0ŌåÆD17, S1ŌåÆD16, S2ŌåÆD15
 3122              		.loc 6 114 23 is_stmt 1 view .LVU963
 3123              	.L87:
 3124              	.LBB896:
 3125              	.LBI896:
 3126              		.file 13 "../../libDaisy/src/per/gpio.h"
   1:../../libDaisy/src/per/gpio.h **** #pragma once
   2:../../libDaisy/src/per/gpio.h **** #ifndef DSY_GPIO_H
   3:../../libDaisy/src/per/gpio.h **** #define DSY_GPIO_H
   4:../../libDaisy/src/per/gpio.h **** #include "daisy_core.h"
   5:../../libDaisy/src/per/gpio.h **** 
   6:../../libDaisy/src/per/gpio.h **** #ifdef __cplusplus
   7:../../libDaisy/src/per/gpio.h **** 
   8:../../libDaisy/src/per/gpio.h **** namespace daisy
   9:../../libDaisy/src/per/gpio.h **** {
  10:../../libDaisy/src/per/gpio.h **** /** @brief General Purpose I/O control 
  11:../../libDaisy/src/per/gpio.h ****  *  @details peripheral control over a single GPIO
  12:../../libDaisy/src/per/gpio.h ****  *  @ingroup peripheral
  13:../../libDaisy/src/per/gpio.h ****  *   
  14:../../libDaisy/src/per/gpio.h ****  *  Button Input (with internal Pullup resistor)
  15:../../libDaisy/src/per/gpio.h ****  *  @include GPIO_Input.cpp 
  16:../../libDaisy/src/per/gpio.h ****  * 
  17:../../libDaisy/src/per/gpio.h ****  *  Output Example (perfect for blinking an LED)
  18:../../libDaisy/src/per/gpio.h ****  *  @include GPIO_Output.cpp
  19:../../libDaisy/src/per/gpio.h ****  * 
  20:../../libDaisy/src/per/gpio.h **** */
  21:../../libDaisy/src/per/gpio.h **** class GPIO
  22:../../libDaisy/src/per/gpio.h **** {
ARM GAS  /var/folders/th/s5djnwg15xxc0dk87c413f_h0000gn/T//ccCW3aXI.s 			page 167


  23:../../libDaisy/src/per/gpio.h ****   public:
  24:../../libDaisy/src/per/gpio.h ****     /** @brief Mode of operation for the specified GPIO */
  25:../../libDaisy/src/per/gpio.h ****     enum class Mode
  26:../../libDaisy/src/per/gpio.h ****     {
  27:../../libDaisy/src/per/gpio.h ****         INPUT,     /**< Input for reading state of pin */
  28:../../libDaisy/src/per/gpio.h ****         OUTPUT,    /**< Output w/ push-pull configuration */
  29:../../libDaisy/src/per/gpio.h ****         OUTPUT_OD, /**< Output w/ open-drain configuration */
  30:../../libDaisy/src/per/gpio.h ****         ANALOG,    /**< Analog for connection to ADC or DAC peripheral */
  31:../../libDaisy/src/per/gpio.h ****     };
  32:../../libDaisy/src/per/gpio.h **** 
  33:../../libDaisy/src/per/gpio.h ****     /** @brief Configures whether an internal Pull up or Pull down resistor is used. 
  34:../../libDaisy/src/per/gpio.h ****      *  
  35:../../libDaisy/src/per/gpio.h ****      * Internal Pull up/down resistors are typically 40k ohms, and will be between
  36:../../libDaisy/src/per/gpio.h ****      * 30k and 50k
  37:../../libDaisy/src/per/gpio.h ****      * 
  38:../../libDaisy/src/per/gpio.h ****      * When the Pin is configured in Analog mode, the pull up/down resistors are
  39:../../libDaisy/src/per/gpio.h ****      * disabled by hardware. 
  40:../../libDaisy/src/per/gpio.h ****      */
  41:../../libDaisy/src/per/gpio.h ****     enum class Pull
  42:../../libDaisy/src/per/gpio.h ****     {
  43:../../libDaisy/src/per/gpio.h ****         NOPULL,   /**< No pull up resistor */
  44:../../libDaisy/src/per/gpio.h ****         PULLUP,   /**< Internal pull up enabled */
  45:../../libDaisy/src/per/gpio.h ****         PULLDOWN, /**< Internal pull down enabled*/
  46:../../libDaisy/src/per/gpio.h ****     };
  47:../../libDaisy/src/per/gpio.h **** 
  48:../../libDaisy/src/per/gpio.h ****     /** @brief Output speed controls the drive strength, and slew rate of the pin */
  49:../../libDaisy/src/per/gpio.h ****     enum class Speed
  50:../../libDaisy/src/per/gpio.h ****     {
  51:../../libDaisy/src/per/gpio.h ****         LOW,
  52:../../libDaisy/src/per/gpio.h ****         MEDIUM,
  53:../../libDaisy/src/per/gpio.h ****         HIGH,
  54:../../libDaisy/src/per/gpio.h ****         VERY_HIGH,
  55:../../libDaisy/src/per/gpio.h ****     };
  56:../../libDaisy/src/per/gpio.h **** 
  57:../../libDaisy/src/per/gpio.h ****     /** @brief Configuration for a given GPIO */
  58:../../libDaisy/src/per/gpio.h ****     struct Config
  59:../../libDaisy/src/per/gpio.h ****     {
  60:../../libDaisy/src/per/gpio.h ****         Pin   pin;
  61:../../libDaisy/src/per/gpio.h ****         Mode  mode;
  62:../../libDaisy/src/per/gpio.h ****         Pull  pull;
  63:../../libDaisy/src/per/gpio.h ****         Speed speed;
  64:../../libDaisy/src/per/gpio.h **** 
  65:../../libDaisy/src/per/gpio.h ****         /** Constructor with no arguments will prepare an invalid GPIO set as
  66:../../libDaisy/src/per/gpio.h ****          *  an input, with no pullup. 
  67:../../libDaisy/src/per/gpio.h ****          */
  68:../../libDaisy/src/per/gpio.h ****         Config()
  69:../../libDaisy/src/per/gpio.h ****         : pin(), mode(Mode::INPUT), pull(Pull::NOPULL), speed(Speed::LOW)
  70:../../libDaisy/src/per/gpio.h ****         {
  71:../../libDaisy/src/per/gpio.h ****         }
  72:../../libDaisy/src/per/gpio.h ****     };
  73:../../libDaisy/src/per/gpio.h **** 
  74:../../libDaisy/src/per/gpio.h ****     GPIO() {}
 3127              		.loc 13 74 5 view .LVU964
 3128              	.LBB897:
 3129              	.LBI897:
  68:../../libDaisy/src/per/gpio.h ****         : pin(), mode(Mode::INPUT), pull(Pull::NOPULL), speed(Speed::LOW)
 3130              		.loc 13 68 9 view .LVU965
ARM GAS  /var/folders/th/s5djnwg15xxc0dk87c413f_h0000gn/T//ccCW3aXI.s 			page 168


 3131              	.LBB898:
 3132              	.LBB899:
 3133              	.LBI899:
 3134              		.file 14 "../../libDaisy/src/daisy_core.h"
   1:../../libDaisy/src/daisy_core.h **** #pragma once
   2:../../libDaisy/src/daisy_core.h **** #ifndef DSY_CORE_HW_H
   3:../../libDaisy/src/daisy_core.h **** #define DSY_CORE_HW_H /**< & */
   4:../../libDaisy/src/daisy_core.h **** #include <stdint.h>
   5:../../libDaisy/src/daisy_core.h **** #include <stdlib.h>
   6:../../libDaisy/src/daisy_core.h **** 
   7:../../libDaisy/src/daisy_core.h **** #if defined(_MSC_VER)
   8:../../libDaisy/src/daisy_core.h **** #define FORCE_INLINE __forceinline /**< & */
   9:../../libDaisy/src/daisy_core.h **** #elif defined(__clang__)
  10:../../libDaisy/src/daisy_core.h **** #define FORCE_INLINE inline __attribute__((always_inline)) /**< & */
  11:../../libDaisy/src/daisy_core.h **** #pragma clang diagnostic ignored "-Wduplicate-decl-specifier"
  12:../../libDaisy/src/daisy_core.h **** #elif defined(__GNUC__)
  13:../../libDaisy/src/daisy_core.h **** #define FORCE_INLINE inline __attribute__((always_inline)) /**< & */
  14:../../libDaisy/src/daisy_core.h **** #else
  15:../../libDaisy/src/daisy_core.h **** #error unknown compiler
  16:../../libDaisy/src/daisy_core.h **** #endif
  17:../../libDaisy/src/daisy_core.h **** 
  18:../../libDaisy/src/daisy_core.h **** /** @addtogroup utility
  19:../../libDaisy/src/daisy_core.h ****     @{
  20:../../libDaisy/src/daisy_core.h **** */
  21:../../libDaisy/src/daisy_core.h **** 
  22:../../libDaisy/src/daisy_core.h **** /** Macro for area of memory that is configured as cacheless
  23:../../libDaisy/src/daisy_core.h **** This should be used primarily for DMA buffers, and the like.
  24:../../libDaisy/src/daisy_core.h **** */
  25:../../libDaisy/src/daisy_core.h **** #define DMA_BUFFER_MEM_SECTION __attribute__((section(".sram1_bss")))
  26:../../libDaisy/src/daisy_core.h **** /** 
  27:../../libDaisy/src/daisy_core.h **** THE DTCM RAM section is also non-cached. However, is not suitable 
  28:../../libDaisy/src/daisy_core.h **** for DMA transfers. Performance is on par with internal SRAM w/ 
  29:../../libDaisy/src/daisy_core.h **** cache enabled.
  30:../../libDaisy/src/daisy_core.h **** */
  31:../../libDaisy/src/daisy_core.h **** #define DTCM_MEM_SECTION __attribute__((section(".dtcmram_bss")))
  32:../../libDaisy/src/daisy_core.h **** 
  33:../../libDaisy/src/daisy_core.h **** #define FBIPMAX 0.999985f             /**< close to 1.0f-LSB at 16 bit */
  34:../../libDaisy/src/daisy_core.h **** #define FBIPMIN (-FBIPMAX)            /**< - (1 - LSB) */
  35:../../libDaisy/src/daisy_core.h **** #define U82F_SCALE 0.0078740f         /**< 1 / 127 */
  36:../../libDaisy/src/daisy_core.h **** #define F2U8_SCALE 127.0f             /**< 128 - 1 */
  37:../../libDaisy/src/daisy_core.h **** #define S82F_SCALE 0.0078125f         /**< 1 / (2**7) */
  38:../../libDaisy/src/daisy_core.h **** #define F2S8_SCALE 127.0f             /**< (2 ** 7) - 1 */
  39:../../libDaisy/src/daisy_core.h **** #define S162F_SCALE 3.0517578125e-05f /**< 1 / (2** 15) */
  40:../../libDaisy/src/daisy_core.h **** #define F2S16_SCALE 32767.0f          /**< (2 ** 15) - 1 */
  41:../../libDaisy/src/daisy_core.h **** #define F2S24_SCALE 8388608.0f        /**< 2 ** 23 */
  42:../../libDaisy/src/daisy_core.h **** #define S242F_SCALE 1.192092896e-07f  /**< 1 / (2 ** 23) */
  43:../../libDaisy/src/daisy_core.h **** #define S24SIGN 0x800000              /**< 2 ** 23 */
  44:../../libDaisy/src/daisy_core.h **** #define S322F_SCALE 4.6566129e-10f    /**< 1 / (2** 31) */
  45:../../libDaisy/src/daisy_core.h **** #define F2S32_SCALE 2147483647.f      /**< (2 ** 31) - 1 */
  46:../../libDaisy/src/daisy_core.h **** 
  47:../../libDaisy/src/daisy_core.h **** 
  48:../../libDaisy/src/daisy_core.h **** /** shorthand macro for simplifying the reading of the left 
  49:../../libDaisy/src/daisy_core.h ****  *  channel of a non-interleaved output buffer named out */
  50:../../libDaisy/src/daisy_core.h **** #define OUT_L out[0]
  51:../../libDaisy/src/daisy_core.h **** 
  52:../../libDaisy/src/daisy_core.h **** /** shorthand macro for simplifying the reading of the right 
  53:../../libDaisy/src/daisy_core.h ****  *  channel of a non-interleaved output buffer named out */
ARM GAS  /var/folders/th/s5djnwg15xxc0dk87c413f_h0000gn/T//ccCW3aXI.s 			page 169


  54:../../libDaisy/src/daisy_core.h **** #define OUT_R out[1]
  55:../../libDaisy/src/daisy_core.h **** 
  56:../../libDaisy/src/daisy_core.h **** /** shorthand macro for simplifying the reading of the left 
  57:../../libDaisy/src/daisy_core.h ****  *  channel of a non-interleaved input buffer named in */
  58:../../libDaisy/src/daisy_core.h **** #define IN_L in[0]
  59:../../libDaisy/src/daisy_core.h **** 
  60:../../libDaisy/src/daisy_core.h **** /** shorthand macro for simplifying the reading of the right 
  61:../../libDaisy/src/daisy_core.h ****  *  channel of a non-interleaved input buffer named in */
  62:../../libDaisy/src/daisy_core.h **** #define IN_R in[1]
  63:../../libDaisy/src/daisy_core.h **** 
  64:../../libDaisy/src/daisy_core.h **** /** 
  65:../../libDaisy/src/daisy_core.h ****     Computes cube.
  66:../../libDaisy/src/daisy_core.h ****     \param x Number to be cubed
  67:../../libDaisy/src/daisy_core.h ****     \return x ^ 3
  68:../../libDaisy/src/daisy_core.h **** */
  69:../../libDaisy/src/daisy_core.h **** FORCE_INLINE float cube(float x)
  70:../../libDaisy/src/daisy_core.h **** {
  71:../../libDaisy/src/daisy_core.h ****     return (x * x) * x;
  72:../../libDaisy/src/daisy_core.h **** }
  73:../../libDaisy/src/daisy_core.h **** 
  74:../../libDaisy/src/daisy_core.h **** /** 
  75:../../libDaisy/src/daisy_core.h ****     Converts unsigned 8-bit to float
  76:../../libDaisy/src/daisy_core.h ****     \param x Number to be scaled.
  77:../../libDaisy/src/daisy_core.h ****     \return Scaled number.
  78:../../libDaisy/src/daisy_core.h **** */
  79:../../libDaisy/src/daisy_core.h **** FORCE_INLINE float u82f(uint8_t x)
  80:../../libDaisy/src/daisy_core.h **** {
  81:../../libDaisy/src/daisy_core.h ****     return ((float)x - 127.f) * U82F_SCALE;
  82:../../libDaisy/src/daisy_core.h **** }
  83:../../libDaisy/src/daisy_core.h **** 
  84:../../libDaisy/src/daisy_core.h **** /**
  85:../../libDaisy/src/daisy_core.h ****     Converts float to unsigned 8-bit
  86:../../libDaisy/src/daisy_core.h **** */
  87:../../libDaisy/src/daisy_core.h **** FORCE_INLINE uint8_t f2u8(float x)
  88:../../libDaisy/src/daisy_core.h **** {
  89:../../libDaisy/src/daisy_core.h ****     x = x <= FBIPMIN ? FBIPMIN : x;
  90:../../libDaisy/src/daisy_core.h ****     x = x >= FBIPMAX ? FBIPMAX : x;
  91:../../libDaisy/src/daisy_core.h ****     return (uint8_t)((x * F2U8_SCALE) + F2U8_SCALE);
  92:../../libDaisy/src/daisy_core.h **** }
  93:../../libDaisy/src/daisy_core.h **** 
  94:../../libDaisy/src/daisy_core.h **** 
  95:../../libDaisy/src/daisy_core.h **** /** 
  96:../../libDaisy/src/daisy_core.h ****     Converts Signed 8-bit to float
  97:../../libDaisy/src/daisy_core.h ****     \param x Number to be scaled.
  98:../../libDaisy/src/daisy_core.h ****     \return Scaled number.
  99:../../libDaisy/src/daisy_core.h **** */
 100:../../libDaisy/src/daisy_core.h **** FORCE_INLINE float s82f(int8_t x)
 101:../../libDaisy/src/daisy_core.h **** {
 102:../../libDaisy/src/daisy_core.h ****     return (float)x * S82F_SCALE;
 103:../../libDaisy/src/daisy_core.h **** }
 104:../../libDaisy/src/daisy_core.h **** 
 105:../../libDaisy/src/daisy_core.h **** /**
 106:../../libDaisy/src/daisy_core.h ****     Converts float to Signed 8-bit
 107:../../libDaisy/src/daisy_core.h **** */
 108:../../libDaisy/src/daisy_core.h **** FORCE_INLINE int8_t f2s8(float x)
 109:../../libDaisy/src/daisy_core.h **** {
 110:../../libDaisy/src/daisy_core.h ****     x = x <= FBIPMIN ? FBIPMIN : x;
ARM GAS  /var/folders/th/s5djnwg15xxc0dk87c413f_h0000gn/T//ccCW3aXI.s 			page 170


 111:../../libDaisy/src/daisy_core.h ****     x = x >= FBIPMAX ? FBIPMAX : x;
 112:../../libDaisy/src/daisy_core.h ****     return (int32_t)(x * F2S8_SCALE);
 113:../../libDaisy/src/daisy_core.h **** }
 114:../../libDaisy/src/daisy_core.h **** 
 115:../../libDaisy/src/daisy_core.h **** /** 
 116:../../libDaisy/src/daisy_core.h ****     Converts Signed 16-bit to float
 117:../../libDaisy/src/daisy_core.h ****     \param x Number to be scaled.
 118:../../libDaisy/src/daisy_core.h ****     \return Scaled number.
 119:../../libDaisy/src/daisy_core.h **** */
 120:../../libDaisy/src/daisy_core.h **** FORCE_INLINE float s162f(int16_t x)
 121:../../libDaisy/src/daisy_core.h **** {
 122:../../libDaisy/src/daisy_core.h ****     return (float)x * S162F_SCALE;
 123:../../libDaisy/src/daisy_core.h **** }
 124:../../libDaisy/src/daisy_core.h **** 
 125:../../libDaisy/src/daisy_core.h **** /**
 126:../../libDaisy/src/daisy_core.h ****     Converts float to Signed 16-bit
 127:../../libDaisy/src/daisy_core.h **** */
 128:../../libDaisy/src/daisy_core.h **** FORCE_INLINE int16_t f2s16(float x)
 129:../../libDaisy/src/daisy_core.h **** {
 130:../../libDaisy/src/daisy_core.h ****     x = x <= FBIPMIN ? FBIPMIN : x;
 131:../../libDaisy/src/daisy_core.h ****     x = x >= FBIPMAX ? FBIPMAX : x;
 132:../../libDaisy/src/daisy_core.h ****     return (int32_t)(x * F2S16_SCALE);
 133:../../libDaisy/src/daisy_core.h **** }
 134:../../libDaisy/src/daisy_core.h **** 
 135:../../libDaisy/src/daisy_core.h **** /**
 136:../../libDaisy/src/daisy_core.h ****     Converts Signed 24-bit to float
 137:../../libDaisy/src/daisy_core.h ****  */
 138:../../libDaisy/src/daisy_core.h **** FORCE_INLINE float s242f(int32_t x)
 139:../../libDaisy/src/daisy_core.h **** {
 140:../../libDaisy/src/daisy_core.h ****     x = (x ^ S24SIGN) - S24SIGN; //sign extend aka ((x<<8)>>8)
 141:../../libDaisy/src/daisy_core.h ****     return (float)x * S242F_SCALE;
 142:../../libDaisy/src/daisy_core.h **** }
 143:../../libDaisy/src/daisy_core.h **** /**
 144:../../libDaisy/src/daisy_core.h ****     Converts float to Signed 24-bit
 145:../../libDaisy/src/daisy_core.h ****  */
 146:../../libDaisy/src/daisy_core.h **** FORCE_INLINE int32_t f2s24(float x)
 147:../../libDaisy/src/daisy_core.h **** {
 148:../../libDaisy/src/daisy_core.h ****     x = x <= FBIPMIN ? FBIPMIN : x;
 149:../../libDaisy/src/daisy_core.h ****     x = x >= FBIPMAX ? FBIPMAX : x;
 150:../../libDaisy/src/daisy_core.h ****     return (int32_t)(x * F2S24_SCALE);
 151:../../libDaisy/src/daisy_core.h **** }
 152:../../libDaisy/src/daisy_core.h **** 
 153:../../libDaisy/src/daisy_core.h **** /**
 154:../../libDaisy/src/daisy_core.h ****     Converts Signed 32-bit to float
 155:../../libDaisy/src/daisy_core.h ****  */
 156:../../libDaisy/src/daisy_core.h **** FORCE_INLINE float s322f(int32_t x)
 157:../../libDaisy/src/daisy_core.h **** {
 158:../../libDaisy/src/daisy_core.h ****     return (float)x * S322F_SCALE;
 159:../../libDaisy/src/daisy_core.h **** }
 160:../../libDaisy/src/daisy_core.h **** /**
 161:../../libDaisy/src/daisy_core.h ****     Converts float to Signed 24-bit
 162:../../libDaisy/src/daisy_core.h ****  */
 163:../../libDaisy/src/daisy_core.h **** FORCE_INLINE int32_t f2s32(float x)
 164:../../libDaisy/src/daisy_core.h **** {
 165:../../libDaisy/src/daisy_core.h ****     x = x <= FBIPMIN ? FBIPMIN : x;
 166:../../libDaisy/src/daisy_core.h ****     x = x >= FBIPMAX ? FBIPMAX : x;
 167:../../libDaisy/src/daisy_core.h ****     return (int32_t)(x * F2S32_SCALE);
ARM GAS  /var/folders/th/s5djnwg15xxc0dk87c413f_h0000gn/T//ccCW3aXI.s 			page 171


 168:../../libDaisy/src/daisy_core.h **** }
 169:../../libDaisy/src/daisy_core.h **** 
 170:../../libDaisy/src/daisy_core.h **** 
 171:../../libDaisy/src/daisy_core.h **** /** Enums and a simple struct for defining a hardware pin on the MCU
 172:../../libDaisy/src/daisy_core.h ****  *  These correlate with the stm32 datasheet, and are used to configure
 173:../../libDaisy/src/daisy_core.h ****  *  the hardware.
 174:../../libDaisy/src/daisy_core.h ****  * 
 175:../../libDaisy/src/daisy_core.h ****  *  This along with the dsy_gpio_pin class should no longer be used.
 176:../../libDaisy/src/daisy_core.h ****  *  They are available for backwards compatability. 
 177:../../libDaisy/src/daisy_core.h ****  * 
 178:../../libDaisy/src/daisy_core.h ****  *  Please use GPIOPort enum and the Pin struct instead.
 179:../../libDaisy/src/daisy_core.h ****  */
 180:../../libDaisy/src/daisy_core.h **** typedef enum
 181:../../libDaisy/src/daisy_core.h **** {
 182:../../libDaisy/src/daisy_core.h ****     DSY_GPIOA, /**< & */
 183:../../libDaisy/src/daisy_core.h ****     DSY_GPIOB, /**< & */
 184:../../libDaisy/src/daisy_core.h ****     DSY_GPIOC, /**< & */
 185:../../libDaisy/src/daisy_core.h ****     DSY_GPIOD, /**< & */
 186:../../libDaisy/src/daisy_core.h ****     DSY_GPIOE, /**< & */
 187:../../libDaisy/src/daisy_core.h ****     DSY_GPIOF, /**< & */
 188:../../libDaisy/src/daisy_core.h ****     DSY_GPIOG, /**< & */
 189:../../libDaisy/src/daisy_core.h ****     DSY_GPIOH, /**< & */
 190:../../libDaisy/src/daisy_core.h ****     DSY_GPIOI, /**< & */
 191:../../libDaisy/src/daisy_core.h ****     DSY_GPIOJ, /**< & */
 192:../../libDaisy/src/daisy_core.h ****     DSY_GPIOK, /**< & */
 193:../../libDaisy/src/daisy_core.h ****     DSY_GPIOX, /** This is a non-existant port for unsupported bits of hardware. */
 194:../../libDaisy/src/daisy_core.h ****     DSY_GPIO_LAST, /** Final enum member */
 195:../../libDaisy/src/daisy_core.h **** } dsy_gpio_port;
 196:../../libDaisy/src/daisy_core.h **** 
 197:../../libDaisy/src/daisy_core.h **** /** Hardware define pins 
 198:../../libDaisy/src/daisy_core.h ****  *  
 199:../../libDaisy/src/daisy_core.h ****  *  The dsy_gpio_pin struct should no longer be used, and is only available for
 200:../../libDaisy/src/daisy_core.h ****  *  backwards compatability.
 201:../../libDaisy/src/daisy_core.h ****  * 
 202:../../libDaisy/src/daisy_core.h ****  *  Please use Pin struct instead.
 203:../../libDaisy/src/daisy_core.h ****  */
 204:../../libDaisy/src/daisy_core.h **** typedef struct
 205:../../libDaisy/src/daisy_core.h **** {
 206:../../libDaisy/src/daisy_core.h ****     dsy_gpio_port port; /**< & */
 207:../../libDaisy/src/daisy_core.h ****     uint8_t       pin;  /**< number 0-15 */
 208:../../libDaisy/src/daisy_core.h **** } dsy_gpio_pin;
 209:../../libDaisy/src/daisy_core.h **** 
 210:../../libDaisy/src/daisy_core.h **** /** Helper for creating pins from port/pin combos easily
 211:../../libDaisy/src/daisy_core.h ****  * 
 212:../../libDaisy/src/daisy_core.h ****  *  The dsy_gpio_pin struct should no longer be used, and is only available for
 213:../../libDaisy/src/daisy_core.h ****  *  backwards compatability.
 214:../../libDaisy/src/daisy_core.h ****  * 
 215:../../libDaisy/src/daisy_core.h ****  *  Please use Pin struct instead.
 216:../../libDaisy/src/daisy_core.h **** */
 217:../../libDaisy/src/daisy_core.h **** FORCE_INLINE dsy_gpio_pin dsy_pin(dsy_gpio_port port, uint8_t pin)
 218:../../libDaisy/src/daisy_core.h **** {
 219:../../libDaisy/src/daisy_core.h ****     dsy_gpio_pin p;
 220:../../libDaisy/src/daisy_core.h ****     p.port = port;
 221:../../libDaisy/src/daisy_core.h ****     p.pin  = pin;
 222:../../libDaisy/src/daisy_core.h ****     return p;
 223:../../libDaisy/src/daisy_core.h **** }
 224:../../libDaisy/src/daisy_core.h **** 
ARM GAS  /var/folders/th/s5djnwg15xxc0dk87c413f_h0000gn/T//ccCW3aXI.s 			page 172


 225:../../libDaisy/src/daisy_core.h **** /** Helper for testing sameness of two dsy_gpio_pins
 226:../../libDaisy/src/daisy_core.h ****  *  \return    1 if same, 0 if different
 227:../../libDaisy/src/daisy_core.h ****  * 
 228:../../libDaisy/src/daisy_core.h ****  *  The dsy_gpio_pin struct should no longer be used, and is only available for
 229:../../libDaisy/src/daisy_core.h ****  *  backwards compatability.
 230:../../libDaisy/src/daisy_core.h ****  * 
 231:../../libDaisy/src/daisy_core.h ****  *  Please use Pin struct instead.
 232:../../libDaisy/src/daisy_core.h ****  */
 233:../../libDaisy/src/daisy_core.h **** FORCE_INLINE uint8_t dsy_pin_cmp(dsy_gpio_pin *a, dsy_gpio_pin *b)
 234:../../libDaisy/src/daisy_core.h **** {
 235:../../libDaisy/src/daisy_core.h ****     return ((a->port == b->port) && (a->pin == b->pin));
 236:../../libDaisy/src/daisy_core.h **** }
 237:../../libDaisy/src/daisy_core.h **** 
 238:../../libDaisy/src/daisy_core.h **** #ifdef __cplusplus
 239:../../libDaisy/src/daisy_core.h **** 
 240:../../libDaisy/src/daisy_core.h **** namespace daisy
 241:../../libDaisy/src/daisy_core.h **** {
 242:../../libDaisy/src/daisy_core.h **** /** @brief GPIO Port names */
 243:../../libDaisy/src/daisy_core.h **** enum GPIOPort
 244:../../libDaisy/src/daisy_core.h **** {
 245:../../libDaisy/src/daisy_core.h ****     PORTA, /**< Port A */
 246:../../libDaisy/src/daisy_core.h ****     PORTB, /**< Port B */
 247:../../libDaisy/src/daisy_core.h ****     PORTC, /**< Port C */
 248:../../libDaisy/src/daisy_core.h ****     PORTD, /**< Port D */
 249:../../libDaisy/src/daisy_core.h ****     PORTE, /**< Port E */
 250:../../libDaisy/src/daisy_core.h ****     PORTF, /**< Port F */
 251:../../libDaisy/src/daisy_core.h ****     PORTG, /**< Port G */
 252:../../libDaisy/src/daisy_core.h ****     PORTH, /**< Port H */
 253:../../libDaisy/src/daisy_core.h ****     PORTI, /**< Port I */
 254:../../libDaisy/src/daisy_core.h ****     PORTJ, /**< Port J */
 255:../../libDaisy/src/daisy_core.h ****     PORTK, /**< Port K */
 256:../../libDaisy/src/daisy_core.h ****     PORTX, /**< Used as a dummy port to signal an invalid pin. */
 257:../../libDaisy/src/daisy_core.h **** };
 258:../../libDaisy/src/daisy_core.h **** 
 259:../../libDaisy/src/daisy_core.h **** /** @brief representation of hardware port/pin combination */
 260:../../libDaisy/src/daisy_core.h **** struct Pin
 261:../../libDaisy/src/daisy_core.h **** {
 262:../../libDaisy/src/daisy_core.h ****     GPIOPort port;
 263:../../libDaisy/src/daisy_core.h ****     uint8_t  pin;
 264:../../libDaisy/src/daisy_core.h **** 
 265:../../libDaisy/src/daisy_core.h ****     /** @brief Constructor creates a valid pin. 
 266:../../libDaisy/src/daisy_core.h ****      *  @param pt GPIOPort between PA, and PK corresponding to STM32 Port.
 267:../../libDaisy/src/daisy_core.h ****      *  @param pn pin number in range of 0-15
 268:../../libDaisy/src/daisy_core.h ****     */
 269:../../libDaisy/src/daisy_core.h ****     constexpr Pin(const GPIOPort pt, const uint8_t pn) : port(pt), pin(pn) {}
 270:../../libDaisy/src/daisy_core.h **** 
 271:../../libDaisy/src/daisy_core.h ****     /** @brief Basic Constructor creates an invalid Pin object */
 272:../../libDaisy/src/daisy_core.h ****     constexpr Pin() : port(PORTX), pin(255) {}
 3135              		.loc 14 272 15 view .LVU966
 3136              	.LBE899:
 3137              	.LBE898:
 3138              	.LBE897:
 3139              	.LBE896:
 114:WavPlayer.cpp **** static GPIO sel_gpio[3];   // Selector mux: S0ŌåÆD17, S1ŌåÆD16, S2ŌåÆD15
 3140              		.loc 6 114 23 is_stmt 0 view .LVU967
 3141 0042 1433     		adds	r3, r3, #20
 3142              	.LVL195:
ARM GAS  /var/folders/th/s5djnwg15xxc0dk87c413f_h0000gn/T//ccCW3aXI.s 			page 173


 3143              	.LBB908:
 3144              	.LBB906:
 3145              	.LBB904:
  69:../../libDaisy/src/per/gpio.h ****         {
 3146              		.loc 13 69 73 view .LVU968
 3147 0044 0022     		movs	r2, #0
 3148              	.LBB902:
 3149              	.LBB900:
 3150              		.loc 14 272 43 view .LVU969
 3151 0046 0B20     		movs	r0, #11
 3152 0048 FF21     		movs	r1, #255
 3153              	.LBE900:
 3154              	.LBE902:
 3155              	.LBE904:
 3156              	.LBE906:
 3157              	.LBE908:
 114:WavPlayer.cpp **** static GPIO sel_gpio[3];   // Selector mux: S0ŌåÆD17, S1ŌåÆD16, S2ŌåÆD15
 3158              		.loc 6 114 23 view .LVU970
 3159 004a A342     		cmp	r3, r4
 3160              	.LBB909:
 3161              	.LBB907:
 3162              	.LBB905:
  69:../../libDaisy/src/per/gpio.h ****         {
 3163              		.loc 13 69 73 view .LVU971
 3164 004c 43F8102C 		str	r2, [r3, #-16]
 3165              	.LBB903:
 3166              	.LBB901:
 3167              		.loc 14 272 43 view .LVU972
 3168 0050 03F8140C 		strb	r0, [r3, #-20]
 3169 0054 03F8131C 		strb	r1, [r3, #-19]
 3170              	.LVL196:
 3171              		.loc 14 272 43 view .LVU973
 3172              	.LBE901:
 3173              	.LBE903:
  69:../../libDaisy/src/per/gpio.h ****         {
 3174              		.loc 13 69 73 view .LVU974
 3175 0058 43E90322 		strd	r2, r2, [r3, #-12]
 3176              	.LVL197:
  69:../../libDaisy/src/per/gpio.h ****         {
 3177              		.loc 13 69 73 view .LVU975
 3178              	.LBE905:
 3179              	.LBE907:
 3180              	.LBE909:
 114:WavPlayer.cpp **** static GPIO sel_gpio[3];   // Selector mux: S0ŌåÆD17, S1ŌåÆD16, S2ŌåÆD15
 3181              		.loc 6 114 23 is_stmt 1 view .LVU976
 114:WavPlayer.cpp **** static GPIO sel_gpio[3];   // Selector mux: S0ŌåÆD17, S1ŌåÆD16, S2ŌåÆD15
 3182              		.loc 6 114 23 view .LVU977
 3183 005c F1D1     		bne	.L87
 3184 005e 1B4B     		ldr	r3, .L92+28
 3185 0060 03F13C04 		add	r4, r3, #60
 3186              	.L88:
 3187              	.LVL198:
 3188              	.LBB910:
 3189              	.LBI910:
 3190              		.loc 13 74 5 view .LVU978
 3191              	.LBB911:
 3192              	.LBI911:
ARM GAS  /var/folders/th/s5djnwg15xxc0dk87c413f_h0000gn/T//ccCW3aXI.s 			page 174


  68:../../libDaisy/src/per/gpio.h ****         : pin(), mode(Mode::INPUT), pull(Pull::NOPULL), speed(Speed::LOW)
 3193              		.loc 13 68 9 view .LVU979
 3194              	.LBB912:
 3195              	.LBB913:
 3196              	.LBI913:
 3197              		.loc 14 272 15 view .LVU980
 3198              	.LBE913:
 3199              	.LBE912:
 3200              	.LBE911:
 3201              	.LBE910:
 115:WavPlayer.cpp **** static GPIO ch_gpio[3];    // Channel muxes: S0ŌåÆD20, S1ŌåÆD19, S2ŌåÆD18
 3202              		.loc 6 115 22 is_stmt 0 view .LVU981
 3203 0064 1433     		adds	r3, r3, #20
 3204              	.LVL199:
 3205              	.LBB922:
 3206              	.LBB920:
 3207              	.LBB918:
  69:../../libDaisy/src/per/gpio.h ****         {
 3208              		.loc 13 69 73 view .LVU982
 3209 0066 0022     		movs	r2, #0
 3210              	.LBB916:
 3211              	.LBB914:
 3212              		.loc 14 272 43 view .LVU983
 3213 0068 0B20     		movs	r0, #11
 3214 006a FF21     		movs	r1, #255
 3215              	.LBE914:
 3216              	.LBE916:
 3217              	.LBE918:
 3218              	.LBE920:
 3219              	.LBE922:
 115:WavPlayer.cpp **** static GPIO ch_gpio[3];    // Channel muxes: S0ŌåÆD20, S1ŌåÆD19, S2ŌåÆD18
 3220              		.loc 6 115 22 view .LVU984
 3221 006c A342     		cmp	r3, r4
 3222              	.LBB923:
 3223              	.LBB921:
 3224              	.LBB919:
  69:../../libDaisy/src/per/gpio.h ****         {
 3225              		.loc 13 69 73 view .LVU985
 3226 006e 43F8102C 		str	r2, [r3, #-16]
 3227              	.LBB917:
 3228              	.LBB915:
 3229              		.loc 14 272 43 view .LVU986
 3230 0072 03F8140C 		strb	r0, [r3, #-20]
 3231 0076 03F8131C 		strb	r1, [r3, #-19]
 3232              	.LVL200:
 3233              		.loc 14 272 43 view .LVU987
 3234              	.LBE915:
 3235              	.LBE917:
  69:../../libDaisy/src/per/gpio.h ****         {
 3236              		.loc 13 69 73 view .LVU988
 3237 007a 43E90322 		strd	r2, r2, [r3, #-12]
 3238              	.LVL201:
  69:../../libDaisy/src/per/gpio.h ****         {
 3239              		.loc 13 69 73 view .LVU989
 3240              	.LBE919:
 3241              	.LBE921:
 3242              	.LBE923:
ARM GAS  /var/folders/th/s5djnwg15xxc0dk87c413f_h0000gn/T//ccCW3aXI.s 			page 175


 115:WavPlayer.cpp **** static GPIO ch_gpio[3];    // Channel muxes: S0ŌåÆD20, S1ŌåÆD19, S2ŌåÆD18
 3243              		.loc 6 115 22 is_stmt 1 view .LVU990
 115:WavPlayer.cpp **** static GPIO ch_gpio[3];    // Channel muxes: S0ŌåÆD20, S1ŌåÆD19, S2ŌåÆD18
 3244              		.loc 6 115 22 view .LVU991
 3245 007e F1D1     		bne	.L88
 3246              	.LVL202:
 3247              	.LBB924:
 3248              	.LBI924:
 3249              		.loc 13 74 5 view .LVU992
 3250              	.LBB925:
 3251              	.LBB926:
 3252              	.LBI926:
  68:../../libDaisy/src/per/gpio.h ****         : pin(), mode(Mode::INPUT), pull(Pull::NOPULL), speed(Speed::LOW)
 3253              		.loc 13 68 9 view .LVU993
 3254              	.LBB927:
 3255              	.LBB928:
 3256              	.LBB929:
 3257              	.LBI929:
 3258              		.loc 14 272 15 view .LVU994
 3259              		.loc 14 272 15 is_stmt 0 view .LVU995
 3260              	.LBE929:
 3261              	.LBE928:
 3262              	.LBE927:
 3263              	.LBE926:
 3264              		.loc 13 74 12 view .LVU996
 3265 0080 4FF60B71 		movw	r1, #65291
 3266              	.LBE925:
 3267              	.LBE924:
 3268              	.LBB935:
 3269              	.LBB936:
 3270 0084 124B     		ldr	r3, .L92+32
 3271              	.LBE936:
 3272              	.LBE935:
 3273              	.LBB946:
 3274              	.LBB933:
 3275 0086 134C     		ldr	r4, .L92+36
 3276              	.LBE933:
 3277              	.LBE946:
 3278              	.LBB947:
 3279              	.LBB948:
 3280 0088 1348     		ldr	r0, .L92+40
 3281              	.LBE948:
 3282              	.LBE947:
 3283              	.LBB954:
 3284              	.LBB944:
 3285              	.LBB937:
 3286              	.LBB938:
 3287              	.LBB939:
  69:../../libDaisy/src/per/gpio.h ****         {
 3288              		.loc 13 69 73 view .LVU997
 3289 008a C3E90012 		strd	r1, r2, [r3]
 3290 008e C3E90222 		strd	r2, r2, [r3, #8]
 3291              	.LBE939:
 3292              	.LBE938:
 3293              	.LBE937:
 3294              	.LBE944:
 3295              	.LBE954:
ARM GAS  /var/folders/th/s5djnwg15xxc0dk87c413f_h0000gn/T//ccCW3aXI.s 			page 176


 3296              	.LBB955:
 3297              	.LBB956:
 3298              		.loc 13 74 12 view .LVU998
 3299 0092 124B     		ldr	r3, .L92+44
 3300              	.LBE956:
 3301              	.LBE955:
 3302              	.LBB962:
 3303              	.LBB934:
 3304              	.LBB932:
 3305              	.LBB931:
 3306              	.LBB930:
  69:../../libDaisy/src/per/gpio.h ****         {
 3307              		.loc 13 69 73 view .LVU999
 3308 0094 C4E90012 		strd	r1, r2, [r4]
 3309 0098 C4E90222 		strd	r2, r2, [r4, #8]
 3310              	.LVL203:
  69:../../libDaisy/src/per/gpio.h ****         {
 3311              		.loc 13 69 73 view .LVU1000
 3312              	.LBE930:
 3313              	.LBE931:
 3314              	.LBE932:
 3315              	.LBE934:
 3316              	.LBE962:
 3317              	.LBB963:
 3318              	.LBI935:
 3319              		.loc 13 74 5 is_stmt 1 view .LVU1001
 3320              	.LBB945:
 3321              	.LBB943:
 3322              	.LBI937:
  68:../../libDaisy/src/per/gpio.h ****         : pin(), mode(Mode::INPUT), pull(Pull::NOPULL), speed(Speed::LOW)
 3323              		.loc 13 68 9 view .LVU1002
 3324              	.LBB942:
 3325              	.LBB941:
 3326              	.LBB940:
 3327              	.LBI940:
 3328              		.loc 14 272 15 view .LVU1003
 3329              		.loc 14 272 15 is_stmt 0 view .LVU1004
 3330              	.LBE940:
 3331              	.LBE941:
 3332              	.LBE942:
 3333              	.LBE943:
 3334              	.LBE945:
 3335              	.LBE963:
 3336              	.LBB964:
 3337              	.LBI947:
 3338              		.loc 13 74 5 is_stmt 1 view .LVU1005
 3339              	.LBB953:
 3340              	.LBB949:
 3341              	.LBI949:
  68:../../libDaisy/src/per/gpio.h ****         : pin(), mode(Mode::INPUT), pull(Pull::NOPULL), speed(Speed::LOW)
 3342              		.loc 13 68 9 view .LVU1006
 3343              	.LBB950:
 3344              	.LBB951:
 3345              	.LBB952:
 3346              	.LBI952:
 3347              		.loc 14 272 15 view .LVU1007
 3348              		.loc 14 272 15 is_stmt 0 view .LVU1008
ARM GAS  /var/folders/th/s5djnwg15xxc0dk87c413f_h0000gn/T//ccCW3aXI.s 			page 177


 3349              	.LBE952:
  69:../../libDaisy/src/per/gpio.h ****         {
 3350              		.loc 13 69 73 view .LVU1009
 3351 009c C0E90012 		strd	r1, r2, [r0]
 3352 00a0 C0E90222 		strd	r2, r2, [r0, #8]
 3353              	.LVL204:
  69:../../libDaisy/src/per/gpio.h ****         {
 3354              		.loc 13 69 73 view .LVU1010
 3355              	.LBE951:
 3356              	.LBE950:
 3357              	.LBE949:
 3358              	.LBE953:
 3359              	.LBE964:
 3360              	.LBB965:
 3361              	.LBI955:
 3362              		.loc 13 74 5 is_stmt 1 view .LVU1011
 3363              	.LBB961:
 3364              	.LBB957:
 3365              	.LBI957:
  68:../../libDaisy/src/per/gpio.h ****         : pin(), mode(Mode::INPUT), pull(Pull::NOPULL), speed(Speed::LOW)
 3366              		.loc 13 68 9 view .LVU1012
 3367              	.LBB958:
 3368              	.LBB959:
 3369              	.LBB960:
 3370              	.LBI960:
 3371              		.loc 14 272 15 view .LVU1013
 3372              		.loc 14 272 15 is_stmt 0 view .LVU1014
 3373              	.LBE960:
  69:../../libDaisy/src/per/gpio.h ****         {
 3374              		.loc 13 69 73 view .LVU1015
 3375 00a4 C3E90012 		strd	r1, r2, [r3]
 3376 00a8 C3E90222 		strd	r2, r2, [r3, #8]
 3377              	.LVL205:
  69:../../libDaisy/src/per/gpio.h ****         {
 3378              		.loc 13 69 73 view .LVU1016
 3379              	.LBE959:
 3380              	.LBE958:
 3381              	.LBE957:
 3382              	.LBE961:
 3383              	.LBE965:
 3384              	.LBE967:
 3385              	.LBE969:
 3386              		.loc 6 529 1 view .LVU1017
 3387 00ac 10BD     		pop	{r4, pc}
 3388              	.L93:
 3389 00ae 00BF     		.align	2
 3390              	.L92:
 3391 00b0 00000000 		.word	.LANCHOR0
 3392 00b4 00000000 		.word	__dso_handle
 3393 00b8 00000000 		.word	_ZN5daisy9DaisySeedD1Ev
 3394 00bc 00000000 		.word	.LANCHOR6
 3395 00c0 00000000 		.word	.LANCHOR7
 3396 00c4 00000000 		.word	.LANCHOR8
 3397 00c8 00000000 		.word	.LANCHOR9
 3398 00cc 00000000 		.word	.LANCHOR11
 3399 00d0 00000000 		.word	.LANCHOR18
 3400 00d4 00000000 		.word	.LANCHOR17
ARM GAS  /var/folders/th/s5djnwg15xxc0dk87c413f_h0000gn/T//ccCW3aXI.s 			page 178


 3401 00d8 00000000 		.word	.LANCHOR19
 3402 00dc 00000000 		.word	.LANCHOR20
 3403              		.cfi_endproc
 3404              	.LFE4732:
 3406              		.section	.init_array,"aw",%init_array
 3407              		.align	2
 3408 0000 00000000 		.word	_GLOBAL__sub_I_main(target1)
 3409              		.section	.rodata
 3410              		.align	2
 3411              		.set	.LANCHOR7,. + 0
 3412              	.LC0:
 3413 0000 00000000 		.word	0
 3414 0004 01       		.byte	1
 3415 0005 08       		.byte	8
 3416 0006 01       		.byte	1
 3417 0007 09       		.byte	9
 3418 0008 01000000 		.word	1
 3419 000c 00000000 		.word	0
 3420 0010 10       		.byte	16
 3421 0011 000000   		.space	3
 3422              	.LC1:
 3423 0014 01       		.byte	1
 3424 0015 08       		.byte	8
 3425 0016 0000     		.space	2
 3426              	.LC2:
 3427 0018 01       		.byte	1
 3428 0019 09       		.byte	9
 3429              		.section	.bss._ZL10active_buf,"aw",%nobits
 3430              		.align	2
 3431              		.set	.LANCHOR4,. + 0
 3434              	_ZL10active_buf:
 3435 0000 00000000 		.space	4
 3436              		.section	.bss._ZL11buf_pending,"aw",%nobits
 3437              		.set	.LANCHOR5,. + 0
 3440              	_ZL11buf_pending:
 3441 0000 00       		.space	1
 3442              		.section	.bss._ZL11smooth_gpio,"aw",%nobits
 3443              		.align	2
 3444              		.set	.LANCHOR19,. + 0
 3447              	_ZL11smooth_gpio:
 3448 0000 00000000 		.space	20
 3448      00000000 
 3448      00000000 
 3448      00000000 
 3448      00000000 
 3449              		.section	.bss._ZL13pos_dead_gpio,"aw",%nobits
 3450              		.align	2
 3451              		.set	.LANCHOR18,. + 0
 3454              	_ZL13pos_dead_gpio:
 3455 0000 00000000 		.space	20
 3455      00000000 
 3455      00000000 
 3455      00000000 
 3455      00000000 
 3456              		.section	.bss._ZL14col_pos_smooth,"aw",%nobits
 3457              		.align	2
 3458              		.set	.LANCHOR14,. + 0
ARM GAS  /var/folders/th/s5djnwg15xxc0dk87c413f_h0000gn/T//ccCW3aXI.s 			page 179


 3461              	_ZL14col_pos_smooth:
 3462 0000 00000000 		.space	32
 3462      00000000 
 3462      00000000 
 3462      00000000 
 3462      00000000 
 3463              		.section	.bss._ZL14display_config,"aw",%nobits
 3464              		.align	2
 3465              		.set	.LANCHOR6,. + 0
 3468              	_ZL14display_config:
 3469 0000 00000000 		.space	24
 3469      00000000 
 3469      00000000 
 3469      00000000 
 3469      00000000 
 3470              		.section	.bss._ZL15scan_delay_gpio,"aw",%nobits
 3471              		.align	2
 3472              		.set	.LANCHOR20,. + 0
 3475              	_ZL15scan_delay_gpio:
 3476 0000 00000000 		.space	20
 3476      00000000 
 3476      00000000 
 3476      00000000 
 3476      00000000 
 3477              		.section	.bss._ZL16noise_floor_gpio,"aw",%nobits
 3478              		.align	2
 3479              		.set	.LANCHOR17,. + 0
 3482              	_ZL16noise_floor_gpio:
 3483 0000 00000000 		.space	20
 3483      00000000 
 3483      00000000 
 3483      00000000 
 3483      00000000 
 3484              		.section	.bss._ZL2hw,"aw",%nobits
 3485              		.align	2
 3486              		.set	.LANCHOR0,. + 0
 3489              	_ZL2hw:
 3490 0000 00000000 		.space	64
 3490      00000000 
 3490      00000000 
 3490      00000000 
 3490      00000000 
 3491              		.section	.bss._ZL5phase,"aw",%nobits
 3492              		.align	2
 3493              		.set	.LANCHOR1,. + 0
 3496              	_ZL5phase:
 3497 0000 00000000 		.space	4
 3498              		.section	.bss._ZL7ch_gpio,"aw",%nobits
 3499              		.align	2
 3500              		.set	.LANCHOR11,. + 0
 3503              	_ZL7ch_gpio:
 3504 0000 00000000 		.space	60
 3504      00000000 
 3504      00000000 
 3504      00000000 
 3504      00000000 
 3505              		.section	.bss._ZL7col_pos,"aw",%nobits
ARM GAS  /var/folders/th/s5djnwg15xxc0dk87c413f_h0000gn/T//ccCW3aXI.s 			page 180


 3506              		.align	2
 3507              		.set	.LANCHOR13,. + 0
 3510              	_ZL7col_pos:
 3511 0000 00000000 		.space	32
 3511      00000000 
 3511      00000000 
 3511      00000000 
 3511      00000000 
 3512              		.section	.bss._ZL7display,"aw",%nobits
 3513              		.align	2
 3514              		.set	.LANCHOR8,. + 0
 3517              	_ZL7display:
 3518 0000 00000000 		.space	1032
 3518      00000000 
 3518      00000000 
 3518      00000000 
 3518      00000000 
 3519              		.section	.bss._ZL8baseline,"aw",%nobits
 3520              		.align	2
 3521              		.set	.LANCHOR16,. + 0
 3524              	_ZL8baseline:
 3525 0000 00000000 		.space	256
 3525      00000000 
 3525      00000000 
 3525      00000000 
 3525      00000000 
 3526              		.section	.bss._ZL8sel_gpio,"aw",%nobits
 3527              		.align	2
 3528              		.set	.LANCHOR9,. + 0
 3531              	_ZL8sel_gpio:
 3532 0000 00000000 		.space	60
 3532      00000000 
 3532      00000000 
 3532      00000000 
 3532      00000000 
 3533              		.section	.bss._ZL8sensor_v,"aw",%nobits
 3534              		.align	2
 3535              		.set	.LANCHOR15,. + 0
 3538              	_ZL8sensor_v:
 3539 0000 00000000 		.space	256
 3539      00000000 
 3539      00000000 
 3539      00000000 
 3539      00000000 
 3540              		.section	.bss._ZL9wavetable,"aw",%nobits
 3541              		.align	2
 3544              	_ZL9wavetable:
 3545 0000 00000000 		.space	16384
 3545      00000000 
 3545      00000000 
 3545      00000000 
 3545      00000000 
 3546              		.section	.bss._ZZL13AudioCallbackPKPKfPPfjE9fade_from,"aw",%nobits
 3547              		.align	2
 3548              		.set	.LANCHOR3,. + 0
 3551              	_ZZL13AudioCallbackPKPKfPPfjE9fade_from:
 3552 0000 00000000 		.space	4
ARM GAS  /var/folders/th/s5djnwg15xxc0dk87c413f_h0000gn/T//ccCW3aXI.s 			page 181


 3553              		.section	.bss._ZZL13AudioCallbackPKPKfPPfjE9xfade_ctr,"aw",%nobits
 3554              		.align	2
 3555              		.set	.LANCHOR2,. + 0
 3558              	_ZZL13AudioCallbackPKPKfPPfjE9xfade_ctr:
 3559 0000 00000000 		.space	4
 3560              		.section	.rodata._ZZ4mainE7kChPins,"a"
 3561              		.align	2
 3562              		.set	.LANCHOR12,. + 0
 3565              	_ZZ4mainE7kChPins:
 3566 0000 02       		.byte	2
 3567 0001 01       		.byte	1
 3568 0002 00       		.byte	0
 3569 0003 06       		.byte	6
 3570 0004 00       		.byte	0
 3571 0005 07       		.byte	7
 3572              		.section	.rodata._ZZ4mainE8kSelPins,"a"
 3573              		.align	2
 3574              		.set	.LANCHOR10,. + 0
 3577              	_ZZ4mainE8kSelPins:
 3578 0000 01       		.byte	1
 3579 0001 01       		.byte	1
 3580 0002 00       		.byte	0
 3581 0003 03       		.byte	3
 3582 0004 02       		.byte	2
 3583 0005 00       		.byte	0
 3584              		.text
 3585              	.Letext0:
 3586              		.file 15 "/Library/DaisyToolchain/0.2.0/arm/arm-none-eabi/include/machine/_default_types.h"
 3587              		.file 16 "/Library/DaisyToolchain/0.2.0/arm/arm-none-eabi/include/sys/_stdint.h"
 3588              		.file 17 "/Library/DaisyToolchain/0.2.0/arm/arm-none-eabi/include/stdint.h"
 3589              		.file 18 "/Library/DaisyToolchain/0.2.0/arm/lib/gcc/arm-none-eabi/10.3.1/include/stddef.h"
 3590              		.file 19 "/Library/DaisyToolchain/0.2.0/arm/arm-none-eabi/include/c++/10.3.1/cmath"
 3591              		.file 20 "/Library/DaisyToolchain/0.2.0/arm/arm-none-eabi/include/c++/10.3.1/type_traits"
 3592              		.file 21 "/Library/DaisyToolchain/0.2.0/arm/arm-none-eabi/include/c++/10.3.1/debug/debug.h"
 3593              		.file 22 "/Library/DaisyToolchain/0.2.0/arm/arm-none-eabi/include/c++/10.3.1/bits/std_abs.h"
 3594              		.file 23 "/Library/DaisyToolchain/0.2.0/arm/arm-none-eabi/include/c++/10.3.1/cstdlib"
 3595              		.file 24 "/Library/DaisyToolchain/0.2.0/arm/arm-none-eabi/include/c++/10.3.1/cstdint"
 3596              		.file 25 "/Library/DaisyToolchain/0.2.0/arm/arm-none-eabi/include/c++/10.3.1/arm-none-eabi/thumb/v
 3597              		.file 26 "/Library/DaisyToolchain/0.2.0/arm/arm-none-eabi/include/c++/10.3.1/bits/algorithmfwd.h"
 3598              		.file 27 "/Library/DaisyToolchain/0.2.0/arm/arm-none-eabi/include/c++/10.3.1/bits/exception_ptr.h"
 3599              		.file 28 "/Library/DaisyToolchain/0.2.0/arm/arm-none-eabi/include/c++/10.3.1/bits/stl_iterator.h"
 3600              		.file 29 "/Library/DaisyToolchain/0.2.0/arm/arm-none-eabi/include/c++/10.3.1/functional"
 3601              		.file 30 "/Library/DaisyToolchain/0.2.0/arm/arm-none-eabi/include/c++/10.3.1/cstdarg"
 3602              		.file 31 "/Library/DaisyToolchain/0.2.0/arm/arm-none-eabi/include/c++/10.3.1/cstdio"
 3603              		.file 32 "/Library/DaisyToolchain/0.2.0/arm/arm-none-eabi/include/c++/10.3.1/cstring"
 3604              		.file 33 "/Library/DaisyToolchain/0.2.0/arm/arm-none-eabi/include/c++/10.3.1/cwchar"
 3605              		.file 34 "/Library/DaisyToolchain/0.2.0/arm/arm-none-eabi/include/c++/10.3.1/string_view"
 3606              		.file 35 "/Library/DaisyToolchain/0.2.0/arm/arm-none-eabi/include/c++/10.3.1/bits/predefined_ops.h
 3607              		.file 36 "/Library/DaisyToolchain/0.2.0/arm/arm-none-eabi/include/sys/_types.h"
 3608              		.file 37 "/Library/DaisyToolchain/0.2.0/arm/arm-none-eabi/include/sys/reent.h"
 3609              		.file 38 "/Library/DaisyToolchain/0.2.0/arm/arm-none-eabi/include/sys/lock.h"
 3610              		.file 39 "/Library/DaisyToolchain/0.2.0/arm/arm-none-eabi/include/math.h"
 3611              		.file 40 "/Library/DaisyToolchain/0.2.0/arm/arm-none-eabi/include/stdlib.h"
 3612              		.file 41 "/Library/DaisyToolchain/0.2.0/arm/arm-none-eabi/include/c++/10.3.1/math.h"
 3613              		.file 42 "/Library/DaisyToolchain/0.2.0/arm/arm-none-eabi/include/c++/10.3.1/stdlib.h"
 3614              		.file 43 "../../libDaisy/src/per/tim.h"
 3615              		.file 44 "../../libDaisy/src/hid/logger_impl.h"
ARM GAS  /var/folders/th/s5djnwg15xxc0dk87c413f_h0000gn/T//ccCW3aXI.s 			page 182


 3616              		.file 45 "../../libDaisy/src/util/wav_format.h"
 3617              		.file 46 "../../libDaisy/src/dev/max11300.h"
 3618              		.file 47 "../../libDaisy/src/hid/logger.h"
 3619              		.file 48 "../../libDaisy/src/dev/sdram.h"
 3620              		.file 49 "/Library/DaisyToolchain/0.2.0/arm/arm-none-eabi/include/c++/10.3.1/pstl/execution_defs.h
 3621              		.file 50 "/Library/DaisyToolchain/0.2.0/arm/lib/gcc/arm-none-eabi/10.3.1/include/stdarg.h"
 3622              		.file 51 "/Library/DaisyToolchain/0.2.0/arm/arm-none-eabi/include/stdio.h"
 3623              		.file 52 "/Library/DaisyToolchain/0.2.0/arm/arm-none-eabi/include/string.h"
 3624              		.file 53 "/Library/DaisyToolchain/0.2.0/arm/arm-none-eabi/include/wchar.h"
 3625              		.file 54 "../../libDaisy/src/dev/sr_595.h"
 3626              		.file 55 "<built-in>"
ARM GAS  /var/folders/th/s5djnwg15xxc0dk87c413f_h0000gn/T//ccCW3aXI.s 			page 183


DEFINED SYMBOLS
                            *ABS*:0000000000000000 WavPlayer.cpp
/var/folders/th/s5djnwg15xxc0dk87c413f_h0000gn/T//ccCW3aXI.s:19     .text._ZN5daisy9DaisySeedD2Ev:0000000000000000 $t
/var/folders/th/s5djnwg15xxc0dk87c413f_h0000gn/T//ccCW3aXI.s:26     .text._ZN5daisy9DaisySeedD2Ev:0000000000000000 _ZN5daisy9DaisySeedD2Ev
/var/folders/th/s5djnwg15xxc0dk87c413f_h0000gn/T//ccCW3aXI.s:26     .text._ZN5daisy9DaisySeedD2Ev:0000000000000000 _ZN5daisy9DaisySeedD1Ev
/var/folders/th/s5djnwg15xxc0dk87c413f_h0000gn/T//ccCW3aXI.s:67     .text._ZL13AudioCallbackPKPKfPPfj:0000000000000000 $t
/var/folders/th/s5djnwg15xxc0dk87c413f_h0000gn/T//ccCW3aXI.s:73     .text._ZL13AudioCallbackPKPKfPPfj:0000000000000000 _ZL13AudioCallbackPKPKfPPfj
/var/folders/th/s5djnwg15xxc0dk87c413f_h0000gn/T//ccCW3aXI.s:464    .text._ZL13AudioCallbackPKPKfPPfj:0000000000000150 $d
/var/folders/th/s5djnwg15xxc0dk87c413f_h0000gn/T//ccCW3aXI.s:3544   .bss._ZL9wavetable:0000000000000000 _ZL9wavetable
/var/folders/th/s5djnwg15xxc0dk87c413f_h0000gn/T//ccCW3aXI.s:478    .text._ZN5daisy13SSD130xDriverILj128ELj64ENS_19SSD130xI2CTransportEE4InitENS2_6ConfigE:0000000000000000 $t
/var/folders/th/s5djnwg15xxc0dk87c413f_h0000gn/T//ccCW3aXI.s:485    .text._ZN5daisy13SSD130xDriverILj128ELj64ENS_19SSD130xI2CTransportEE4InitENS2_6ConfigE:0000000000000000 _ZN5daisy13SSD130xDriverILj128ELj64ENS_19SSD130xI2CTransportEE4InitENS2_6ConfigE
/var/folders/th/s5djnwg15xxc0dk87c413f_h0000gn/T//ccCW3aXI.s:1139   .text._ZN5daisy13SSD130xDriverILj128ELj64ENS_19SSD130xI2CTransportEE6UpdateEv:0000000000000000 $t
/var/folders/th/s5djnwg15xxc0dk87c413f_h0000gn/T//ccCW3aXI.s:1146   .text._ZN5daisy13SSD130xDriverILj128ELj64ENS_19SSD130xI2CTransportEE6UpdateEv:0000000000000000 _ZN5daisy13SSD130xDriverILj128ELj64ENS_19SSD130xI2CTransportEE6UpdateEv
/var/folders/th/s5djnwg15xxc0dk87c413f_h0000gn/T//ccCW3aXI.s:1310   .rodata.main.str1.4:0000000000000000 $d
/var/folders/th/s5djnwg15xxc0dk87c413f_h0000gn/T//ccCW3aXI.s:1325   .text.startup.main:0000000000000000 $t
/var/folders/th/s5djnwg15xxc0dk87c413f_h0000gn/T//ccCW3aXI.s:1332   .text.startup.main:0000000000000000 main
/var/folders/th/s5djnwg15xxc0dk87c413f_h0000gn/T//ccCW3aXI.s:2202   .text.startup.main:0000000000000324 $d
/var/folders/th/s5djnwg15xxc0dk87c413f_h0000gn/T//ccCW3aXI.s:2242   .text.startup.main:00000000000003a4 $t
/var/folders/th/s5djnwg15xxc0dk87c413f_h0000gn/T//ccCW3aXI.s:2833   .text.startup.main:00000000000005ec $d
/var/folders/th/s5djnwg15xxc0dk87c413f_h0000gn/T//ccCW3aXI.s:2853   .text.startup._GLOBAL__sub_I_main:0000000000000000 $t
/var/folders/th/s5djnwg15xxc0dk87c413f_h0000gn/T//ccCW3aXI.s:2859   .text.startup._GLOBAL__sub_I_main:0000000000000000 _GLOBAL__sub_I_main
/var/folders/th/s5djnwg15xxc0dk87c413f_h0000gn/T//ccCW3aXI.s:3391   .text.startup._GLOBAL__sub_I_main:00000000000000b0 $d
/var/folders/th/s5djnwg15xxc0dk87c413f_h0000gn/T//ccCW3aXI.s:3407   .init_array:0000000000000000 $d
/var/folders/th/s5djnwg15xxc0dk87c413f_h0000gn/T//ccCW3aXI.s:3410   .rodata:0000000000000000 $d
/var/folders/th/s5djnwg15xxc0dk87c413f_h0000gn/T//ccCW3aXI.s:3430   .bss._ZL10active_buf:0000000000000000 $d
/var/folders/th/s5djnwg15xxc0dk87c413f_h0000gn/T//ccCW3aXI.s:3434   .bss._ZL10active_buf:0000000000000000 _ZL10active_buf
/var/folders/th/s5djnwg15xxc0dk87c413f_h0000gn/T//ccCW3aXI.s:3440   .bss._ZL11buf_pending:0000000000000000 _ZL11buf_pending
/var/folders/th/s5djnwg15xxc0dk87c413f_h0000gn/T//ccCW3aXI.s:3441   .bss._ZL11buf_pending:0000000000000000 $d
/var/folders/th/s5djnwg15xxc0dk87c413f_h0000gn/T//ccCW3aXI.s:3443   .bss._ZL11smooth_gpio:0000000000000000 $d
/var/folders/th/s5djnwg15xxc0dk87c413f_h0000gn/T//ccCW3aXI.s:3447   .bss._ZL11smooth_gpio:0000000000000000 _ZL11smooth_gpio
/var/folders/th/s5djnwg15xxc0dk87c413f_h0000gn/T//ccCW3aXI.s:3450   .bss._ZL13pos_dead_gpio:0000000000000000 $d
/var/folders/th/s5djnwg15xxc0dk87c413f_h0000gn/T//ccCW3aXI.s:3454   .bss._ZL13pos_dead_gpio:0000000000000000 _ZL13pos_dead_gpio
/var/folders/th/s5djnwg15xxc0dk87c413f_h0000gn/T//ccCW3aXI.s:3457   .bss._ZL14col_pos_smooth:0000000000000000 $d
/var/folders/th/s5djnwg15xxc0dk87c413f_h0000gn/T//ccCW3aXI.s:3461   .bss._ZL14col_pos_smooth:0000000000000000 _ZL14col_pos_smooth
/var/folders/th/s5djnwg15xxc0dk87c413f_h0000gn/T//ccCW3aXI.s:3464   .bss._ZL14display_config:0000000000000000 $d
/var/folders/th/s5djnwg15xxc0dk87c413f_h0000gn/T//ccCW3aXI.s:3468   .bss._ZL14display_config:0000000000000000 _ZL14display_config
/var/folders/th/s5djnwg15xxc0dk87c413f_h0000gn/T//ccCW3aXI.s:3471   .bss._ZL15scan_delay_gpio:0000000000000000 $d
/var/folders/th/s5djnwg15xxc0dk87c413f_h0000gn/T//ccCW3aXI.s:3475   .bss._ZL15scan_delay_gpio:0000000000000000 _ZL15scan_delay_gpio
/var/folders/th/s5djnwg15xxc0dk87c413f_h0000gn/T//ccCW3aXI.s:3478   .bss._ZL16noise_floor_gpio:0000000000000000 $d
/var/folders/th/s5djnwg15xxc0dk87c413f_h0000gn/T//ccCW3aXI.s:3482   .bss._ZL16noise_floor_gpio:0000000000000000 _ZL16noise_floor_gpio
/var/folders/th/s5djnwg15xxc0dk87c413f_h0000gn/T//ccCW3aXI.s:3485   .bss._ZL2hw:0000000000000000 $d
/var/folders/th/s5djnwg15xxc0dk87c413f_h0000gn/T//ccCW3aXI.s:3489   .bss._ZL2hw:0000000000000000 _ZL2hw
/var/folders/th/s5djnwg15xxc0dk87c413f_h0000gn/T//ccCW3aXI.s:3492   .bss._ZL5phase:0000000000000000 $d
/var/folders/th/s5djnwg15xxc0dk87c413f_h0000gn/T//ccCW3aXI.s:3496   .bss._ZL5phase:0000000000000000 _ZL5phase
/var/folders/th/s5djnwg15xxc0dk87c413f_h0000gn/T//ccCW3aXI.s:3499   .bss._ZL7ch_gpio:0000000000000000 $d
/var/folders/th/s5djnwg15xxc0dk87c413f_h0000gn/T//ccCW3aXI.s:3503   .bss._ZL7ch_gpio:0000000000000000 _ZL7ch_gpio
/var/folders/th/s5djnwg15xxc0dk87c413f_h0000gn/T//ccCW3aXI.s:3506   .bss._ZL7col_pos:0000000000000000 $d
/var/folders/th/s5djnwg15xxc0dk87c413f_h0000gn/T//ccCW3aXI.s:3510   .bss._ZL7col_pos:0000000000000000 _ZL7col_pos
/var/folders/th/s5djnwg15xxc0dk87c413f_h0000gn/T//ccCW3aXI.s:3513   .bss._ZL7display:0000000000000000 $d
/var/folders/th/s5djnwg15xxc0dk87c413f_h0000gn/T//ccCW3aXI.s:3517   .bss._ZL7display:0000000000000000 _ZL7display
/var/folders/th/s5djnwg15xxc0dk87c413f_h0000gn/T//ccCW3aXI.s:3520   .bss._ZL8baseline:0000000000000000 $d
/var/folders/th/s5djnwg15xxc0dk87c413f_h0000gn/T//ccCW3aXI.s:3524   .bss._ZL8baseline:0000000000000000 _ZL8baseline
/var/folders/th/s5djnwg15xxc0dk87c413f_h0000gn/T//ccCW3aXI.s:3527   .bss._ZL8sel_gpio:0000000000000000 $d
/var/folders/th/s5djnwg15xxc0dk87c413f_h0000gn/T//ccCW3aXI.s:3531   .bss._ZL8sel_gpio:0000000000000000 _ZL8sel_gpio
/var/folders/th/s5djnwg15xxc0dk87c413f_h0000gn/T//ccCW3aXI.s:3534   .bss._ZL8sensor_v:0000000000000000 $d
/var/folders/th/s5djnwg15xxc0dk87c413f_h0000gn/T//ccCW3aXI.s:3538   .bss._ZL8sensor_v:0000000000000000 _ZL8sensor_v
/var/folders/th/s5djnwg15xxc0dk87c413f_h0000gn/T//ccCW3aXI.s:3541   .bss._ZL9wavetable:0000000000000000 $d
ARM GAS  /var/folders/th/s5djnwg15xxc0dk87c413f_h0000gn/T//ccCW3aXI.s 			page 184


/var/folders/th/s5djnwg15xxc0dk87c413f_h0000gn/T//ccCW3aXI.s:3547   .bss._ZZL13AudioCallbackPKPKfPPfjE9fade_from:0000000000000000 $d
/var/folders/th/s5djnwg15xxc0dk87c413f_h0000gn/T//ccCW3aXI.s:3551   .bss._ZZL13AudioCallbackPKPKfPPfjE9fade_from:0000000000000000 _ZZL13AudioCallbackPKPKfPPfjE9fade_from
/var/folders/th/s5djnwg15xxc0dk87c413f_h0000gn/T//ccCW3aXI.s:3554   .bss._ZZL13AudioCallbackPKPKfPPfjE9xfade_ctr:0000000000000000 $d
/var/folders/th/s5djnwg15xxc0dk87c413f_h0000gn/T//ccCW3aXI.s:3558   .bss._ZZL13AudioCallbackPKPKfPPfjE9xfade_ctr:0000000000000000 _ZZL13AudioCallbackPKPKfPPfjE9xfade_ctr
/var/folders/th/s5djnwg15xxc0dk87c413f_h0000gn/T//ccCW3aXI.s:3561   .rodata._ZZ4mainE7kChPins:0000000000000000 $d
/var/folders/th/s5djnwg15xxc0dk87c413f_h0000gn/T//ccCW3aXI.s:3565   .rodata._ZZ4mainE7kChPins:0000000000000000 _ZZ4mainE7kChPins
/var/folders/th/s5djnwg15xxc0dk87c413f_h0000gn/T//ccCW3aXI.s:3573   .rodata._ZZ4mainE8kSelPins:0000000000000000 $d
/var/folders/th/s5djnwg15xxc0dk87c413f_h0000gn/T//ccCW3aXI.s:3577   .rodata._ZZ4mainE8kSelPins:0000000000000000 _ZZ4mainE8kSelPins
                           .group:0000000000000000 _ZN5daisy9DaisySeedD5Ev

UNDEFINED SYMBOLS
_ZN5daisy9DaisySeed15AudioSampleRateEv
_ZN5daisy9I2CHandle4InitERKNS0_6ConfigE
_ZN5daisy9I2CHandle16TransmitBlockingEtPhtm
_ZN5daisy9DaisySeed4InitEb
_ZN5daisy9DaisySeed17SetAudioBlockSizeEj
_ZN5daisy6LoggerILNS_17LoggerDestinationE1EE8StartLogEb
_ZN5daisy6System5DelayEm
memset
_ZN5daisy6LoggerILNS_17LoggerDestinationE1EE9PrintLineEPKcz
_ZN5daisy4GPIO4InitENS_3PinENS0_4ModeENS0_4PullENS0_5SpeedE
_ZN5daisy16AdcChannelConfig10InitSingleE12dsy_gpio_pinNS0_15ConversionSpeedE
_ZN5daisy9AdcHandle4InitEPNS_16AdcChannelConfigEjNS0_12OverSamplingE
_ZN5daisy9AdcHandle5StartEv
_ZN5daisy4GPIO5WriteEb
_ZN5daisy6System7DelayUsEm
_ZNK5daisy9AdcHandle8GetFloatEh
_ZN5daisy9DaisySeed10StartAudioEPFvPKPKfPPfjE
__aeabi_atexit
__dso_handle
